
target/riscv64gc-unknown-none-elf/release/ls:     file format elf64-littleriscv


Disassembly of section .text:

0000000000001000 <maine>:
    1000:	1141                	add	sp,sp,-16
    1002:	e406                	sd	ra,8(sp)
    1004:	e022                	sd	s0,0(sp)

0000000000001006 <.Lpcrel_hi0>:
    1006:	00015517          	auipc	a0,0x15
    100a:	ffa50413          	add	s0,a0,-6 # 16000 <_ZN6kernel2fs5FILES17ha4962b5e3f59440dE>
    100e:	ffc47513          	and	a0,s0,-4
    1012:	4585                	li	a1,1
    1014:	44b5262f          	amoor.w.aq	a2,a1,(a0)
    1018:	0ff67613          	zext.b	a2,a2
    101c:	e601                	bnez	a2,1024 <.Lpcrel_hi0+0x1e>
    101e:	a039                	j	102c <.Lpcrel_hi0+0x26>
    1020:	0100000f          	fence	w,unknown
    1024:	00040603          	lb	a2,0(s0)
    1028:	fe65                	bnez	a2,1020 <.Lpcrel_hi0+0x1a>
    102a:	b7ed                	j	1014 <.Lpcrel_hi0+0xe>
    102c:	00440513          	add	a0,s0,4
    1030:	00000097          	auipc	ra,0x0
    1034:	1e0080e7          	jalr	480(ra) # 1210 <_ZN6kernel2fs9FileTable2ls17ha56de1b5229f322bE>
    1038:	0310000f          	fence	rw,w
    103c:	00040023          	sb	zero,0(s0)
    1040:	60a2                	ld	ra,8(sp)
    1042:	6402                	ld	s0,0(sp)
    1044:	0141                	add	sp,sp,16
    1046:	8082                	ret

0000000000001048 <rust_begin_unwind>:
    1048:	7115                	add	sp,sp,-224
    104a:	ed86                	sd	ra,216(sp)
    104c:	e42a                	sd	a0,8(sp)

000000000000104e <.Lpcrel_hi9>:
    104e:	00004597          	auipc	a1,0x4
    1052:	58258593          	add	a1,a1,1410 # 55d0 <_ZN6kernel4uart4UART17h64e456053680aa82E>
    1056:	ffc5f693          	and	a3,a1,-4
    105a:	4605                	li	a2,1
    105c:	44c6a72f          	amoor.w.aq	a4,a2,(a3)
    1060:	0ff77713          	zext.b	a4,a4
    1064:	e701                	bnez	a4,106c <.Lpcrel_hi9+0x1e>
    1066:	a039                	j	1074 <.Lpcrel_hi9+0x26>
    1068:	0100000f          	fence	w,unknown
    106c:	00058703          	lb	a4,0(a1)
    1070:	ff65                	bnez	a4,1068 <.Lpcrel_hi9+0x1a>
    1072:	b7ed                	j	105c <.Lpcrel_hi9+0xe>
    1074:	6594                	ld	a3,8(a1)
    1076:	4729                	li	a4,10
    1078:	00e68023          	sb	a4,0(a3)
    107c:	05000713          	li	a4,80
    1080:	00e68023          	sb	a4,0(a3)
    1084:	04100713          	li	a4,65
    1088:	00e68023          	sb	a4,0(a3)
    108c:	04e00713          	li	a4,78
    1090:	00e68023          	sb	a4,0(a3)
    1094:	04900713          	li	a4,73
    1098:	00e68023          	sb	a4,0(a3)
    109c:	04300713          	li	a4,67
    10a0:	00e68023          	sb	a4,0(a3)
    10a4:	03a00713          	li	a4,58
    10a8:	00e68023          	sb	a4,0(a3)
    10ac:	02000713          	li	a4,32
    10b0:	00e68023          	sb	a4,0(a3)
    10b4:	6518                	ld	a4,8(a0)
    10b6:	6d14                	ld	a3,24(a0)
    10b8:	00c70563          	beq	a4,a2,10c2 <.Lpcrel_hi9+0x74>
    10bc:	e709                	bnez	a4,10c6 <.Lpcrel_hi9+0x78>
    10be:	e681                	bnez	a3,10c6 <.Lpcrel_hi9+0x78>
    10c0:	a801                	j	10d0 <.Lpcrel_hi9+0x82>
    10c2:	12068963          	beqz	a3,11f4 <.Lpcrel_hi12+0x28>
    10c6:	6590                	ld	a2,8(a1)
    10c8:	05800693          	li	a3,88
    10cc:	00d60023          	sb	a3,0(a2)
    10d0:	6590                	ld	a2,8(a1)
    10d2:	4829                	li	a6,10
    10d4:	01060023          	sb	a6,0(a2)
    10d8:	04600693          	li	a3,70
    10dc:	00d60023          	sb	a3,0(a2)
    10e0:	04900893          	li	a7,73
    10e4:	01160023          	sb	a7,0(a2)
    10e8:	04c00393          	li	t2,76
    10ec:	00760023          	sb	t2,0(a2)
    10f0:	04500293          	li	t0,69
    10f4:	00560023          	sb	t0,0(a2)
    10f8:	03a00313          	li	t1,58
    10fc:	00660023          	sb	t1,0(a2)
    1100:	02000e13          	li	t3,32
    1104:	01c60023          	sb	t3,0(a2)
    1108:	7908                	ld	a0,48(a0)
    110a:	6518                	ld	a4,8(a0)
    110c:	cb11                	beqz	a4,1120 <.Lpcrel_hi9+0xd2>
    110e:	6110                	ld	a2,0(a0)
    1110:	659c                	ld	a5,8(a1)
    1112:	00064683          	lbu	a3,0(a2)
    1116:	0605                	add	a2,a2,1
    1118:	177d                	add	a4,a4,-1
    111a:	00d78023          	sb	a3,0(a5)
    111e:	fb75                	bnez	a4,1112 <.Lpcrel_hi9+0xc4>
    1120:	6590                	ld	a2,8(a1)
    1122:	01060023          	sb	a6,0(a2)
    1126:	00760023          	sb	t2,0(a2)
    112a:	01160023          	sb	a7,0(a2)
    112e:	04e00693          	li	a3,78
    1132:	00d60023          	sb	a3,0(a2)
    1136:	00560023          	sb	t0,0(a2)
    113a:	00660023          	sb	t1,0(a2)
    113e:	01c60023          	sb	t3,0(a2)
    1142:	4908                	lw	a0,16(a0)
    1144:	c905                	beqz	a0,1174 <.Lpcrel_hi9+0x126>
    1146:	0085b803          	ld	a6,8(a1)
    114a:	ccccd6b7          	lui	a3,0xccccd
    114e:	ccd68693          	add	a3,a3,-819 # ffffffffcccccccd <end+0xffffffffcccaecc9>
    1152:	1682                	sll	a3,a3,0x20
    1154:	4729                	li	a4,10
    1156:	87aa                	mv	a5,a0
    1158:	1502                	sll	a0,a0,0x20
    115a:	02d53533          	mulhu	a0,a0,a3
    115e:	910d                	srl	a0,a0,0x23
    1160:	02e50633          	mul	a2,a0,a4
    1164:	40c7863b          	subw	a2,a5,a2
    1168:	03066613          	or	a2,a2,48
    116c:	00c80023          	sb	a2,0(a6)
    1170:	fee7f3e3          	bgeu	a5,a4,1156 <.Lpcrel_hi9+0x108>
    1174:	6588                	ld	a0,8(a1)
    1176:	4629                	li	a2,10
    1178:	00c50023          	sb	a2,0(a0)
    117c:	0310000f          	fence	rw,w
    1180:	00058023          	sb	zero,0(a1)
    1184:	8512                	mv	a0,tp
    1186:	f0aa                	sd	a0,96(sp)
    1188:	1088                	add	a0,sp,96
    118a:	e0aa                	sd	a0,64(sp)

000000000000118c <.Lpcrel_hi10>:
    118c:	00002517          	auipc	a0,0x2
    1190:	dd650513          	add	a0,a0,-554 # 2f62 <_ZN4core3fmt3num3imp52_$LT$impl$u20$core..fmt..Display$u20$for$u20$u64$GT$3fmt17hd54b8357f338ce60E>
    1194:	e4aa                	sd	a0,72(sp)
    1196:	0028                	add	a0,sp,8
    1198:	e8aa                	sd	a0,80(sp)

000000000000119a <.Lpcrel_hi11>:
    119a:	00000517          	auipc	a0,0x0
    119e:	41250513          	add	a0,a0,1042 # 15ac <_ZN44_$LT$$RF$T$u20$as$u20$core..fmt..Display$GT$3fmt17h5ea7834e0ce58bc5E>
    11a2:	ecaa                	sd	a0,88(sp)
    11a4:	4509                	li	a0,2
    11a6:	f4aa                	sd	a0,104(sp)
    11a8:	fcaa                	sd	a0,120(sp)
    11aa:	e502                	sd	zero,136(sp)
    11ac:	02000593          	li	a1,32
    11b0:	e92e                	sd	a1,144(sp)
    11b2:	458d                	li	a1,3
    11b4:	08b10c23          	sb	a1,152(sp)
    11b8:	f12a                	sd	a0,160(sp)
    11ba:	f92a                	sd	a0,176(sp)
    11bc:	4605                	li	a2,1
    11be:	e1b2                	sd	a2,192(sp)
    11c0:	160a                	sll	a2,a2,0x22
    11c2:	02060613          	add	a2,a2,32
    11c6:	e5b2                	sd	a2,200(sp)
    11c8:	0cb10823          	sb	a1,208(sp)

00000000000011cc <.Lpcrel_hi12>:
    11cc:	00003617          	auipc	a2,0x3
    11d0:	e5460613          	add	a2,a2,-428 # 4020 <.Lanon.c52970ddbcc266f70c25a361dd8dfc98.35>
    11d4:	e832                	sd	a2,16(sp)
    11d6:	ec2e                	sd	a1,24(sp)
    11d8:	10ac                	add	a1,sp,104
    11da:	f82e                	sd	a1,48(sp)
    11dc:	fc2a                	sd	a0,56(sp)
    11de:	008c                	add	a1,sp,64
    11e0:	f02e                	sd	a1,32(sp)
    11e2:	f42a                	sd	a0,40(sp)
    11e4:	0808                	add	a0,sp,16
    11e6:	00000097          	auipc	ra,0x0
    11ea:	3e6080e7          	jalr	998(ra) # 15cc <_ZN6kernel4trap9interrupt18without_interrupts17h7ce105206686c7c0E>
    11ee:	0100000f          	fence	w,unknown
    11f2:	bff5                	j	11ee <.Lpcrel_hi12+0x22>
    11f4:	6114                	ld	a3,0(a0)
    11f6:	6690                	ld	a2,8(a3)
    11f8:	ec060ce3          	beqz	a2,10d0 <.Lpcrel_hi9+0x82>
    11fc:	6298                	ld	a4,0(a3)
    11fe:	6594                	ld	a3,8(a1)
    1200:	00074783          	lbu	a5,0(a4)
    1204:	0705                	add	a4,a4,1
    1206:	167d                	add	a2,a2,-1
    1208:	00f68023          	sb	a5,0(a3)
    120c:	fa75                	bnez	a2,1200 <.Lpcrel_hi12+0x34>
    120e:	b5c9                	j	10d0 <.Lpcrel_hi9+0x82>

0000000000001210 <_ZN6kernel2fs9FileTable2ls17ha56de1b5229f322bE>:
    1210:	7131                	add	sp,sp,-192
    1212:	fd06                	sd	ra,184(sp)
    1214:	f922                	sd	s0,176(sp)
    1216:	f526                	sd	s1,168(sp)
    1218:	f14a                	sd	s2,160(sp)
    121a:	ed4e                	sd	s3,152(sp)
    121c:	e952                	sd	s4,144(sp)
    121e:	e556                	sd	s5,136(sp)
    1220:	e15a                	sd	s6,128(sp)
    1222:	fcde                	sd	s7,120(sp)
    1224:	f8e2                	sd	s8,112(sp)
    1226:	f4e6                	sd	s9,104(sp)
    1228:	f0ea                	sd	s10,96(sp)
    122a:	ecee                	sd	s11,88(sp)
    122c:	842a                	mv	s0,a0

000000000000122e <.Lpcrel_hi5>:
    122e:	00003517          	auipc	a0,0x3
    1232:	e3a50513          	add	a0,a0,-454 # 4068 <.Lanon.2d1874b916770e24482da30d672d4674.7>
    1236:	e82a                	sd	a0,16(sp)
    1238:	4c85                	li	s9,1
    123a:	ec66                	sd	s9,24(sp)
    123c:	f802                	sd	zero,48(sp)
    123e:	0888                	add	a0,sp,80
    1240:	f02a                	sd	a0,32(sp)
    1242:	f402                	sd	zero,40(sp)
    1244:	0808                	add	a0,sp,16
    1246:	00000097          	auipc	ra,0x0
    124a:	386080e7          	jalr	902(ra) # 15cc <_ZN6kernel4trap9interrupt18without_interrupts17h7ce105206686c7c0E>
    124e:	0471                	add	s0,s0,28
    1250:	6921                	lui	s2,0x8
    1252:	35a4f537          	lui	a0,0x35a4f
    1256:	96f5099b          	addw	s3,a0,-1681 # 35a4e96f <end+0x35a3096b>

000000000000125a <.Lpcrel_hi6>:
    125a:	00002517          	auipc	a0,0x2
    125e:	ccc50a13          	add	s4,a0,-820 # 2f26 <_ZN4core3fmt3num3imp52_$LT$impl$u20$core..fmt..Display$u20$for$u20$u16$GT$3fmt17h5d746266f57fcb3dE>

0000000000001262 <.Lpcrel_hi7>:
    1262:	00003517          	auipc	a0,0x3
    1266:	e1e50a93          	add	s5,a0,-482 # 4080 <.Lanon.2d1874b916770e24482da30d672d4674.9>
    126a:	04010b93          	add	s7,sp,64
    126e:	00f10c13          	add	s8,sp,15

0000000000001272 <.Lpcrel_hi8>:
    1272:	00000517          	auipc	a0,0x0
    1276:	6e250d13          	add	s10,a0,1762 # 1954 <_ZN73_$LT$core..ascii..ascii_char..AsciiChar$u20$as$u20$core..fmt..Display$GT$3fmt17hdc88fb4bba510d09E>

000000000000127a <.Lpcrel_hi9>:
    127a:	00003517          	auipc	a0,0x3
    127e:	e6e50493          	add	s1,a0,-402 # 40e8 <.Lanon.2d1874b916770e24482da30d672d4674.12+0x40>

0000000000001282 <.Lpcrel_hi10>:
    1282:	00002517          	auipc	a0,0x2
    1286:	cc250d93          	add	s11,a0,-830 # 2f44 <_ZN4core3fmt3num3imp52_$LT$impl$u20$core..fmt..Display$u20$for$u20$u32$GT$3fmt17heeec3f2fdb7fbbceE>

000000000000128a <.Lpcrel_hi11>:
    128a:	00003517          	auipc	a0,0x3
    128e:	e1e50b13          	add	s6,a0,-482 # 40a8 <.Lanon.2d1874b916770e24482da30d672d4674.12>
    1292:	a83d                	j	12d0 <.Lpcrel_hi11+0x46>
    1294:	00a107a3          	sb	a0,15(sp)
    1298:	e0e2                	sd	s8,64(sp)
    129a:	e4ea                	sd	s10,72(sp)
    129c:	e826                	sd	s1,16(sp)
    129e:	ec66                	sd	s9,24(sp)
    12a0:	f802                	sd	zero,48(sp)
    12a2:	f05e                	sd	s7,32(sp)
    12a4:	f466                	sd	s9,40(sp)
    12a6:	0808                	add	a0,sp,16
    12a8:	00000097          	auipc	ra,0x0
    12ac:	324080e7          	jalr	804(ra) # 15cc <_ZN6kernel4trap9interrupt18without_interrupts17h7ce105206686c7c0E>
    12b0:	e0a2                	sd	s0,64(sp)
    12b2:	e4ee                	sd	s11,72(sp)
    12b4:	e85a                	sd	s6,16(sp)
    12b6:	4509                	li	a0,2
    12b8:	ec2a                	sd	a0,24(sp)
    12ba:	f802                	sd	zero,48(sp)
    12bc:	f05e                	sd	s7,32(sp)
    12be:	f466                	sd	s9,40(sp)
    12c0:	0808                	add	a0,sp,16
    12c2:	00000097          	auipc	ra,0x0
    12c6:	30a080e7          	jalr	778(ra) # 15cc <_ZN6kernel4trap9interrupt18without_interrupts17h7ce105206686c7c0E>
    12ca:	02040413          	add	s0,s0,32
    12ce:	1901                	add	s2,s2,-32 # 7fe0 <_ZN6kernel7console7CONSOLE17hf1f49ad43aab6abcE+0x2a00>
    12d0:	2a090f63          	beqz	s2,158e <.Lpcrel_hi11+0x304>
    12d4:	fe442503          	lw	a0,-28(s0)
    12d8:	ff3519e3          	bne	a0,s3,12ca <.Lpcrel_hi11+0x40>
    12dc:	fec40513          	add	a0,s0,-20
    12e0:	e0aa                	sd	a0,64(sp)
    12e2:	e4d2                	sd	s4,72(sp)
    12e4:	e856                	sd	s5,16(sp)
    12e6:	4509                	li	a0,2
    12e8:	ec2a                	sd	a0,24(sp)
    12ea:	f802                	sd	zero,48(sp)
    12ec:	f05e                	sd	s7,32(sp)
    12ee:	f466                	sd	s9,40(sp)
    12f0:	0808                	add	a0,sp,16
    12f2:	00000097          	auipc	ra,0x0
    12f6:	2da080e7          	jalr	730(ra) # 15cc <_ZN6kernel4trap9interrupt18without_interrupts17h7ce105206686c7c0E>
    12fa:	fee44503          	lbu	a0,-18(s0)
    12fe:	e119                	bnez	a0,1304 <.Lpcrel_hi11+0x7a>
    1300:	02000513          	li	a0,32
    1304:	00a107a3          	sb	a0,15(sp)
    1308:	e0e2                	sd	s8,64(sp)
    130a:	e4ea                	sd	s10,72(sp)
    130c:	e826                	sd	s1,16(sp)
    130e:	ec66                	sd	s9,24(sp)
    1310:	f802                	sd	zero,48(sp)
    1312:	f05e                	sd	s7,32(sp)
    1314:	f466                	sd	s9,40(sp)
    1316:	0808                	add	a0,sp,16
    1318:	00000097          	auipc	ra,0x0
    131c:	2b4080e7          	jalr	692(ra) # 15cc <_ZN6kernel4trap9interrupt18without_interrupts17h7ce105206686c7c0E>
    1320:	fef44503          	lbu	a0,-17(s0)
    1324:	e119                	bnez	a0,132a <.Lpcrel_hi11+0xa0>
    1326:	02000513          	li	a0,32
    132a:	00a107a3          	sb	a0,15(sp)
    132e:	e0e2                	sd	s8,64(sp)
    1330:	e4ea                	sd	s10,72(sp)
    1332:	e826                	sd	s1,16(sp)
    1334:	ec66                	sd	s9,24(sp)
    1336:	f802                	sd	zero,48(sp)
    1338:	f05e                	sd	s7,32(sp)
    133a:	f466                	sd	s9,40(sp)
    133c:	0808                	add	a0,sp,16
    133e:	00000097          	auipc	ra,0x0
    1342:	28e080e7          	jalr	654(ra) # 15cc <_ZN6kernel4trap9interrupt18without_interrupts17h7ce105206686c7c0E>
    1346:	ff044503          	lbu	a0,-16(s0)
    134a:	e119                	bnez	a0,1350 <.Lpcrel_hi11+0xc6>
    134c:	02000513          	li	a0,32
    1350:	00a107a3          	sb	a0,15(sp)
    1354:	e0e2                	sd	s8,64(sp)
    1356:	e4ea                	sd	s10,72(sp)
    1358:	e826                	sd	s1,16(sp)
    135a:	ec66                	sd	s9,24(sp)
    135c:	f802                	sd	zero,48(sp)
    135e:	f05e                	sd	s7,32(sp)
    1360:	f466                	sd	s9,40(sp)
    1362:	0808                	add	a0,sp,16
    1364:	00000097          	auipc	ra,0x0
    1368:	268080e7          	jalr	616(ra) # 15cc <_ZN6kernel4trap9interrupt18without_interrupts17h7ce105206686c7c0E>
    136c:	ff144503          	lbu	a0,-15(s0)
    1370:	e119                	bnez	a0,1376 <.Lpcrel_hi11+0xec>
    1372:	02000513          	li	a0,32
    1376:	00a107a3          	sb	a0,15(sp)
    137a:	e0e2                	sd	s8,64(sp)
    137c:	e4ea                	sd	s10,72(sp)
    137e:	e826                	sd	s1,16(sp)
    1380:	ec66                	sd	s9,24(sp)
    1382:	f802                	sd	zero,48(sp)
    1384:	f05e                	sd	s7,32(sp)
    1386:	f466                	sd	s9,40(sp)
    1388:	0808                	add	a0,sp,16
    138a:	00000097          	auipc	ra,0x0
    138e:	242080e7          	jalr	578(ra) # 15cc <_ZN6kernel4trap9interrupt18without_interrupts17h7ce105206686c7c0E>
    1392:	ff244503          	lbu	a0,-14(s0)
    1396:	e119                	bnez	a0,139c <.Lpcrel_hi11+0x112>
    1398:	02000513          	li	a0,32
    139c:	00a107a3          	sb	a0,15(sp)
    13a0:	e0e2                	sd	s8,64(sp)
    13a2:	e4ea                	sd	s10,72(sp)
    13a4:	e826                	sd	s1,16(sp)
    13a6:	ec66                	sd	s9,24(sp)
    13a8:	f802                	sd	zero,48(sp)
    13aa:	f05e                	sd	s7,32(sp)
    13ac:	f466                	sd	s9,40(sp)
    13ae:	0808                	add	a0,sp,16
    13b0:	00000097          	auipc	ra,0x0
    13b4:	21c080e7          	jalr	540(ra) # 15cc <_ZN6kernel4trap9interrupt18without_interrupts17h7ce105206686c7c0E>
    13b8:	ff344503          	lbu	a0,-13(s0)
    13bc:	e119                	bnez	a0,13c2 <.Lpcrel_hi11+0x138>
    13be:	02000513          	li	a0,32
    13c2:	00a107a3          	sb	a0,15(sp)
    13c6:	e0e2                	sd	s8,64(sp)
    13c8:	e4ea                	sd	s10,72(sp)
    13ca:	e826                	sd	s1,16(sp)
    13cc:	ec66                	sd	s9,24(sp)
    13ce:	f802                	sd	zero,48(sp)
    13d0:	f05e                	sd	s7,32(sp)
    13d2:	f466                	sd	s9,40(sp)
    13d4:	0808                	add	a0,sp,16
    13d6:	00000097          	auipc	ra,0x0
    13da:	1f6080e7          	jalr	502(ra) # 15cc <_ZN6kernel4trap9interrupt18without_interrupts17h7ce105206686c7c0E>
    13de:	ff444503          	lbu	a0,-12(s0)
    13e2:	e119                	bnez	a0,13e8 <.Lpcrel_hi11+0x15e>
    13e4:	02000513          	li	a0,32
    13e8:	00a107a3          	sb	a0,15(sp)
    13ec:	e0e2                	sd	s8,64(sp)
    13ee:	e4ea                	sd	s10,72(sp)
    13f0:	e826                	sd	s1,16(sp)
    13f2:	ec66                	sd	s9,24(sp)
    13f4:	f802                	sd	zero,48(sp)
    13f6:	f05e                	sd	s7,32(sp)
    13f8:	f466                	sd	s9,40(sp)
    13fa:	0808                	add	a0,sp,16
    13fc:	00000097          	auipc	ra,0x0
    1400:	1d0080e7          	jalr	464(ra) # 15cc <_ZN6kernel4trap9interrupt18without_interrupts17h7ce105206686c7c0E>
    1404:	ff544503          	lbu	a0,-11(s0)
    1408:	e119                	bnez	a0,140e <.Lpcrel_hi11+0x184>
    140a:	02000513          	li	a0,32
    140e:	00a107a3          	sb	a0,15(sp)
    1412:	e0e2                	sd	s8,64(sp)
    1414:	e4ea                	sd	s10,72(sp)
    1416:	e826                	sd	s1,16(sp)
    1418:	ec66                	sd	s9,24(sp)
    141a:	f802                	sd	zero,48(sp)
    141c:	f05e                	sd	s7,32(sp)
    141e:	f466                	sd	s9,40(sp)
    1420:	0808                	add	a0,sp,16
    1422:	00000097          	auipc	ra,0x0
    1426:	1aa080e7          	jalr	426(ra) # 15cc <_ZN6kernel4trap9interrupt18without_interrupts17h7ce105206686c7c0E>
    142a:	ff644503          	lbu	a0,-10(s0)
    142e:	e119                	bnez	a0,1434 <.Lpcrel_hi11+0x1aa>
    1430:	02000513          	li	a0,32
    1434:	00a107a3          	sb	a0,15(sp)
    1438:	e0e2                	sd	s8,64(sp)
    143a:	e4ea                	sd	s10,72(sp)
    143c:	e826                	sd	s1,16(sp)
    143e:	ec66                	sd	s9,24(sp)
    1440:	f802                	sd	zero,48(sp)
    1442:	f05e                	sd	s7,32(sp)
    1444:	f466                	sd	s9,40(sp)
    1446:	0808                	add	a0,sp,16
    1448:	00000097          	auipc	ra,0x0
    144c:	184080e7          	jalr	388(ra) # 15cc <_ZN6kernel4trap9interrupt18without_interrupts17h7ce105206686c7c0E>
    1450:	ff744503          	lbu	a0,-9(s0)
    1454:	e119                	bnez	a0,145a <.Lpcrel_hi11+0x1d0>
    1456:	02000513          	li	a0,32
    145a:	00a107a3          	sb	a0,15(sp)
    145e:	e0e2                	sd	s8,64(sp)
    1460:	e4ea                	sd	s10,72(sp)
    1462:	e826                	sd	s1,16(sp)
    1464:	ec66                	sd	s9,24(sp)
    1466:	f802                	sd	zero,48(sp)
    1468:	f05e                	sd	s7,32(sp)
    146a:	f466                	sd	s9,40(sp)
    146c:	0808                	add	a0,sp,16
    146e:	00000097          	auipc	ra,0x0
    1472:	15e080e7          	jalr	350(ra) # 15cc <_ZN6kernel4trap9interrupt18without_interrupts17h7ce105206686c7c0E>
    1476:	ff844503          	lbu	a0,-8(s0)
    147a:	e119                	bnez	a0,1480 <.Lpcrel_hi11+0x1f6>
    147c:	02000513          	li	a0,32
    1480:	00a107a3          	sb	a0,15(sp)
    1484:	e0e2                	sd	s8,64(sp)
    1486:	e4ea                	sd	s10,72(sp)
    1488:	e826                	sd	s1,16(sp)
    148a:	ec66                	sd	s9,24(sp)
    148c:	f802                	sd	zero,48(sp)
    148e:	f05e                	sd	s7,32(sp)
    1490:	f466                	sd	s9,40(sp)
    1492:	0808                	add	a0,sp,16
    1494:	00000097          	auipc	ra,0x0
    1498:	138080e7          	jalr	312(ra) # 15cc <_ZN6kernel4trap9interrupt18without_interrupts17h7ce105206686c7c0E>
    149c:	ff944503          	lbu	a0,-7(s0)
    14a0:	e119                	bnez	a0,14a6 <.Lpcrel_hi11+0x21c>
    14a2:	02000513          	li	a0,32
    14a6:	00a107a3          	sb	a0,15(sp)
    14aa:	e0e2                	sd	s8,64(sp)
    14ac:	e4ea                	sd	s10,72(sp)
    14ae:	e826                	sd	s1,16(sp)
    14b0:	ec66                	sd	s9,24(sp)
    14b2:	f802                	sd	zero,48(sp)
    14b4:	f05e                	sd	s7,32(sp)
    14b6:	f466                	sd	s9,40(sp)
    14b8:	0808                	add	a0,sp,16
    14ba:	00000097          	auipc	ra,0x0
    14be:	112080e7          	jalr	274(ra) # 15cc <_ZN6kernel4trap9interrupt18without_interrupts17h7ce105206686c7c0E>
    14c2:	ffa44503          	lbu	a0,-6(s0)
    14c6:	e119                	bnez	a0,14cc <.Lpcrel_hi11+0x242>
    14c8:	02000513          	li	a0,32
    14cc:	00a107a3          	sb	a0,15(sp)
    14d0:	e0e2                	sd	s8,64(sp)
    14d2:	e4ea                	sd	s10,72(sp)
    14d4:	e826                	sd	s1,16(sp)
    14d6:	ec66                	sd	s9,24(sp)
    14d8:	f802                	sd	zero,48(sp)
    14da:	f05e                	sd	s7,32(sp)
    14dc:	f466                	sd	s9,40(sp)
    14de:	0808                	add	a0,sp,16
    14e0:	00000097          	auipc	ra,0x0
    14e4:	0ec080e7          	jalr	236(ra) # 15cc <_ZN6kernel4trap9interrupt18without_interrupts17h7ce105206686c7c0E>
    14e8:	ffb44503          	lbu	a0,-5(s0)
    14ec:	e119                	bnez	a0,14f2 <.Lpcrel_hi11+0x268>
    14ee:	02000513          	li	a0,32
    14f2:	00a107a3          	sb	a0,15(sp)
    14f6:	e0e2                	sd	s8,64(sp)
    14f8:	e4ea                	sd	s10,72(sp)
    14fa:	e826                	sd	s1,16(sp)
    14fc:	ec66                	sd	s9,24(sp)
    14fe:	f802                	sd	zero,48(sp)
    1500:	f05e                	sd	s7,32(sp)
    1502:	f466                	sd	s9,40(sp)
    1504:	0808                	add	a0,sp,16
    1506:	00000097          	auipc	ra,0x0
    150a:	0c6080e7          	jalr	198(ra) # 15cc <_ZN6kernel4trap9interrupt18without_interrupts17h7ce105206686c7c0E>
    150e:	ffc44503          	lbu	a0,-4(s0)
    1512:	e119                	bnez	a0,1518 <.Lpcrel_hi11+0x28e>
    1514:	02000513          	li	a0,32
    1518:	00a107a3          	sb	a0,15(sp)
    151c:	e0e2                	sd	s8,64(sp)
    151e:	e4ea                	sd	s10,72(sp)
    1520:	e826                	sd	s1,16(sp)
    1522:	ec66                	sd	s9,24(sp)
    1524:	f802                	sd	zero,48(sp)
    1526:	f05e                	sd	s7,32(sp)
    1528:	f466                	sd	s9,40(sp)
    152a:	0808                	add	a0,sp,16
    152c:	00000097          	auipc	ra,0x0
    1530:	0a0080e7          	jalr	160(ra) # 15cc <_ZN6kernel4trap9interrupt18without_interrupts17h7ce105206686c7c0E>
    1534:	ffd44503          	lbu	a0,-3(s0)
    1538:	e119                	bnez	a0,153e <.Lpcrel_hi11+0x2b4>
    153a:	02000513          	li	a0,32
    153e:	00a107a3          	sb	a0,15(sp)
    1542:	e0e2                	sd	s8,64(sp)
    1544:	e4ea                	sd	s10,72(sp)
    1546:	e826                	sd	s1,16(sp)
    1548:	ec66                	sd	s9,24(sp)
    154a:	f802                	sd	zero,48(sp)
    154c:	f05e                	sd	s7,32(sp)
    154e:	f466                	sd	s9,40(sp)
    1550:	0808                	add	a0,sp,16
    1552:	00000097          	auipc	ra,0x0
    1556:	07a080e7          	jalr	122(ra) # 15cc <_ZN6kernel4trap9interrupt18without_interrupts17h7ce105206686c7c0E>
    155a:	ffe44503          	lbu	a0,-2(s0)
    155e:	e119                	bnez	a0,1564 <.Lpcrel_hi11+0x2da>
    1560:	02000513          	li	a0,32
    1564:	00a107a3          	sb	a0,15(sp)
    1568:	e0e2                	sd	s8,64(sp)
    156a:	e4ea                	sd	s10,72(sp)
    156c:	e826                	sd	s1,16(sp)
    156e:	ec66                	sd	s9,24(sp)
    1570:	f802                	sd	zero,48(sp)
    1572:	f05e                	sd	s7,32(sp)
    1574:	f466                	sd	s9,40(sp)
    1576:	0808                	add	a0,sp,16
    1578:	00000097          	auipc	ra,0x0
    157c:	054080e7          	jalr	84(ra) # 15cc <_ZN6kernel4trap9interrupt18without_interrupts17h7ce105206686c7c0E>
    1580:	fff44503          	lbu	a0,-1(s0)
    1584:	d00518e3          	bnez	a0,1294 <.Lpcrel_hi11+0xa>
    1588:	02000513          	li	a0,32
    158c:	b321                	j	1294 <.Lpcrel_hi11+0xa>
    158e:	70ea                	ld	ra,184(sp)
    1590:	744a                	ld	s0,176(sp)
    1592:	74aa                	ld	s1,168(sp)
    1594:	790a                	ld	s2,160(sp)
    1596:	69ea                	ld	s3,152(sp)
    1598:	6a4a                	ld	s4,144(sp)
    159a:	6aaa                	ld	s5,136(sp)
    159c:	6b0a                	ld	s6,128(sp)
    159e:	7be6                	ld	s7,120(sp)
    15a0:	7c46                	ld	s8,112(sp)
    15a2:	7ca6                	ld	s9,104(sp)
    15a4:	7d06                	ld	s10,96(sp)
    15a6:	6de6                	ld	s11,88(sp)
    15a8:	6129                	add	sp,sp,192
    15aa:	8082                	ret

00000000000015ac <_ZN44_$LT$$RF$T$u20$as$u20$core..fmt..Display$GT$3fmt17h5ea7834e0ce58bc5E>:
    15ac:	6108                	ld	a0,0(a0)
    15ae:	00000317          	auipc	t1,0x0
    15b2:	3e230067          	jr	994(t1) # 1990 <_ZN73_$LT$core..panic..panic_info..PanicInfo$u20$as$u20$core..fmt..Display$GT$3fmt17ha411d417b0cb6862E>

00000000000015b6 <_ZN53_$LT$core..fmt..Error$u20$as$u20$core..fmt..Debug$GT$3fmt17h5f716f9f31288b15E.llvm.18187908855622888574>:
    15b6:	00003517          	auipc	a0,0x3
    15ba:	b5250693          	add	a3,a0,-1198 # 4108 <.Lanon.a10dc4acf2bdc285224ee929493701d2.6>
    15be:	4615                	li	a2,5
    15c0:	852e                	mv	a0,a1
    15c2:	85b6                	mv	a1,a3
    15c4:	00001317          	auipc	t1,0x1
    15c8:	c1230067          	jr	-1006(t1) # 21d6 <_ZN4core3fmt9Formatter9write_str17h4287e59e01be30b4E>

00000000000015cc <_ZN6kernel4trap9interrupt18without_interrupts17h7ce105206686c7c0E>:
    15cc:	715d                	add	sp,sp,-80
    15ce:	e486                	sd	ra,72(sp)
    15d0:	e0a2                	sd	s0,64(sp)
    15d2:	fc26                	sd	s1,56(sp)
    15d4:	10002473          	csrr	s0,sstatus
    15d8:	100025f3          	csrr	a1,sstatus
    15dc:	99f5                	and	a1,a1,-3
    15de:	10059073          	csrw	sstatus,a1

00000000000015e2 <.Lpcrel_hi45>:
    15e2:	00004597          	auipc	a1,0x4
    15e6:	ffe58493          	add	s1,a1,-2 # 55e0 <_ZN6kernel7console7CONSOLE17hf1f49ad43aab6abcE>
    15ea:	ffc4f593          	and	a1,s1,-4
    15ee:	0034f613          	and	a2,s1,3
    15f2:	060e                	sll	a2,a2,0x3
    15f4:	4685                	li	a3,1
    15f6:	00c696bb          	sllw	a3,a3,a2
    15fa:	44d5a72f          	amoor.w.aq	a4,a3,(a1)
    15fe:	00c7573b          	srlw	a4,a4,a2
    1602:	0ff77713          	zext.b	a4,a4
    1606:	e701                	bnez	a4,160e <.Lpcrel_hi45+0x2c>
    1608:	a039                	j	1616 <.Lpcrel_hi45+0x34>
    160a:	0100000f          	fence	w,unknown
    160e:	00048703          	lb	a4,0(s1)
    1612:	ff65                	bnez	a4,160a <.Lpcrel_hi45+0x28>
    1614:	b7dd                	j	15fa <.Lpcrel_hi45+0x18>
    1616:	610c                	ld	a1,0(a0)
    1618:	6510                	ld	a2,8(a0)
    161a:	6914                	ld	a3,16(a0)
    161c:	6d18                	ld	a4,24(a0)
    161e:	e42e                	sd	a1,8(sp)
    1620:	e832                	sd	a2,16(sp)
    1622:	710c                	ld	a1,32(a0)
    1624:	7508                	ld	a0,40(a0)
    1626:	ec36                	sd	a3,24(sp)
    1628:	f03a                	sd	a4,32(sp)
    162a:	f42e                	sd	a1,40(sp)
    162c:	f82a                	sd	a0,48(sp)
    162e:	00248513          	add	a0,s1,2

0000000000001632 <.Lpcrel_hi46>:
    1632:	00003597          	auipc	a1,0x3
    1636:	ade58593          	add	a1,a1,-1314 # 4110 <anon.a10dc4acf2bdc285224ee929493701d2.12.llvm.18187908855622888574>
    163a:	0030                	add	a2,sp,8
    163c:	00000097          	auipc	ra,0x0
    1640:	5a0080e7          	jalr	1440(ra) # 1bdc <_ZN4core3fmt5write17hffc3b19826d8e13cE>
    1644:	e105                	bnez	a0,1664 <.Lpcrel_hi47>
    1646:	0310000f          	fence	rw,w
    164a:	00048023          	sb	zero,0(s1)
    164e:	10002573          	csrr	a0,sstatus
    1652:	8809                	and	s0,s0,2
    1654:	8d41                	or	a0,a0,s0
    1656:	10051073          	csrw	sstatus,a0
    165a:	60a6                	ld	ra,72(sp)
    165c:	6406                	ld	s0,64(sp)
    165e:	74e2                	ld	s1,56(sp)
    1660:	6161                	add	sp,sp,80
    1662:	8082                	ret

0000000000001664 <.Lpcrel_hi47>:
    1664:	00003517          	auipc	a0,0x3
    1668:	afc50513          	add	a0,a0,-1284 # 4160 <anon.a10dc4acf2bdc285224ee929493701d2.14.llvm.18187908855622888574>

000000000000166c <.Lpcrel_hi48>:
    166c:	00003597          	auipc	a1,0x3
    1670:	ad458693          	add	a3,a1,-1324 # 4140 <anon.a10dc4acf2bdc285224ee929493701d2.13.llvm.18187908855622888574>

0000000000001674 <.Lpcrel_hi49>:
    1674:	00003597          	auipc	a1,0x3
    1678:	b2458713          	add	a4,a1,-1244 # 4198 <anon.a10dc4acf2bdc285224ee929493701d2.16.llvm.18187908855622888574>
    167c:	45e5                	li	a1,25
    167e:	0030                	add	a2,sp,8
    1680:	00000097          	auipc	ra,0x0
    1684:	4ec080e7          	jalr	1260(ra) # 1b6c <_ZN4core6result13unwrap_failed17h37f8e32fa29f8eecE>

0000000000001688 <_ZN4core3fmt5Write10write_char17hbfbf9629fdd9651dE>:
    1688:	1141                	add	sp,sp,-16
    168a:	e406                	sd	ra,8(sp)
    168c:	0005861b          	sext.w	a2,a1
    1690:	08000693          	li	a3,128
    1694:	c202                	sw	zero,4(sp)
    1696:	00d67663          	bgeu	a2,a3,16a2 <_ZN4core3fmt5Write10write_char17hbfbf9629fdd9651dE+0x1a>
    169a:	00b10223          	sb	a1,4(sp)
    169e:	4605                	li	a2,1
    16a0:	a071                	j	172c <_ZN4core3fmt5Write10write_char17hbfbf9629fdd9651dE+0xa4>
    16a2:	00b5d61b          	srlw	a2,a1,0xb
    16a6:	ee19                	bnez	a2,16c4 <_ZN4core3fmt5Write10write_char17hbfbf9629fdd9651dE+0x3c>
    16a8:	0065d613          	srl	a2,a1,0x6
    16ac:	0c066613          	or	a2,a2,192
    16b0:	00c10223          	sb	a2,4(sp)
    16b4:	03f5f593          	and	a1,a1,63
    16b8:	08058593          	add	a1,a1,128
    16bc:	00b102a3          	sb	a1,5(sp)
    16c0:	4609                	li	a2,2
    16c2:	a0ad                	j	172c <_ZN4core3fmt5Write10write_char17hbfbf9629fdd9651dE+0xa4>
    16c4:	0105d61b          	srlw	a2,a1,0x10
    16c8:	e615                	bnez	a2,16f4 <_ZN4core3fmt5Write10write_char17hbfbf9629fdd9651dE+0x6c>
    16ca:	00c5d613          	srl	a2,a1,0xc
    16ce:	0e066613          	or	a2,a2,224
    16d2:	00c10223          	sb	a2,4(sp)
    16d6:	03459613          	sll	a2,a1,0x34
    16da:	9269                	srl	a2,a2,0x3a
    16dc:	08060613          	add	a2,a2,128
    16e0:	00c102a3          	sb	a2,5(sp)
    16e4:	03f5f593          	and	a1,a1,63
    16e8:	08058593          	add	a1,a1,128
    16ec:	00b10323          	sb	a1,6(sp)
    16f0:	460d                	li	a2,3
    16f2:	a82d                	j	172c <_ZN4core3fmt5Write10write_char17hbfbf9629fdd9651dE+0xa4>
    16f4:	02b59613          	sll	a2,a1,0x2b
    16f8:	9275                	srl	a2,a2,0x3d
    16fa:	0f060613          	add	a2,a2,240
    16fe:	00c10223          	sb	a2,4(sp)
    1702:	02e59613          	sll	a2,a1,0x2e
    1706:	9269                	srl	a2,a2,0x3a
    1708:	08060613          	add	a2,a2,128
    170c:	00c102a3          	sb	a2,5(sp)
    1710:	03459613          	sll	a2,a1,0x34
    1714:	9269                	srl	a2,a2,0x3a
    1716:	08060613          	add	a2,a2,128
    171a:	00c10323          	sb	a2,6(sp)
    171e:	03f5f593          	and	a1,a1,63
    1722:	08058593          	add	a1,a1,128
    1726:	00b103a3          	sb	a1,7(sp)
    172a:	4611                	li	a2,4
    172c:	004c                	add	a1,sp,4
    172e:	00000097          	auipc	ra,0x0
    1732:	026080e7          	jalr	38(ra) # 1754 <_ZN61_$LT$kernel..console..Console$u20$as$u20$core..fmt..Write$GT$9write_str17h12f2cae69def5cf0E>
    1736:	4501                	li	a0,0
    1738:	60a2                	ld	ra,8(sp)
    173a:	0141                	add	sp,sp,16
    173c:	8082                	ret

000000000000173e <_ZN4core3fmt5Write9write_fmt17h2e50ef89eb6187e6E>:
    173e:	00003617          	auipc	a2,0x3
    1742:	a7260613          	add	a2,a2,-1422 # 41b0 <.Lanon.5b35e17ee5893043f58f8d4a57874d7c.10>
    1746:	86ae                	mv	a3,a1
    1748:	85b2                	mv	a1,a2
    174a:	8636                	mv	a2,a3
    174c:	00000317          	auipc	t1,0x0
    1750:	49030067          	jr	1168(t1) # 1bdc <_ZN4core3fmt5write17hffc3b19826d8e13cE>

0000000000001754 <_ZN61_$LT$kernel..console..Console$u20$as$u20$core..fmt..Write$GT$9write_str17h12f2cae69def5cf0E>:
    1754:	7139                	add	sp,sp,-64
    1756:	fc22                	sd	s0,56(sp)
    1758:	f826                	sd	s1,48(sp)
    175a:	f44a                	sd	s2,40(sp)
    175c:	f04e                	sd	s3,32(sp)
    175e:	ec52                	sd	s4,24(sp)
    1760:	e856                	sd	s5,16(sp)
    1762:	e45a                	sd	s6,8(sp)
    1764:	e05e                	sd	s7,0(sp)
    1766:	16060763          	beqz	a2,18d4 <.Lpcrel_hi5+0x162>
    176a:	8832                	mv	a6,a2
    176c:	4601                	li	a2,0
    176e:	6fc1                	lui	t6,0x10
    1770:	9faa                	add	t6,t6,a0

0000000000001772 <.Lpcrel_hi5>:
    1772:	00004697          	auipc	a3,0x4
    1776:	e5e68793          	add	a5,a3,-418 # 55d0 <_ZN6kernel4uart4UART17h64e456053680aa82E>
    177a:	ffc7ff13          	and	t5,a5,-4
    177e:	4885                	li	a7,1
    1780:	08000293          	li	t0,128
    1784:	0df00313          	li	t1,223
    1788:	0f000393          	li	t2,240
    178c:	fc000e13          	li	t3,-64
    1790:	a819                	j	17a6 <.Lpcrel_hi5+0x34>
    1792:	40c80833          	sub	a6,a6,a2
    1796:	0310000f          	fence	rw,w
    179a:	00078023          	sb	zero,0(a5)
    179e:	85f6                	mv	a1,t4
    17a0:	8636                	mv	a2,a3
    17a2:	1306f963          	bgeu	a3,a6,18d4 <.Lpcrel_hi5+0x162>
    17a6:	00c58eb3          	add	t4,a1,a2
    17aa:	c609                	beqz	a2,17b4 <.Lpcrel_hi5+0x42>
    17ac:	000e8683          	lb	a3,0(t4)
    17b0:	13c6cd63          	blt	a3,t3,18ea <.Lpcrel_hi6>
    17b4:	000fd903          	lhu	s2,0(t6) # 10000 <_ZN6kernel7console7CONSOLE17hf1f49ad43aab6abcE+0xaa20>
    17b8:	002fdb83          	lhu	s7,2(t6)
    17bc:	010589b3          	add	s3,a1,a6
    17c0:	86b2                	mv	a3,a2
    17c2:	84f6                	mv	s1,t4
    17c4:	a829                	j	17de <.Lpcrel_hi5+0x6c>
    17c6:	1bc2                	sll	s7,s7,0x30
    17c8:	030bd593          	srl	a1,s7,0x30
    17cc:	95aa                	add	a1,a1,a0
    17ce:	00e58023          	sb	a4,0(a1)
    17d2:	008f9123          	sh	s0,2(t6)
    17d6:	8ba2                	mv	s7,s0
    17d8:	0685                	add	a3,a3,1
    17da:	0b348b63          	beq	s1,s3,1890 <.Lpcrel_hi5+0x11e>
    17de:	00048583          	lb	a1,0(s1)
    17e2:	0ff5f713          	zext.b	a4,a1
    17e6:	0005cb63          	bltz	a1,17fc <.Lpcrel_hi5+0x8a>
    17ea:	0485                	add	s1,s1,1
    17ec:	001b8413          	add	s0,s7,1
    17f0:	03041593          	sll	a1,s0,0x30
    17f4:	91c1                	srl	a1,a1,0x30
    17f6:	ff2581e3          	beq	a1,s2,17d8 <.Lpcrel_hi5+0x66>
    17fa:	a8b5                	j	1876 <.Lpcrel_hi5+0x104>
    17fc:	0014c583          	lbu	a1,1(s1)
    1800:	01f77a93          	and	s5,a4,31
    1804:	03f5f593          	and	a1,a1,63
    1808:	04e37063          	bgeu	t1,a4,1848 <.Lpcrel_hi5+0xd6>
    180c:	0024ca03          	lbu	s4,2(s1)
    1810:	00659b13          	sll	s6,a1,0x6
    1814:	03fa7593          	and	a1,s4,63
    1818:	00bb6a33          	or	s4,s6,a1
    181c:	04776263          	bltu	a4,t2,1860 <.Lpcrel_hi5+0xee>
    1820:	0034c583          	lbu	a1,3(s1)
    1824:	0491                	add	s1,s1,4
    1826:	1af6                	sll	s5,s5,0x3d
    1828:	02bad713          	srl	a4,s5,0x2b
    182c:	0a1a                	sll	s4,s4,0x6
    182e:	03f5f593          	and	a1,a1,63
    1832:	00ba65b3          	or	a1,s4,a1
    1836:	8f4d                	or	a4,a4,a1
    1838:	001b8413          	add	s0,s7,1
    183c:	03041593          	sll	a1,s0,0x30
    1840:	91c1                	srl	a1,a1,0x30
    1842:	f9258be3          	beq	a1,s2,17d8 <.Lpcrel_hi5+0x66>
    1846:	a805                	j	1876 <.Lpcrel_hi5+0x104>
    1848:	0489                	add	s1,s1,2
    184a:	006a9713          	sll	a4,s5,0x6
    184e:	8f4d                	or	a4,a4,a1
    1850:	001b8413          	add	s0,s7,1
    1854:	03041593          	sll	a1,s0,0x30
    1858:	91c1                	srl	a1,a1,0x30
    185a:	f7258fe3          	beq	a1,s2,17d8 <.Lpcrel_hi5+0x66>
    185e:	a821                	j	1876 <.Lpcrel_hi5+0x104>
    1860:	048d                	add	s1,s1,3
    1862:	0ab2                	sll	s5,s5,0xc
    1864:	015a6733          	or	a4,s4,s5
    1868:	001b8413          	add	s0,s7,1
    186c:	03041593          	sll	a1,s0,0x30
    1870:	91c1                	srl	a1,a1,0x30
    1872:	f72583e3          	beq	a1,s2,17d8 <.Lpcrel_hi5+0x66>
    1876:	f45768e3          	bltu	a4,t0,17c6 <.Lpcrel_hi5+0x54>
    187a:	03f00713          	li	a4,63
    187e:	b7a1                	j	17c6 <.Lpcrel_hi5+0x54>
    1880:	00078583          	lb	a1,0(a5)
    1884:	c591                	beqz	a1,1890 <.Lpcrel_hi5+0x11e>
    1886:	0100000f          	fence	w,unknown
    188a:	00078583          	lb	a1,0(a5)
    188e:	fde5                	bnez	a1,1886 <.Lpcrel_hi5+0x114>
    1890:	451f25af          	amoor.w.aq	a1,a7,(t5)
    1894:	0ff5f593          	zext.b	a1,a1
    1898:	f5e5                	bnez	a1,1880 <.Lpcrel_hi5+0x10e>
    189a:	002fd903          	lhu	s2,2(t6)
    189e:	000fd703          	lhu	a4,0(t6)
    18a2:	ef2708e3          	beq	a4,s2,1792 <.Lpcrel_hi5+0x20>
    18a6:	6780                	ld	s0,8(a5)
    18a8:	03071493          	sll	s1,a4,0x30
    18ac:	90c1                	srl	s1,s1,0x30
    18ae:	94aa                	add	s1,s1,a0
    18b0:	0004c483          	lbu	s1,0(s1)
    18b4:	0705                	add	a4,a4,1
    18b6:	00ef9023          	sh	a4,0(t6)
    18ba:	00544583          	lbu	a1,5(s0)
    18be:	0205f593          	and	a1,a1,32
    18c2:	dde5                	beqz	a1,18ba <.Lpcrel_hi5+0x148>
    18c4:	03071593          	sll	a1,a4,0x30
    18c8:	91c1                	srl	a1,a1,0x30
    18ca:	00940023          	sb	s1,0(s0)
    18ce:	fd259de3          	bne	a1,s2,18a8 <.Lpcrel_hi5+0x136>
    18d2:	b5c1                	j	1792 <.Lpcrel_hi5+0x20>
    18d4:	4501                	li	a0,0
    18d6:	7462                	ld	s0,56(sp)
    18d8:	74c2                	ld	s1,48(sp)
    18da:	7922                	ld	s2,40(sp)
    18dc:	7982                	ld	s3,32(sp)
    18de:	6a62                	ld	s4,24(sp)
    18e0:	6ac2                	ld	s5,16(sp)
    18e2:	6b22                	ld	s6,8(sp)
    18e4:	6b82                	ld	s7,0(sp)
    18e6:	6121                	add	sp,sp,64
    18e8:	8082                	ret

00000000000018ea <.Lpcrel_hi6>:
    18ea:	00003517          	auipc	a0,0x3
    18ee:	91650713          	add	a4,a0,-1770 # 4200 <.Lanon.5b35e17ee5893043f58f8d4a57874d7c.12>
    18f2:	852e                	mv	a0,a1
    18f4:	85c2                	mv	a1,a6
    18f6:	86c2                	mv	a3,a6
    18f8:	00001097          	auipc	ra,0x1
    18fc:	d46080e7          	jalr	-698(ra) # 263e <_ZN4core3str16slice_error_fail17hd4ffbf48a66c80baE>

0000000000001900 <_ZN71_$LT$core..ops..range..Range$LT$Idx$GT$$u20$as$u20$core..fmt..Debug$GT$3fmt17hbbfaa22d4d4d486cE>:
    1900:	1101                	add	sp,sp,-32
    1902:	ec06                	sd	ra,24(sp)
    1904:	e822                	sd	s0,16(sp)
    1906:	e426                	sd	s1,8(sp)
    1908:	e04a                	sd	s2,0(sp)
    190a:	1000                	add	s0,sp,32
    190c:	84ae                	mv	s1,a1
    190e:	892a                	mv	s2,a0
    1910:	00001097          	auipc	ra,0x1
    1914:	3c0080e7          	jalr	960(ra) # 2cd0 <_ZN4core3fmt3num52_$LT$impl$u20$core..fmt..Debug$u20$for$u20$usize$GT$3fmt17h44f77695f2ed6fa5E>
    1918:	e919                	bnez	a0,192e <.Lpcrel_hi220+0xe>
    191a:	748c                	ld	a1,40(s1)
    191c:	7088                	ld	a0,32(s1)
    191e:	6d94                	ld	a3,24(a1)

0000000000001920 <.Lpcrel_hi220>:
    1920:	00003597          	auipc	a1,0x3
    1924:	a3858593          	add	a1,a1,-1480 # 4358 <.Lanon.4be6c8c866b325639ca5cea174a3452e.170>
    1928:	4609                	li	a2,2
    192a:	9682                	jalr	a3
    192c:	c901                	beqz	a0,193c <.Lpcrel_hi220+0x1c>
    192e:	4505                	li	a0,1
    1930:	60e2                	ld	ra,24(sp)
    1932:	6442                	ld	s0,16(sp)
    1934:	64a2                	ld	s1,8(sp)
    1936:	6902                	ld	s2,0(sp)
    1938:	6105                	add	sp,sp,32
    193a:	8082                	ret
    193c:	00890513          	add	a0,s2,8
    1940:	85a6                	mv	a1,s1
    1942:	60e2                	ld	ra,24(sp)
    1944:	6442                	ld	s0,16(sp)
    1946:	64a2                	ld	s1,8(sp)
    1948:	6902                	ld	s2,0(sp)
    194a:	6105                	add	sp,sp,32
    194c:	00001317          	auipc	t1,0x1
    1950:	38430067          	jr	900(t1) # 2cd0 <_ZN4core3fmt3num52_$LT$impl$u20$core..fmt..Debug$u20$for$u20$usize$GT$3fmt17h44f77695f2ed6fa5E>

0000000000001954 <_ZN73_$LT$core..ascii..ascii_char..AsciiChar$u20$as$u20$core..fmt..Display$GT$3fmt17hdc88fb4bba510d09E>:
    1954:	1141                	add	sp,sp,-16
    1956:	e406                	sd	ra,8(sp)
    1958:	e022                	sd	s0,0(sp)
    195a:	0800                	add	s0,sp,16
    195c:	4605                	li	a2,1
    195e:	86aa                	mv	a3,a0
    1960:	852e                	mv	a0,a1
    1962:	85b6                	mv	a1,a3
    1964:	60a2                	ld	ra,8(sp)
    1966:	6402                	ld	s0,0(sp)
    1968:	0141                	add	sp,sp,16
    196a:	00000317          	auipc	t1,0x0
    196e:	6b030067          	jr	1712(t1) # 201a <_ZN4core3fmt9Formatter3pad17h7d67947b6a7c39b2E>

0000000000001972 <_ZN4core6option13unwrap_failed17h6835b83430de06b2E>:
    1972:	1141                	add	sp,sp,-16
    1974:	e406                	sd	ra,8(sp)
    1976:	e022                	sd	s0,0(sp)
    1978:	0800                	add	s0,sp,16
    197a:	862a                	mv	a2,a0

000000000000197c <.Lpcrel_hi337>:
    197c:	00003517          	auipc	a0,0x3
    1980:	a1150513          	add	a0,a0,-1519 # 438d <.Lanon.4be6c8c866b325639ca5cea174a3452e.254>
    1984:	02b00593          	li	a1,43
    1988:	00000097          	auipc	ra,0x0
    198c:	14a080e7          	jalr	330(ra) # 1ad2 <_ZN4core9panicking5panic17h8454dcfe901e1ed9E>

0000000000001990 <_ZN73_$LT$core..panic..panic_info..PanicInfo$u20$as$u20$core..fmt..Display$GT$3fmt17ha411d417b0cb6862E>:
    1990:	7135                	add	sp,sp,-160
    1992:	ed06                	sd	ra,152(sp)
    1994:	e922                	sd	s0,144(sp)
    1996:	e526                	sd	s1,136(sp)
    1998:	e14a                	sd	s2,128(sp)
    199a:	fcce                	sd	s3,120(sp)
    199c:	f8d2                	sd	s4,112(sp)
    199e:	f4d6                	sd	s5,104(sp)
    19a0:	1100                	add	s0,sp,160
    19a2:	0285b903          	ld	s2,40(a1)
    19a6:	0205ba83          	ld	s5,32(a1)
    19aa:	01893483          	ld	s1,24(s2)
    19ae:	89aa                	mv	s3,a0

00000000000019b0 <.Lpcrel_hi343>:
    19b0:	00003517          	auipc	a0,0x3
    19b4:	a3850593          	add	a1,a0,-1480 # 43e8 <.Lanon.4be6c8c866b325639ca5cea174a3452e.256>
    19b8:	4631                	li	a2,12
    19ba:	8556                	mv	a0,s5
    19bc:	9482                	jalr	s1
    19be:	4a05                	li	s4,1
    19c0:	ed55                	bnez	a0,1a7c <.Lpcrel_hi347+0x52>
    19c2:	0309b503          	ld	a0,48(s3)
    19c6:	01050593          	add	a1,a0,16
    19ca:	01450613          	add	a2,a0,20
    19ce:	f6a43423          	sd	a0,-152(s0)

00000000000019d2 <.Lpcrel_hi344>:
    19d2:	00001517          	auipc	a0,0x1
    19d6:	5c250513          	add	a0,a0,1474 # 2f94 <_ZN44_$LT$$RF$T$u20$as$u20$core..fmt..Display$GT$3fmt17h0e07db1b220f6d18E>
    19da:	f6a43823          	sd	a0,-144(s0)
    19de:	f6b43c23          	sd	a1,-136(s0)

00000000000019e2 <.Lpcrel_hi345>:
    19e2:	00001517          	auipc	a0,0x1
    19e6:	56250513          	add	a0,a0,1378 # 2f44 <_ZN4core3fmt3num3imp52_$LT$impl$u20$core..fmt..Display$u20$for$u20$u32$GT$3fmt17heeec3f2fdb7fbbceE>
    19ea:	f8a43023          	sd	a0,-128(s0)
    19ee:	f8c43423          	sd	a2,-120(s0)
    19f2:	f8a43823          	sd	a0,-112(s0)

00000000000019f6 <.Lpcrel_hi346>:
    19f6:	00003517          	auipc	a0,0x3
    19fa:	9c250513          	add	a0,a0,-1598 # 43b8 <.Lanon.4be6c8c866b325639ca5cea174a3452e.255>
    19fe:	f8a43c23          	sd	a0,-104(s0)
    1a02:	450d                	li	a0,3
    1a04:	faa43023          	sd	a0,-96(s0)
    1a08:	f6840593          	add	a1,s0,-152
    1a0c:	fab43423          	sd	a1,-88(s0)
    1a10:	faa43823          	sd	a0,-80(s0)
    1a14:	fa043c23          	sd	zero,-72(s0)
    1a18:	f9840613          	add	a2,s0,-104
    1a1c:	8556                	mv	a0,s5
    1a1e:	85ca                	mv	a1,s2
    1a20:	00000097          	auipc	ra,0x0
    1a24:	1bc080e7          	jalr	444(ra) # 1bdc <_ZN4core3fmt5write17hffc3b19826d8e13cE>
    1a28:	e931                	bnez	a0,1a7c <.Lpcrel_hi347+0x52>

0000000000001a2a <.Lpcrel_hi347>:
    1a2a:	00003517          	auipc	a0,0x3
    1a2e:	9ca50593          	add	a1,a0,-1590 # 43f4 <.Lanon.4be6c8c866b325639ca5cea174a3452e.257>
    1a32:	4609                	li	a2,2
    1a34:	8556                	mv	a0,s5
    1a36:	9482                	jalr	s1
    1a38:	e131                	bnez	a0,1a7c <.Lpcrel_hi347+0x52>
    1a3a:	0009b503          	ld	a0,0(s3)
    1a3e:	0089b583          	ld	a1,8(s3)
    1a42:	0109b603          	ld	a2,16(s3)
    1a46:	0189b683          	ld	a3,24(s3)
    1a4a:	f8a43c23          	sd	a0,-104(s0)
    1a4e:	fab43023          	sd	a1,-96(s0)
    1a52:	0209b503          	ld	a0,32(s3)
    1a56:	0289b583          	ld	a1,40(s3)
    1a5a:	fac43423          	sd	a2,-88(s0)
    1a5e:	fad43823          	sd	a3,-80(s0)
    1a62:	faa43c23          	sd	a0,-72(s0)
    1a66:	fcb43023          	sd	a1,-64(s0)
    1a6a:	f9840613          	add	a2,s0,-104
    1a6e:	8556                	mv	a0,s5
    1a70:	85ca                	mv	a1,s2
    1a72:	00000097          	auipc	ra,0x0
    1a76:	16a080e7          	jalr	362(ra) # 1bdc <_ZN4core3fmt5write17hffc3b19826d8e13cE>
    1a7a:	8a2a                	mv	s4,a0
    1a7c:	8552                	mv	a0,s4
    1a7e:	60ea                	ld	ra,152(sp)
    1a80:	644a                	ld	s0,144(sp)
    1a82:	64aa                	ld	s1,136(sp)
    1a84:	690a                	ld	s2,128(sp)
    1a86:	79e6                	ld	s3,120(sp)
    1a88:	7a46                	ld	s4,112(sp)
    1a8a:	7aa6                	ld	s5,104(sp)
    1a8c:	610d                	add	sp,sp,160
    1a8e:	8082                	ret

0000000000001a90 <_ZN4core9panicking9panic_fmt17ha2f0b11bdd777378E>:
    1a90:	715d                	add	sp,sp,-80
    1a92:	e486                	sd	ra,72(sp)
    1a94:	e0a2                	sd	s0,64(sp)
    1a96:	0880                	add	s0,sp,80
    1a98:	7510                	ld	a2,40(a0)
    1a9a:	7114                	ld	a3,32(a0)
    1a9c:	fcc43c23          	sd	a2,-40(s0)
    1aa0:	fcd43823          	sd	a3,-48(s0)
    1aa4:	6d10                	ld	a2,24(a0)
    1aa6:	6914                	ld	a3,16(a0)
    1aa8:	6518                	ld	a4,8(a0)
    1aaa:	6108                	ld	a0,0(a0)
    1aac:	fcc43423          	sd	a2,-56(s0)
    1ab0:	fcd43023          	sd	a3,-64(s0)
    1ab4:	fae43c23          	sd	a4,-72(s0)
    1ab8:	faa43823          	sd	a0,-80(s0)
    1abc:	feb43023          	sd	a1,-32(s0)
    1ac0:	4505                	li	a0,1
    1ac2:	fea41423          	sh	a0,-24(s0)
    1ac6:	fb040513          	add	a0,s0,-80
    1aca:	fffff097          	auipc	ra,0xfffff
    1ace:	57e080e7          	jalr	1406(ra) # 1048 <rust_begin_unwind>

0000000000001ad2 <_ZN4core9panicking5panic17h8454dcfe901e1ed9E>:
    1ad2:	715d                	add	sp,sp,-80
    1ad4:	e486                	sd	ra,72(sp)
    1ad6:	e0a2                	sd	s0,64(sp)
    1ad8:	0880                	add	s0,sp,80
    1ada:	fea43023          	sd	a0,-32(s0)
    1ade:	feb43423          	sd	a1,-24(s0)
    1ae2:	fe040513          	add	a0,s0,-32
    1ae6:	faa43823          	sd	a0,-80(s0)
    1aea:	4505                	li	a0,1
    1aec:	faa43c23          	sd	a0,-72(s0)
    1af0:	fc043823          	sd	zero,-48(s0)
    1af4:	4521                	li	a0,8
    1af6:	fca43023          	sd	a0,-64(s0)
    1afa:	fc043423          	sd	zero,-56(s0)
    1afe:	fb040513          	add	a0,s0,-80
    1b02:	85b2                	mv	a1,a2
    1b04:	00000097          	auipc	ra,0x0
    1b08:	f8c080e7          	jalr	-116(ra) # 1a90 <_ZN4core9panicking9panic_fmt17ha2f0b11bdd777378E>

0000000000001b0c <_ZN4core9panicking18panic_bounds_check17h3cd3879189909ef2E>:
    1b0c:	7159                	add	sp,sp,-112
    1b0e:	f486                	sd	ra,104(sp)
    1b10:	f0a2                	sd	s0,96(sp)
    1b12:	1880                	add	s0,sp,112
    1b14:	f8a43823          	sd	a0,-112(s0)
    1b18:	f8b43c23          	sd	a1,-104(s0)
    1b1c:	f9840513          	add	a0,s0,-104
    1b20:	fca43823          	sd	a0,-48(s0)

0000000000001b24 <.Lpcrel_hi353>:
    1b24:	00001517          	auipc	a0,0x1
    1b28:	43e50513          	add	a0,a0,1086 # 2f62 <_ZN4core3fmt3num3imp52_$LT$impl$u20$core..fmt..Display$u20$for$u20$u64$GT$3fmt17hd54b8357f338ce60E>
    1b2c:	fca43c23          	sd	a0,-40(s0)
    1b30:	f9040593          	add	a1,s0,-112
    1b34:	feb43023          	sd	a1,-32(s0)
    1b38:	fea43423          	sd	a0,-24(s0)

0000000000001b3c <.Lpcrel_hi354>:
    1b3c:	00003517          	auipc	a0,0x3
    1b40:	8cc50513          	add	a0,a0,-1844 # 4408 <.Lanon.4be6c8c866b325639ca5cea174a3452e.265>
    1b44:	faa43023          	sd	a0,-96(s0)
    1b48:	4509                	li	a0,2
    1b4a:	faa43423          	sd	a0,-88(s0)
    1b4e:	fc043023          	sd	zero,-64(s0)
    1b52:	fd040593          	add	a1,s0,-48
    1b56:	fab43823          	sd	a1,-80(s0)
    1b5a:	faa43c23          	sd	a0,-72(s0)
    1b5e:	fa040513          	add	a0,s0,-96
    1b62:	85b2                	mv	a1,a2
    1b64:	00000097          	auipc	ra,0x0
    1b68:	f2c080e7          	jalr	-212(ra) # 1a90 <_ZN4core9panicking9panic_fmt17ha2f0b11bdd777378E>

0000000000001b6c <_ZN4core6result13unwrap_failed17h37f8e32fa29f8eecE>:
    1b6c:	7119                	add	sp,sp,-128
    1b6e:	fc86                	sd	ra,120(sp)
    1b70:	f8a2                	sd	s0,112(sp)
    1b72:	0100                	add	s0,sp,128
    1b74:	f8a43023          	sd	a0,-128(s0)
    1b78:	f8b43423          	sd	a1,-120(s0)
    1b7c:	f8c43823          	sd	a2,-112(s0)
    1b80:	f8d43c23          	sd	a3,-104(s0)
    1b84:	f8040513          	add	a0,s0,-128
    1b88:	fca43823          	sd	a0,-48(s0)

0000000000001b8c <.Lpcrel_hi376>:
    1b8c:	00001517          	auipc	a0,0x1
    1b90:	40850513          	add	a0,a0,1032 # 2f94 <_ZN44_$LT$$RF$T$u20$as$u20$core..fmt..Display$GT$3fmt17h0e07db1b220f6d18E>
    1b94:	fca43c23          	sd	a0,-40(s0)
    1b98:	f9040513          	add	a0,s0,-112
    1b9c:	fea43023          	sd	a0,-32(s0)

0000000000001ba0 <.Lpcrel_hi377>:
    1ba0:	00001517          	auipc	a0,0x1
    1ba4:	3de50513          	add	a0,a0,990 # 2f7e <_ZN42_$LT$$RF$T$u20$as$u20$core..fmt..Debug$GT$3fmt17h5674c85afe4c8ee5E>
    1ba8:	fea43423          	sd	a0,-24(s0)

0000000000001bac <.Lpcrel_hi378>:
    1bac:	00003517          	auipc	a0,0x3
    1bb0:	88450513          	add	a0,a0,-1916 # 4430 <.Lanon.4be6c8c866b325639ca5cea174a3452e.285>
    1bb4:	faa43023          	sd	a0,-96(s0)
    1bb8:	4509                	li	a0,2
    1bba:	faa43423          	sd	a0,-88(s0)
    1bbe:	fc043023          	sd	zero,-64(s0)
    1bc2:	fd040593          	add	a1,s0,-48
    1bc6:	fab43823          	sd	a1,-80(s0)
    1bca:	faa43c23          	sd	a0,-72(s0)
    1bce:	fa040513          	add	a0,s0,-96
    1bd2:	85ba                	mv	a1,a4
    1bd4:	00000097          	auipc	ra,0x0
    1bd8:	ebc080e7          	jalr	-324(ra) # 1a90 <_ZN4core9panicking9panic_fmt17ha2f0b11bdd777378E>

0000000000001bdc <_ZN4core3fmt5write17hffc3b19826d8e13cE>:
    1bdc:	7175                	add	sp,sp,-144
    1bde:	e506                	sd	ra,136(sp)
    1be0:	e122                	sd	s0,128(sp)
    1be2:	fca6                	sd	s1,120(sp)
    1be4:	f8ca                	sd	s2,112(sp)
    1be6:	f4ce                	sd	s3,104(sp)
    1be8:	f0d2                	sd	s4,96(sp)
    1bea:	ecd6                	sd	s5,88(sp)
    1bec:	e8da                	sd	s6,80(sp)
    1bee:	e4de                	sd	s7,72(sp)
    1bf0:	e0e2                	sd	s8,64(sp)
    1bf2:	0900                	add	s0,sp,144
    1bf4:	89b2                	mv	s3,a2
    1bf6:	02000613          	li	a2,32
    1bfa:	fac43023          	sd	a2,-96(s0)
    1bfe:	460d                	li	a2,3
    1c00:	fac40423          	sb	a2,-88(s0)
    1c04:	0209b483          	ld	s1,32(s3)
    1c08:	f6043823          	sd	zero,-144(s0)
    1c0c:	f8043023          	sd	zero,-128(s0)
    1c10:	f8a43823          	sd	a0,-112(s0)
    1c14:	f8b43c23          	sd	a1,-104(s0)
    1c18:	c8f9                	beqz	s1,1cee <_ZN4core3fmt5write17hffc3b19826d8e13cE+0x112>
    1c1a:	0289b503          	ld	a0,40(s3)
    1c1e:	12050663          	beqz	a0,1d4a <_ZN4core3fmt5write17hffc3b19826d8e13cE+0x16e>
    1c22:	0009bb03          	ld	s6,0(s3)
    1c26:	0109ba03          	ld	s4,16(s3)
    1c2a:	fff50593          	add	a1,a0,-1
    1c2e:	058e                	sll	a1,a1,0x3
    1c30:	818d                	srl	a1,a1,0x3
    1c32:	00158913          	add	s2,a1,1
    1c36:	0b21                	add	s6,s6,8
    1c38:	03800593          	li	a1,56
    1c3c:	02b50ab3          	mul	s5,a0,a1
    1c40:	04e1                	add	s1,s1,24
    1c42:	4b89                	li	s7,2
    1c44:	4c05                	li	s8,1
    1c46:	000b3603          	ld	a2,0(s6)
    1c4a:	ca19                	beqz	a2,1c60 <_ZN4core3fmt5write17hffc3b19826d8e13cE+0x84>
    1c4c:	f9843683          	ld	a3,-104(s0)
    1c50:	f9043503          	ld	a0,-112(s0)
    1c54:	ff8b3583          	ld	a1,-8(s6)
    1c58:	6e94                	ld	a3,24(a3)
    1c5a:	9682                	jalr	a3
    1c5c:	10051b63          	bnez	a0,1d72 <_ZN4core3fmt5write17hffc3b19826d8e13cE+0x196>
    1c60:	6888                	ld	a0,16(s1)
    1c62:	faa43023          	sd	a0,-96(s0)
    1c66:	0184c603          	lbu	a2,24(s1)
    1c6a:	ff84b583          	ld	a1,-8(s1)
    1c6e:	6088                	ld	a0,0(s1)
    1c70:	fac40423          	sb	a2,-88(s0)
    1c74:	c195                	beqz	a1,1c98 <_ZN4core3fmt5write17hffc3b19826d8e13cE+0xbc>
    1c76:	01859663          	bne	a1,s8,1c82 <_ZN4core3fmt5write17hffc3b19826d8e13cE+0xa6>
    1c7a:	0512                	sll	a0,a0,0x4
    1c7c:	9552                	add	a0,a0,s4
    1c7e:	650c                	ld	a1,8(a0)
    1c80:	c999                	beqz	a1,1c96 <_ZN4core3fmt5write17hffc3b19826d8e13cE+0xba>
    1c82:	4581                	li	a1,0
    1c84:	fe84b603          	ld	a2,-24(s1)
    1c88:	f6043823          	sd	zero,-144(s0)
    1c8c:	f6a43c23          	sd	a0,-136(s0)
    1c90:	01761d63          	bne	a2,s7,1caa <_ZN4core3fmt5write17hffc3b19826d8e13cE+0xce>
    1c94:	a025                	j	1cbc <_ZN4core3fmt5write17hffc3b19826d8e13cE+0xe0>
    1c96:	6108                	ld	a0,0(a0)
    1c98:	4585                	li	a1,1
    1c9a:	fe84b603          	ld	a2,-24(s1)
    1c9e:	f6b43823          	sd	a1,-144(s0)
    1ca2:	f6a43c23          	sd	a0,-136(s0)
    1ca6:	01760b63          	beq	a2,s7,1cbc <_ZN4core3fmt5write17hffc3b19826d8e13cE+0xe0>
    1caa:	ff04b583          	ld	a1,-16(s1)
    1cae:	01861a63          	bne	a2,s8,1cc2 <_ZN4core3fmt5write17hffc3b19826d8e13cE+0xe6>
    1cb2:	00459513          	sll	a0,a1,0x4
    1cb6:	9552                	add	a0,a0,s4
    1cb8:	650c                	ld	a1,8(a0)
    1cba:	c199                	beqz	a1,1cc0 <_ZN4core3fmt5write17hffc3b19826d8e13cE+0xe4>
    1cbc:	4601                	li	a2,0
    1cbe:	a019                	j	1cc4 <_ZN4core3fmt5write17hffc3b19826d8e13cE+0xe8>
    1cc0:	610c                	ld	a1,0(a0)
    1cc2:	4605                	li	a2,1
    1cc4:	6488                	ld	a0,8(s1)
    1cc6:	0512                	sll	a0,a0,0x4
    1cc8:	9552                	add	a0,a0,s4
    1cca:	6514                	ld	a3,8(a0)
    1ccc:	6108                	ld	a0,0(a0)
    1cce:	f8c43023          	sd	a2,-128(s0)
    1cd2:	f8b43423          	sd	a1,-120(s0)
    1cd6:	f7040593          	add	a1,s0,-144
    1cda:	9682                	jalr	a3
    1cdc:	e959                	bnez	a0,1d72 <_ZN4core3fmt5write17hffc3b19826d8e13cE+0x196>
    1cde:	0b41                	add	s6,s6,16
    1ce0:	fc8a8a93          	add	s5,s5,-56
    1ce4:	03848493          	add	s1,s1,56
    1ce8:	f40a9fe3          	bnez	s5,1c46 <_ZN4core3fmt5write17hffc3b19826d8e13cE+0x6a>
    1cec:	a891                	j	1d40 <_ZN4core3fmt5write17hffc3b19826d8e13cE+0x164>
    1cee:	0189ba03          	ld	s4,24(s3)
    1cf2:	040a0c63          	beqz	s4,1d4a <_ZN4core3fmt5write17hffc3b19826d8e13cE+0x16e>
    1cf6:	0109b483          	ld	s1,16(s3)
    1cfa:	0009ba83          	ld	s5,0(s3)
    1cfe:	fffa0513          	add	a0,s4,-1
    1d02:	0512                	sll	a0,a0,0x4
    1d04:	8111                	srl	a0,a0,0x4
    1d06:	00150913          	add	s2,a0,1
    1d0a:	0aa1                	add	s5,s5,8
    1d0c:	0a12                	sll	s4,s4,0x4
    1d0e:	04a1                	add	s1,s1,8
    1d10:	000ab603          	ld	a2,0(s5)
    1d14:	ca11                	beqz	a2,1d28 <_ZN4core3fmt5write17hffc3b19826d8e13cE+0x14c>
    1d16:	f9843683          	ld	a3,-104(s0)
    1d1a:	f9043503          	ld	a0,-112(s0)
    1d1e:	ff8ab583          	ld	a1,-8(s5)
    1d22:	6e94                	ld	a3,24(a3)
    1d24:	9682                	jalr	a3
    1d26:	e531                	bnez	a0,1d72 <_ZN4core3fmt5write17hffc3b19826d8e13cE+0x196>
    1d28:	6090                	ld	a2,0(s1)
    1d2a:	ff84b503          	ld	a0,-8(s1)
    1d2e:	f7040593          	add	a1,s0,-144
    1d32:	9602                	jalr	a2
    1d34:	ed1d                	bnez	a0,1d72 <_ZN4core3fmt5write17hffc3b19826d8e13cE+0x196>
    1d36:	0ac1                	add	s5,s5,16
    1d38:	1a41                	add	s4,s4,-16
    1d3a:	04c1                	add	s1,s1,16
    1d3c:	fc0a1ae3          	bnez	s4,1d10 <_ZN4core3fmt5write17hffc3b19826d8e13cE+0x134>
    1d40:	0089b503          	ld	a0,8(s3)
    1d44:	00a96863          	bltu	s2,a0,1d54 <_ZN4core3fmt5write17hffc3b19826d8e13cE+0x178>
    1d48:	a03d                	j	1d76 <_ZN4core3fmt5write17hffc3b19826d8e13cE+0x19a>
    1d4a:	4901                	li	s2,0
    1d4c:	0089b503          	ld	a0,8(s3)
    1d50:	02a07363          	bgeu	zero,a0,1d76 <_ZN4core3fmt5write17hffc3b19826d8e13cE+0x19a>
    1d54:	0009b503          	ld	a0,0(s3)
    1d58:	0912                	sll	s2,s2,0x4
    1d5a:	992a                	add	s2,s2,a0
    1d5c:	f9843683          	ld	a3,-104(s0)
    1d60:	f9043503          	ld	a0,-112(s0)
    1d64:	00093583          	ld	a1,0(s2)
    1d68:	00893603          	ld	a2,8(s2)
    1d6c:	6e94                	ld	a3,24(a3)
    1d6e:	9682                	jalr	a3
    1d70:	c119                	beqz	a0,1d76 <_ZN4core3fmt5write17hffc3b19826d8e13cE+0x19a>
    1d72:	4505                	li	a0,1
    1d74:	a011                	j	1d78 <_ZN4core3fmt5write17hffc3b19826d8e13cE+0x19c>
    1d76:	4501                	li	a0,0
    1d78:	60aa                	ld	ra,136(sp)
    1d7a:	640a                	ld	s0,128(sp)
    1d7c:	74e6                	ld	s1,120(sp)
    1d7e:	7946                	ld	s2,112(sp)
    1d80:	79a6                	ld	s3,104(sp)
    1d82:	7a06                	ld	s4,96(sp)
    1d84:	6ae6                	ld	s5,88(sp)
    1d86:	6b46                	ld	s6,80(sp)
    1d88:	6ba6                	ld	s7,72(sp)
    1d8a:	6c06                	ld	s8,64(sp)
    1d8c:	6149                	add	sp,sp,144
    1d8e:	8082                	ret

0000000000001d90 <_ZN4core3fmt9Formatter12pad_integral17h44dfd61457ce584aE>:
    1d90:	7159                	add	sp,sp,-112
    1d92:	f486                	sd	ra,104(sp)
    1d94:	f0a2                	sd	s0,96(sp)
    1d96:	eca6                	sd	s1,88(sp)
    1d98:	e8ca                	sd	s2,80(sp)
    1d9a:	e4ce                	sd	s3,72(sp)
    1d9c:	e0d2                	sd	s4,64(sp)
    1d9e:	fc56                	sd	s5,56(sp)
    1da0:	f85a                	sd	s6,48(sp)
    1da2:	f45e                	sd	s7,40(sp)
    1da4:	f062                	sd	s8,32(sp)
    1da6:	ec66                	sd	s9,24(sp)
    1da8:	e86a                	sd	s10,16(sp)
    1daa:	e46e                	sd	s11,8(sp)
    1dac:	1880                	add	s0,sp,112
    1dae:	89be                	mv	s3,a5
    1db0:	893a                	mv	s2,a4
    1db2:	8a36                	mv	s4,a3
    1db4:	8b32                	mv	s6,a2
    1db6:	c5b9                	beqz	a1,1e04 <_ZN4core3fmt9Formatter12pad_integral17h44dfd61457ce584aE+0x74>
    1db8:	03456483          	lwu	s1,52(a0)
    1dbc:	0014fc13          	and	s8,s1,1
    1dc0:	00110ab7          	lui	s5,0x110
    1dc4:	000c0463          	beqz	s8,1dcc <_ZN4core3fmt9Formatter12pad_integral17h44dfd61457ce584aE+0x3c>
    1dc8:	02b00a93          	li	s5,43
    1dcc:	9c4e                	add	s8,s8,s3
    1dce:	0044f593          	and	a1,s1,4
    1dd2:	c1a9                	beqz	a1,1e14 <_ZN4core3fmt9Formatter12pad_integral17h44dfd61457ce584aE+0x84>
    1dd4:	02000593          	li	a1,32
    1dd8:	04ba7263          	bgeu	s4,a1,1e1c <_ZN4core3fmt9Formatter12pad_integral17h44dfd61457ce584aE+0x8c>
    1ddc:	4581                	li	a1,0
    1dde:	000a0f63          	beqz	s4,1dfc <_ZN4core3fmt9Formatter12pad_integral17h44dfd61457ce584aE+0x6c>
    1de2:	014b0633          	add	a2,s6,s4
    1de6:	86da                	mv	a3,s6
    1de8:	00068703          	lb	a4,0(a3)
    1dec:	fc072713          	slti	a4,a4,-64
    1df0:	00174713          	xor	a4,a4,1
    1df4:	0685                	add	a3,a3,1
    1df6:	95ba                	add	a1,a1,a4
    1df8:	fec698e3          	bne	a3,a2,1de8 <_ZN4core3fmt9Formatter12pad_integral17h44dfd61457ce584aE+0x58>
    1dfc:	9c2e                	add	s8,s8,a1
    1dfe:	610c                	ld	a1,0(a0)
    1e00:	e99d                	bnez	a1,1e36 <_ZN4core3fmt9Formatter12pad_integral17h44dfd61457ce584aE+0xa6>
    1e02:	a889                	j	1e54 <_ZN4core3fmt9Formatter12pad_integral17h44dfd61457ce584aE+0xc4>
    1e04:	5944                	lw	s1,52(a0)
    1e06:	00198c13          	add	s8,s3,1
    1e0a:	02d00a93          	li	s5,45
    1e0e:	0044f593          	and	a1,s1,4
    1e12:	f1e9                	bnez	a1,1dd4 <_ZN4core3fmt9Formatter12pad_integral17h44dfd61457ce584aE+0x44>
    1e14:	4b01                	li	s6,0
    1e16:	610c                	ld	a1,0(a0)
    1e18:	ed99                	bnez	a1,1e36 <_ZN4core3fmt9Formatter12pad_integral17h44dfd61457ce584aE+0xa6>
    1e1a:	a82d                	j	1e54 <_ZN4core3fmt9Formatter12pad_integral17h44dfd61457ce584aE+0xc4>
    1e1c:	8baa                	mv	s7,a0
    1e1e:	855a                	mv	a0,s6
    1e20:	85d2                	mv	a1,s4
    1e22:	00000097          	auipc	ra,0x0
    1e26:	674080e7          	jalr	1652(ra) # 2496 <_ZN4core3str5count14do_count_chars17hbdfa74771c0f7956E>
    1e2a:	85aa                	mv	a1,a0
    1e2c:	855e                	mv	a0,s7
    1e2e:	9c2e                	add	s8,s8,a1
    1e30:	000bb583          	ld	a1,0(s7)
    1e34:	c185                	beqz	a1,1e54 <_ZN4core3fmt9Formatter12pad_integral17h44dfd61457ce584aE+0xc4>
    1e36:	00853c83          	ld	s9,8(a0)
    1e3a:	019c7d63          	bgeu	s8,s9,1e54 <_ZN4core3fmt9Formatter12pad_integral17h44dfd61457ce584aE+0xc4>
    1e3e:	88a1                	and	s1,s1,8
    1e40:	eca1                	bnez	s1,1e98 <_ZN4core3fmt9Formatter12pad_integral17h44dfd61457ce584aE+0x108>
    1e42:	03854583          	lbu	a1,56(a0)
    1e46:	4605                	li	a2,1
    1e48:	418c8cb3          	sub	s9,s9,s8
    1e4c:	08b64e63          	blt	a2,a1,1ee8 <_ZN4core3fmt9Formatter12pad_integral17h44dfd61457ce584aE+0x158>
    1e50:	c5dd                	beqz	a1,1efe <_ZN4core3fmt9Formatter12pad_integral17h44dfd61457ce584aE+0x16e>
    1e52:	a065                	j	1efa <_ZN4core3fmt9Formatter12pad_integral17h44dfd61457ce584aE+0x16a>
    1e54:	02053b83          	ld	s7,32(a0)
    1e58:	7504                	ld	s1,40(a0)
    1e5a:	855e                	mv	a0,s7
    1e5c:	85a6                	mv	a1,s1
    1e5e:	8656                	mv	a2,s5
    1e60:	86da                	mv	a3,s6
    1e62:	8752                	mv	a4,s4
    1e64:	00000097          	auipc	ra,0x0
    1e68:	152080e7          	jalr	338(ra) # 1fb6 <_ZN4core3fmt9Formatter12pad_integral12write_prefix17hb302388d332c8118E>
    1e6c:	85aa                	mv	a1,a0
    1e6e:	4505                	li	a0,1
    1e70:	e9c5                	bnez	a1,1f20 <_ZN4core3fmt9Formatter12pad_integral17h44dfd61457ce584aE+0x190>
    1e72:	6c9c                	ld	a5,24(s1)
    1e74:	855e                	mv	a0,s7
    1e76:	85ca                	mv	a1,s2
    1e78:	864e                	mv	a2,s3
    1e7a:	70a6                	ld	ra,104(sp)
    1e7c:	7406                	ld	s0,96(sp)
    1e7e:	64e6                	ld	s1,88(sp)
    1e80:	6946                	ld	s2,80(sp)
    1e82:	69a6                	ld	s3,72(sp)
    1e84:	6a06                	ld	s4,64(sp)
    1e86:	7ae2                	ld	s5,56(sp)
    1e88:	7b42                	ld	s6,48(sp)
    1e8a:	7ba2                	ld	s7,40(sp)
    1e8c:	7c02                	ld	s8,32(sp)
    1e8e:	6ce2                	ld	s9,24(sp)
    1e90:	6d42                	ld	s10,16(sp)
    1e92:	6da2                	ld	s11,8(sp)
    1e94:	6165                	add	sp,sp,112
    1e96:	8782                	jr	a5
    1e98:	5904                	lw	s1,48(a0)
    1e9a:	03000593          	li	a1,48
    1e9e:	03854603          	lbu	a2,56(a0)
    1ea2:	f8c43823          	sd	a2,-112(s0)
    1ea6:	02053b83          	ld	s7,32(a0)
    1eaa:	02853d03          	ld	s10,40(a0)
    1eae:	d90c                	sw	a1,48(a0)
    1eb0:	4585                	li	a1,1
    1eb2:	8daa                	mv	s11,a0
    1eb4:	02b50c23          	sb	a1,56(a0)
    1eb8:	855e                	mv	a0,s7
    1eba:	85ea                	mv	a1,s10
    1ebc:	8656                	mv	a2,s5
    1ebe:	86da                	mv	a3,s6
    1ec0:	8752                	mv	a4,s4
    1ec2:	00000097          	auipc	ra,0x0
    1ec6:	0f4080e7          	jalr	244(ra) # 1fb6 <_ZN4core3fmt9Formatter12pad_integral12write_prefix17hb302388d332c8118E>
    1eca:	e931                	bnez	a0,1f1e <_ZN4core3fmt9Formatter12pad_integral17h44dfd61457ce584aE+0x18e>
    1ecc:	8a26                	mv	s4,s1
    1ece:	418c84b3          	sub	s1,s9,s8
    1ed2:	0485                	add	s1,s1,1
    1ed4:	14fd                	add	s1,s1,-1
    1ed6:	c8dd                	beqz	s1,1f8c <_ZN4core3fmt9Formatter12pad_integral17h44dfd61457ce584aE+0x1fc>
    1ed8:	020d3603          	ld	a2,32(s10)
    1edc:	03000593          	li	a1,48
    1ee0:	855e                	mv	a0,s7
    1ee2:	9602                	jalr	a2
    1ee4:	d965                	beqz	a0,1ed4 <_ZN4core3fmt9Formatter12pad_integral17h44dfd61457ce584aE+0x144>
    1ee6:	a825                	j	1f1e <_ZN4core3fmt9Formatter12pad_integral17h44dfd61457ce584aE+0x18e>
    1ee8:	4609                	li	a2,2
    1eea:	00c59863          	bne	a1,a2,1efa <_ZN4core3fmt9Formatter12pad_integral17h44dfd61457ce584aE+0x16a>
    1eee:	001cd593          	srl	a1,s9,0x1
    1ef2:	0c85                	add	s9,s9,1
    1ef4:	001cdc93          	srl	s9,s9,0x1
    1ef8:	a019                	j	1efe <_ZN4core3fmt9Formatter12pad_integral17h44dfd61457ce584aE+0x16e>
    1efa:	85e6                	mv	a1,s9
    1efc:	4c81                	li	s9,0
    1efe:	02053b83          	ld	s7,32(a0)
    1f02:	02853d03          	ld	s10,40(a0)
    1f06:	03052c03          	lw	s8,48(a0)
    1f0a:	00158493          	add	s1,a1,1
    1f0e:	14fd                	add	s1,s1,-1
    1f10:	c49d                	beqz	s1,1f3e <_ZN4core3fmt9Formatter12pad_integral17h44dfd61457ce584aE+0x1ae>
    1f12:	020d3603          	ld	a2,32(s10)
    1f16:	855e                	mv	a0,s7
    1f18:	85e2                	mv	a1,s8
    1f1a:	9602                	jalr	a2
    1f1c:	d96d                	beqz	a0,1f0e <_ZN4core3fmt9Formatter12pad_integral17h44dfd61457ce584aE+0x17e>
    1f1e:	4505                	li	a0,1
    1f20:	70a6                	ld	ra,104(sp)
    1f22:	7406                	ld	s0,96(sp)
    1f24:	64e6                	ld	s1,88(sp)
    1f26:	6946                	ld	s2,80(sp)
    1f28:	69a6                	ld	s3,72(sp)
    1f2a:	6a06                	ld	s4,64(sp)
    1f2c:	7ae2                	ld	s5,56(sp)
    1f2e:	7b42                	ld	s6,48(sp)
    1f30:	7ba2                	ld	s7,40(sp)
    1f32:	7c02                	ld	s8,32(sp)
    1f34:	6ce2                	ld	s9,24(sp)
    1f36:	6d42                	ld	s10,16(sp)
    1f38:	6da2                	ld	s11,8(sp)
    1f3a:	6165                	add	sp,sp,112
    1f3c:	8082                	ret
    1f3e:	855e                	mv	a0,s7
    1f40:	85ea                	mv	a1,s10
    1f42:	8656                	mv	a2,s5
    1f44:	86da                	mv	a3,s6
    1f46:	8752                	mv	a4,s4
    1f48:	00000097          	auipc	ra,0x0
    1f4c:	06e080e7          	jalr	110(ra) # 1fb6 <_ZN4core3fmt9Formatter12pad_integral12write_prefix17hb302388d332c8118E>
    1f50:	85aa                	mv	a1,a0
    1f52:	4505                	li	a0,1
    1f54:	f5f1                	bnez	a1,1f20 <_ZN4core3fmt9Formatter12pad_integral17h44dfd61457ce584aE+0x190>
    1f56:	018d3683          	ld	a3,24(s10)
    1f5a:	855e                	mv	a0,s7
    1f5c:	85ca                	mv	a1,s2
    1f5e:	864e                	mv	a2,s3
    1f60:	9682                	jalr	a3
    1f62:	85aa                	mv	a1,a0
    1f64:	4505                	li	a0,1
    1f66:	fdcd                	bnez	a1,1f20 <_ZN4core3fmt9Formatter12pad_integral17h44dfd61457ce584aE+0x190>
    1f68:	41900933          	neg	s2,s9
    1f6c:	59fd                	li	s3,-1
    1f6e:	54fd                	li	s1,-1
    1f70:	00990533          	add	a0,s2,s1
    1f74:	03350d63          	beq	a0,s3,1fae <_ZN4core3fmt9Formatter12pad_integral17h44dfd61457ce584aE+0x21e>
    1f78:	020d3603          	ld	a2,32(s10)
    1f7c:	855e                	mv	a0,s7
    1f7e:	85e2                	mv	a1,s8
    1f80:	9602                	jalr	a2
    1f82:	0485                	add	s1,s1,1
    1f84:	d575                	beqz	a0,1f70 <_ZN4core3fmt9Formatter12pad_integral17h44dfd61457ce584aE+0x1e0>
    1f86:	0194b533          	sltu	a0,s1,s9
    1f8a:	bf59                	j	1f20 <_ZN4core3fmt9Formatter12pad_integral17h44dfd61457ce584aE+0x190>
    1f8c:	018d3683          	ld	a3,24(s10)
    1f90:	855e                	mv	a0,s7
    1f92:	85ca                	mv	a1,s2
    1f94:	864e                	mv	a2,s3
    1f96:	9682                	jalr	a3
    1f98:	85aa                	mv	a1,a0
    1f9a:	4505                	li	a0,1
    1f9c:	f1d1                	bnez	a1,1f20 <_ZN4core3fmt9Formatter12pad_integral17h44dfd61457ce584aE+0x190>
    1f9e:	4501                	li	a0,0
    1fa0:	034da823          	sw	s4,48(s11)
    1fa4:	f9043583          	ld	a1,-112(s0)
    1fa8:	02bd8c23          	sb	a1,56(s11)
    1fac:	bf95                	j	1f20 <_ZN4core3fmt9Formatter12pad_integral17h44dfd61457ce584aE+0x190>
    1fae:	84e6                	mv	s1,s9
    1fb0:	019cb533          	sltu	a0,s9,s9
    1fb4:	b7b5                	j	1f20 <_ZN4core3fmt9Formatter12pad_integral17h44dfd61457ce584aE+0x190>

0000000000001fb6 <_ZN4core3fmt9Formatter12pad_integral12write_prefix17hb302388d332c8118E>:
    1fb6:	7179                	add	sp,sp,-48
    1fb8:	f406                	sd	ra,40(sp)
    1fba:	f022                	sd	s0,32(sp)
    1fbc:	ec26                	sd	s1,24(sp)
    1fbe:	e84a                	sd	s2,16(sp)
    1fc0:	e44e                	sd	s3,8(sp)
    1fc2:	e052                	sd	s4,0(sp)
    1fc4:	1800                	add	s0,sp,48
    1fc6:	0006079b          	sext.w	a5,a2
    1fca:	001104b7          	lui	s1,0x110
    1fce:	893a                	mv	s2,a4
    1fd0:	8a36                	mv	s4,a3
    1fd2:	89ae                	mv	s3,a1
    1fd4:	00978b63          	beq	a5,s1,1fea <_ZN4core3fmt9Formatter12pad_integral12write_prefix17hb302388d332c8118E+0x34>
    1fd8:	0209b683          	ld	a3,32(s3)
    1fdc:	84aa                	mv	s1,a0
    1fde:	85b2                	mv	a1,a2
    1fe0:	9682                	jalr	a3
    1fe2:	862a                	mv	a2,a0
    1fe4:	8526                	mv	a0,s1
    1fe6:	4585                	li	a1,1
    1fe8:	e205                	bnez	a2,2008 <_ZN4core3fmt9Formatter12pad_integral12write_prefix17hb302388d332c8118E+0x52>
    1fea:	000a0e63          	beqz	s4,2006 <_ZN4core3fmt9Formatter12pad_integral12write_prefix17hb302388d332c8118E+0x50>
    1fee:	0189b783          	ld	a5,24(s3)
    1ff2:	85d2                	mv	a1,s4
    1ff4:	864a                	mv	a2,s2
    1ff6:	70a2                	ld	ra,40(sp)
    1ff8:	7402                	ld	s0,32(sp)
    1ffa:	64e2                	ld	s1,24(sp)
    1ffc:	6942                	ld	s2,16(sp)
    1ffe:	69a2                	ld	s3,8(sp)
    2000:	6a02                	ld	s4,0(sp)
    2002:	6145                	add	sp,sp,48
    2004:	8782                	jr	a5
    2006:	4581                	li	a1,0
    2008:	852e                	mv	a0,a1
    200a:	70a2                	ld	ra,40(sp)
    200c:	7402                	ld	s0,32(sp)
    200e:	64e2                	ld	s1,24(sp)
    2010:	6942                	ld	s2,16(sp)
    2012:	69a2                	ld	s3,8(sp)
    2014:	6a02                	ld	s4,0(sp)
    2016:	6145                	add	sp,sp,48
    2018:	8082                	ret

000000000000201a <_ZN4core3fmt9Formatter3pad17h7d67947b6a7c39b2E>:
    201a:	715d                	add	sp,sp,-80
    201c:	e486                	sd	ra,72(sp)
    201e:	e0a2                	sd	s0,64(sp)
    2020:	fc26                	sd	s1,56(sp)
    2022:	f84a                	sd	s2,48(sp)
    2024:	f44e                	sd	s3,40(sp)
    2026:	f052                	sd	s4,32(sp)
    2028:	ec56                	sd	s5,24(sp)
    202a:	e85a                	sd	s6,16(sp)
    202c:	e45e                	sd	s7,8(sp)
    202e:	0880                	add	s0,sp,80
    2030:	6114                	ld	a3,0(a0)
    2032:	6918                	ld	a4,16(a0)
    2034:	00e6e7b3          	or	a5,a3,a4
    2038:	8932                	mv	s2,a2
    203a:	89ae                	mv	s3,a1
    203c:	cfe5                	beqz	a5,2134 <_ZN4core3fmt9Formatter3pad17h7d67947b6a7c39b2E+0x11a>
    203e:	cf41                	beqz	a4,20d6 <_ZN4core3fmt9Formatter3pad17h7d67947b6a7c39b2E+0xbc>
    2040:	6d18                	ld	a4,24(a0)
    2042:	01298633          	add	a2,s3,s2
    2046:	4581                	li	a1,0
    2048:	c721                	beqz	a4,2090 <_ZN4core3fmt9Formatter3pad17h7d67947b6a7c39b2E+0x76>
    204a:	0e000893          	li	a7,224
    204e:	0f000813          	li	a6,240
    2052:	84ce                	mv	s1,s3
    2054:	a809                	j	2066 <_ZN4core3fmt9Formatter3pad17h7d67947b6a7c39b2E+0x4c>
    2056:	00148793          	add	a5,s1,1 # 110001 <end+0xf1ffd>
    205a:	8c8d                	sub	s1,s1,a1
    205c:	177d                	add	a4,a4,-1
    205e:	409785b3          	sub	a1,a5,s1
    2062:	84be                	mv	s1,a5
    2064:	c71d                	beqz	a4,2092 <_ZN4core3fmt9Formatter3pad17h7d67947b6a7c39b2E+0x78>
    2066:	06c48863          	beq	s1,a2,20d6 <_ZN4core3fmt9Formatter3pad17h7d67947b6a7c39b2E+0xbc>
    206a:	00048783          	lb	a5,0(s1)
    206e:	fe07d4e3          	bgez	a5,2056 <_ZN4core3fmt9Formatter3pad17h7d67947b6a7c39b2E+0x3c>
    2072:	0ff7f793          	zext.b	a5,a5
    2076:	0117e763          	bltu	a5,a7,2084 <_ZN4core3fmt9Formatter3pad17h7d67947b6a7c39b2E+0x6a>
    207a:	0107e863          	bltu	a5,a6,208a <_ZN4core3fmt9Formatter3pad17h7d67947b6a7c39b2E+0x70>
    207e:	00448793          	add	a5,s1,4
    2082:	bfe1                	j	205a <_ZN4core3fmt9Formatter3pad17h7d67947b6a7c39b2E+0x40>
    2084:	00248793          	add	a5,s1,2
    2088:	bfc9                	j	205a <_ZN4core3fmt9Formatter3pad17h7d67947b6a7c39b2E+0x40>
    208a:	00348793          	add	a5,s1,3
    208e:	b7f1                	j	205a <_ZN4core3fmt9Formatter3pad17h7d67947b6a7c39b2E+0x40>
    2090:	87ce                	mv	a5,s3
    2092:	04c78263          	beq	a5,a2,20d6 <_ZN4core3fmt9Formatter3pad17h7d67947b6a7c39b2E+0xbc>
    2096:	00078603          	lb	a2,0(a5)
    209a:	00064463          	bltz	a2,20a2 <_ZN4core3fmt9Formatter3pad17h7d67947b6a7c39b2E+0x88>
    209e:	e599                	bnez	a1,20ac <_ZN4core3fmt9Formatter3pad17h7d67947b6a7c39b2E+0x92>
    20a0:	a035                	j	20cc <_ZN4core3fmt9Formatter3pad17h7d67947b6a7c39b2E+0xb2>
    20a2:	0ff67613          	zext.b	a2,a2
    20a6:	0e000713          	li	a4,224
    20aa:	c18d                	beqz	a1,20cc <_ZN4core3fmt9Formatter3pad17h7d67947b6a7c39b2E+0xb2>
    20ac:	0125fe63          	bgeu	a1,s2,20c8 <_ZN4core3fmt9Formatter3pad17h7d67947b6a7c39b2E+0xae>
    20b0:	00b98633          	add	a2,s3,a1
    20b4:	00060603          	lb	a2,0(a2)
    20b8:	fbf00713          	li	a4,-65
    20bc:	00c74863          	blt	a4,a2,20cc <_ZN4core3fmt9Formatter3pad17h7d67947b6a7c39b2E+0xb2>
    20c0:	4601                	li	a2,0
    20c2:	00001863          	bnez	zero,20d2 <_ZN4core3fmt9Formatter3pad17h7d67947b6a7c39b2E+0xb8>
    20c6:	a801                	j	20d6 <_ZN4core3fmt9Formatter3pad17h7d67947b6a7c39b2E+0xbc>
    20c8:	ff259ce3          	bne	a1,s2,20c0 <_ZN4core3fmt9Formatter3pad17h7d67947b6a7c39b2E+0xa6>
    20cc:	864e                	mv	a2,s3
    20ce:	00098463          	beqz	s3,20d6 <_ZN4core3fmt9Formatter3pad17h7d67947b6a7c39b2E+0xbc>
    20d2:	892e                	mv	s2,a1
    20d4:	89b2                	mv	s3,a2
    20d6:	ceb9                	beqz	a3,2134 <_ZN4core3fmt9Formatter3pad17h7d67947b6a7c39b2E+0x11a>
    20d8:	6504                	ld	s1,8(a0)
    20da:	02000593          	li	a1,32
    20de:	04b97063          	bgeu	s2,a1,211e <_ZN4core3fmt9Formatter3pad17h7d67947b6a7c39b2E+0x104>
    20e2:	4581                	li	a1,0
    20e4:	00090f63          	beqz	s2,2102 <_ZN4core3fmt9Formatter3pad17h7d67947b6a7c39b2E+0xe8>
    20e8:	01298633          	add	a2,s3,s2
    20ec:	86ce                	mv	a3,s3
    20ee:	00068703          	lb	a4,0(a3)
    20f2:	fc072713          	slti	a4,a4,-64
    20f6:	00174713          	xor	a4,a4,1
    20fa:	0685                	add	a3,a3,1
    20fc:	95ba                	add	a1,a1,a4
    20fe:	fec698e3          	bne	a3,a2,20ee <_ZN4core3fmt9Formatter3pad17h7d67947b6a7c39b2E+0xd4>
    2102:	0295f963          	bgeu	a1,s1,2134 <_ZN4core3fmt9Formatter3pad17h7d67947b6a7c39b2E+0x11a>
    2106:	03854683          	lbu	a3,56(a0)
    210a:	4601                	li	a2,0
    210c:	4705                	li	a4,1
    210e:	40b48ab3          	sub	s5,s1,a1
    2112:	04d74163          	blt	a4,a3,2154 <_ZN4core3fmt9Formatter3pad17h7d67947b6a7c39b2E+0x13a>
    2116:	c6b9                	beqz	a3,2164 <_ZN4core3fmt9Formatter3pad17h7d67947b6a7c39b2E+0x14a>
    2118:	8656                	mv	a2,s5
    211a:	4a81                	li	s5,0
    211c:	a0a1                	j	2164 <_ZN4core3fmt9Formatter3pad17h7d67947b6a7c39b2E+0x14a>
    211e:	8a2a                	mv	s4,a0
    2120:	854e                	mv	a0,s3
    2122:	85ca                	mv	a1,s2
    2124:	00000097          	auipc	ra,0x0
    2128:	372080e7          	jalr	882(ra) # 2496 <_ZN4core3str5count14do_count_chars17hbdfa74771c0f7956E>
    212c:	85aa                	mv	a1,a0
    212e:	8552                	mv	a0,s4
    2130:	fc95ebe3          	bltu	a1,s1,2106 <_ZN4core3fmt9Formatter3pad17h7d67947b6a7c39b2E+0xec>
    2134:	750c                	ld	a1,40(a0)
    2136:	7108                	ld	a0,32(a0)
    2138:	6d9c                	ld	a5,24(a1)
    213a:	85ce                	mv	a1,s3
    213c:	864a                	mv	a2,s2
    213e:	60a6                	ld	ra,72(sp)
    2140:	6406                	ld	s0,64(sp)
    2142:	74e2                	ld	s1,56(sp)
    2144:	7942                	ld	s2,48(sp)
    2146:	79a2                	ld	s3,40(sp)
    2148:	7a02                	ld	s4,32(sp)
    214a:	6ae2                	ld	s5,24(sp)
    214c:	6b42                	ld	s6,16(sp)
    214e:	6ba2                	ld	s7,8(sp)
    2150:	6161                	add	sp,sp,80
    2152:	8782                	jr	a5
    2154:	4589                	li	a1,2
    2156:	00b69763          	bne	a3,a1,2164 <_ZN4core3fmt9Formatter3pad17h7d67947b6a7c39b2E+0x14a>
    215a:	001ad613          	srl	a2,s5,0x1
    215e:	0a85                	add	s5,s5,1 # 110001 <end+0xf1ffd>
    2160:	001ada93          	srl	s5,s5,0x1
    2164:	02053a03          	ld	s4,32(a0)
    2168:	02853b83          	ld	s7,40(a0)
    216c:	03052b03          	lw	s6,48(a0)
    2170:	00160493          	add	s1,a2,1
    2174:	14fd                	add	s1,s1,-1
    2176:	c889                	beqz	s1,2188 <_ZN4core3fmt9Formatter3pad17h7d67947b6a7c39b2E+0x16e>
    2178:	020bb603          	ld	a2,32(s7)
    217c:	8552                	mv	a0,s4
    217e:	85da                	mv	a1,s6
    2180:	9602                	jalr	a2
    2182:	d96d                	beqz	a0,2174 <_ZN4core3fmt9Formatter3pad17h7d67947b6a7c39b2E+0x15a>
    2184:	4505                	li	a0,1
    2186:	a82d                	j	21c0 <_ZN4core3fmt9Formatter3pad17h7d67947b6a7c39b2E+0x1a6>
    2188:	018bb683          	ld	a3,24(s7)
    218c:	8552                	mv	a0,s4
    218e:	85ce                	mv	a1,s3
    2190:	864a                	mv	a2,s2
    2192:	9682                	jalr	a3
    2194:	85aa                	mv	a1,a0
    2196:	4505                	li	a0,1
    2198:	e585                	bnez	a1,21c0 <_ZN4core3fmt9Formatter3pad17h7d67947b6a7c39b2E+0x1a6>
    219a:	41500933          	neg	s2,s5
    219e:	59fd                	li	s3,-1
    21a0:	54fd                	li	s1,-1
    21a2:	00990533          	add	a0,s2,s1
    21a6:	01350a63          	beq	a0,s3,21ba <_ZN4core3fmt9Formatter3pad17h7d67947b6a7c39b2E+0x1a0>
    21aa:	020bb603          	ld	a2,32(s7)
    21ae:	8552                	mv	a0,s4
    21b0:	85da                	mv	a1,s6
    21b2:	9602                	jalr	a2
    21b4:	0485                	add	s1,s1,1
    21b6:	d575                	beqz	a0,21a2 <_ZN4core3fmt9Formatter3pad17h7d67947b6a7c39b2E+0x188>
    21b8:	a011                	j	21bc <_ZN4core3fmt9Formatter3pad17h7d67947b6a7c39b2E+0x1a2>
    21ba:	84d6                	mv	s1,s5
    21bc:	0154b533          	sltu	a0,s1,s5
    21c0:	60a6                	ld	ra,72(sp)
    21c2:	6406                	ld	s0,64(sp)
    21c4:	74e2                	ld	s1,56(sp)
    21c6:	7942                	ld	s2,48(sp)
    21c8:	79a2                	ld	s3,40(sp)
    21ca:	7a02                	ld	s4,32(sp)
    21cc:	6ae2                	ld	s5,24(sp)
    21ce:	6b42                	ld	s6,16(sp)
    21d0:	6ba2                	ld	s7,8(sp)
    21d2:	6161                	add	sp,sp,80
    21d4:	8082                	ret

00000000000021d6 <_ZN4core3fmt9Formatter9write_str17h4287e59e01be30b4E>:
    21d6:	1141                	add	sp,sp,-16
    21d8:	e406                	sd	ra,8(sp)
    21da:	e022                	sd	s0,0(sp)
    21dc:	0800                	add	s0,sp,16
    21de:	7514                	ld	a3,40(a0)
    21e0:	7108                	ld	a0,32(a0)
    21e2:	6e9c                	ld	a5,24(a3)
    21e4:	60a2                	ld	ra,8(sp)
    21e6:	6402                	ld	s0,0(sp)
    21e8:	0141                	add	sp,sp,16
    21ea:	8782                	jr	a5

00000000000021ec <_ZN41_$LT$char$u20$as$u20$core..fmt..Debug$GT$3fmt17h28d79ddde3836a6dE>:
    21ec:	711d                	add	sp,sp,-96
    21ee:	ec86                	sd	ra,88(sp)
    21f0:	e8a2                	sd	s0,80(sp)
    21f2:	e4a6                	sd	s1,72(sp)
    21f4:	e0ca                	sd	s2,64(sp)
    21f6:	fc4e                	sd	s3,56(sp)
    21f8:	f852                	sd	s4,48(sp)
    21fa:	f456                	sd	s5,40(sp)
    21fc:	f05a                	sd	s6,32(sp)
    21fe:	1080                	add	s0,sp,96
    2200:	0285ba83          	ld	s5,40(a1)
    2204:	0205b983          	ld	s3,32(a1)
    2208:	020aba03          	ld	s4,32(s5)
    220c:	84aa                	mv	s1,a0
    220e:	02700593          	li	a1,39
    2212:	02700b13          	li	s6,39
    2216:	854e                	mv	a0,s3
    2218:	9a02                	jalr	s4
    221a:	4905                	li	s2,1
    221c:	12051863          	bnez	a0,234c <.LBB214_14+0x44>
    2220:	4084                	lw	s1,0(s1)
    2222:	029b6063          	bltu	s6,s1,2242 <.LBB214_3+0xa>
    2226:	00349513          	sll	a0,s1,0x3

000000000000222a <.Lpcrel_hi556>:
    222a:	00002597          	auipc	a1,0x2
    222e:	fee58593          	add	a1,a1,-18 # 4218 <.LJTI214_0>
    2232:	952e                	add	a0,a0,a1
    2234:	6108                	ld	a0,0(a0)
    2236:	8502                	jr	a0

0000000000002238 <.LBB214_3>:
    2238:	4581                	li	a1,0
    223a:	650d                	lui	a0,0x3
    223c:	05c50513          	add	a0,a0,92 # 305c <.Lpcrel_hi985+0x2>
    2240:	a8c1                	j	2310 <.LBB214_14+0x8>
    2242:	05c00513          	li	a0,92
    2246:	00a49763          	bne	s1,a0,2254 <.LBB214_6>
    224a:	4581                	li	a1,0
    224c:	6519                	lui	a0,0x6
    224e:	c5c50513          	add	a0,a0,-932 # 5c5c <_ZN6kernel7console7CONSOLE17hf1f49ad43aab6abcE+0x67c>
    2252:	a87d                	j	2310 <.LBB214_14+0x8>

0000000000002254 <.LBB214_6>:
    2254:	2ff00513          	li	a0,767
    2258:	00957863          	bgeu	a0,s1,2268 <.LBB214_8>
    225c:	8526                	mv	a0,s1
    225e:	00001097          	auipc	ra,0x1
    2262:	d54080e7          	jalr	-684(ra) # 2fb2 <_ZN4core7unicode12unicode_data15grapheme_extend11lookup_slow17hb4aa5a40f1bf8a0dE>
    2266:	ed11                	bnez	a0,2282 <.LBB214_8+0x1a>

0000000000002268 <.LBB214_8>:
    2268:	8526                	mv	a0,s1
    226a:	00000097          	auipc	ra,0x0
    226e:	7ba080e7          	jalr	1978(ra) # 2a24 <_ZN4core7unicode9printable12is_printable17h9a68603bbae84b1fE>
    2272:	c901                	beqz	a0,2282 <.LBB214_8+0x1a>
    2274:	08000513          	li	a0,128
    2278:	faa40423          	sb	a0,-88(s0)
    227c:	fa942623          	sw	s1,-84(s0)
    2280:	a86d                	j	233a <.LBB214_14+0x32>
    2282:	fb440513          	add	a0,s0,-76
    2286:	85a6                	mv	a1,s1
    2288:	00001097          	auipc	ra,0x1
    228c:	8ec080e7          	jalr	-1812(ra) # 2b74 <_ZN4core6escape14escape_unicode17hedbd552c510bfac9E>
    2290:	fbd44503          	lbu	a0,-67(s0)
    2294:	fbc44583          	lbu	a1,-68(s0)
    2298:	0522                	sll	a0,a0,0x8
    229a:	8d4d                	or	a0,a0,a1
    229c:	faa41823          	sh	a0,-80(s0)
    22a0:	fb544503          	lbu	a0,-75(s0)
    22a4:	fb444583          	lbu	a1,-76(s0)
    22a8:	fb644603          	lbu	a2,-74(s0)
    22ac:	fb744683          	lbu	a3,-73(s0)
    22b0:	0522                	sll	a0,a0,0x8
    22b2:	8d4d                	or	a0,a0,a1
    22b4:	0642                	sll	a2,a2,0x10
    22b6:	06e2                	sll	a3,a3,0x18
    22b8:	8e55                	or	a2,a2,a3
    22ba:	8d51                	or	a0,a0,a2
    22bc:	fb944583          	lbu	a1,-71(s0)
    22c0:	fb844603          	lbu	a2,-72(s0)
    22c4:	fba44683          	lbu	a3,-70(s0)
    22c8:	fbb44703          	lbu	a4,-69(s0)
    22cc:	05a2                	sll	a1,a1,0x8
    22ce:	8dd1                	or	a1,a1,a2
    22d0:	06c2                	sll	a3,a3,0x10
    22d2:	0762                	sll	a4,a4,0x18
    22d4:	8ed9                	or	a3,a3,a4
    22d6:	8ecd                	or	a3,a3,a1
    22d8:	fbe44583          	lbu	a1,-66(s0)
    22dc:	fbf44603          	lbu	a2,-65(s0)
    22e0:	1682                	sll	a3,a3,0x20
    22e2:	8d55                	or	a0,a0,a3
    22e4:	faa43423          	sd	a0,-88(s0)
    22e8:	a82d                	j	2322 <.LBB214_14+0x1a>

00000000000022ea <.LBB214_11>:
    22ea:	4581                	li	a1,0
    22ec:	651d                	lui	a0,0x7
    22ee:	45c50513          	add	a0,a0,1116 # 745c <_ZN6kernel7console7CONSOLE17hf1f49ad43aab6abcE+0x1e7c>
    22f2:	a839                	j	2310 <.LBB214_14+0x8>

00000000000022f4 <.LBB214_12>:
    22f4:	4581                	li	a1,0
    22f6:	6509                	lui	a0,0x2
    22f8:	75c50513          	add	a0,a0,1884 # 275c <.Lpcrel_hi636+0xc>
    22fc:	a811                	j	2310 <.LBB214_14+0x8>

00000000000022fe <.LBB214_13>:
    22fe:	4581                	li	a1,0
    2300:	651d                	lui	a0,0x7
    2302:	e5c50513          	add	a0,a0,-420 # 6e5c <_ZN6kernel7console7CONSOLE17hf1f49ad43aab6abcE+0x187c>
    2306:	a029                	j	2310 <.LBB214_14+0x8>

0000000000002308 <.LBB214_14>:
    2308:	4581                	li	a1,0
    230a:	651d                	lui	a0,0x7
    230c:	25c50513          	add	a0,a0,604 # 725c <_ZN6kernel7console7CONSOLE17hf1f49ad43aab6abcE+0x1c7c>
    2310:	faa42423          	sw	a0,-88(s0)
    2314:	fa041823          	sh	zero,-80(s0)
    2318:	fa041723          	sh	zero,-82(s0)
    231c:	fa041623          	sh	zero,-84(s0)
    2320:	4609                	li	a2,2
    2322:	fa844503          	lbu	a0,-88(s0)
    2326:	fab40923          	sb	a1,-78(s0)
    232a:	08000693          	li	a3,128
    232e:	fac409a3          	sb	a2,-77(s0)
    2332:	02d51863          	bne	a0,a3,2362 <.LBB214_14+0x5a>
    2336:	fac42483          	lw	s1,-84(s0)
    233a:	854e                	mv	a0,s3
    233c:	85a6                	mv	a1,s1
    233e:	9a02                	jalr	s4
    2340:	e511                	bnez	a0,234c <.LBB214_14+0x44>
    2342:	02700593          	li	a1,39
    2346:	854e                	mv	a0,s3
    2348:	9a02                	jalr	s4
    234a:	892a                	mv	s2,a0
    234c:	854a                	mv	a0,s2
    234e:	60e6                	ld	ra,88(sp)
    2350:	6446                	ld	s0,80(sp)
    2352:	64a6                	ld	s1,72(sp)
    2354:	6906                	ld	s2,64(sp)
    2356:	79e2                	ld	s3,56(sp)
    2358:	7a42                	ld	s4,48(sp)
    235a:	7aa2                	ld	s5,40(sp)
    235c:	7b02                	ld	s6,32(sp)
    235e:	6125                	add	sp,sp,96
    2360:	8082                	ret
    2362:	018ab683          	ld	a3,24(s5)
    2366:	8e0d                	sub	a2,a2,a1
    2368:	fa840513          	add	a0,s0,-88
    236c:	95aa                	add	a1,a1,a0
    236e:	854e                	mv	a0,s3
    2370:	9682                	jalr	a3
    2372:	d961                	beqz	a0,2342 <.LBB214_14+0x3a>
    2374:	bfe1                	j	234c <.LBB214_14+0x44>

0000000000002376 <_ZN4core5slice5index26slice_start_index_len_fail17ha9a92be414eea063E>:
    2376:	7159                	add	sp,sp,-112
    2378:	f486                	sd	ra,104(sp)
    237a:	f0a2                	sd	s0,96(sp)
    237c:	1880                	add	s0,sp,112
    237e:	f8a43823          	sd	a0,-112(s0)
    2382:	f8b43c23          	sd	a1,-104(s0)
    2386:	f9040513          	add	a0,s0,-112
    238a:	fca43823          	sd	a0,-48(s0)

000000000000238e <.Lpcrel_hi573>:
    238e:	00001517          	auipc	a0,0x1
    2392:	bd450513          	add	a0,a0,-1068 # 2f62 <_ZN4core3fmt3num3imp52_$LT$impl$u20$core..fmt..Display$u20$for$u20$u64$GT$3fmt17hd54b8357f338ce60E>
    2396:	fca43c23          	sd	a0,-40(s0)
    239a:	f9840593          	add	a1,s0,-104
    239e:	feb43023          	sd	a1,-32(s0)
    23a2:	fea43423          	sd	a0,-24(s0)

00000000000023a6 <.Lpcrel_hi574>:
    23a6:	00002517          	auipc	a0,0x2
    23aa:	1e250513          	add	a0,a0,482 # 4588 <.Lanon.4be6c8c866b325639ca5cea174a3452e.341>
    23ae:	faa43023          	sd	a0,-96(s0)
    23b2:	4509                	li	a0,2
    23b4:	faa43423          	sd	a0,-88(s0)
    23b8:	fc043023          	sd	zero,-64(s0)
    23bc:	fd040593          	add	a1,s0,-48
    23c0:	fab43823          	sd	a1,-80(s0)
    23c4:	faa43c23          	sd	a0,-72(s0)
    23c8:	fa040513          	add	a0,s0,-96
    23cc:	85b2                	mv	a1,a2
    23ce:	fffff097          	auipc	ra,0xfffff
    23d2:	6c2080e7          	jalr	1730(ra) # 1a90 <_ZN4core9panicking9panic_fmt17ha2f0b11bdd777378E>

00000000000023d6 <_ZN4core5slice5index24slice_end_index_len_fail17had979da37fd5b595E>:
    23d6:	7159                	add	sp,sp,-112
    23d8:	f486                	sd	ra,104(sp)
    23da:	f0a2                	sd	s0,96(sp)
    23dc:	1880                	add	s0,sp,112
    23de:	f8a43823          	sd	a0,-112(s0)
    23e2:	f8b43c23          	sd	a1,-104(s0)
    23e6:	f9040513          	add	a0,s0,-112
    23ea:	fca43823          	sd	a0,-48(s0)

00000000000023ee <.Lpcrel_hi575>:
    23ee:	00001517          	auipc	a0,0x1
    23f2:	b7450513          	add	a0,a0,-1164 # 2f62 <_ZN4core3fmt3num3imp52_$LT$impl$u20$core..fmt..Display$u20$for$u20$u64$GT$3fmt17hd54b8357f338ce60E>
    23f6:	fca43c23          	sd	a0,-40(s0)
    23fa:	f9840593          	add	a1,s0,-104
    23fe:	feb43023          	sd	a1,-32(s0)
    2402:	fea43423          	sd	a0,-24(s0)

0000000000002406 <.Lpcrel_hi576>:
    2406:	00002517          	auipc	a0,0x2
    240a:	1a250513          	add	a0,a0,418 # 45a8 <.Lanon.4be6c8c866b325639ca5cea174a3452e.343>
    240e:	faa43023          	sd	a0,-96(s0)
    2412:	4509                	li	a0,2
    2414:	faa43423          	sd	a0,-88(s0)
    2418:	fc043023          	sd	zero,-64(s0)
    241c:	fd040593          	add	a1,s0,-48
    2420:	fab43823          	sd	a1,-80(s0)
    2424:	faa43c23          	sd	a0,-72(s0)
    2428:	fa040513          	add	a0,s0,-96
    242c:	85b2                	mv	a1,a2
    242e:	fffff097          	auipc	ra,0xfffff
    2432:	662080e7          	jalr	1634(ra) # 1a90 <_ZN4core9panicking9panic_fmt17ha2f0b11bdd777378E>

0000000000002436 <_ZN4core5slice5index22slice_index_order_fail17h6571b4fe48fbea9fE>:
    2436:	7159                	add	sp,sp,-112
    2438:	f486                	sd	ra,104(sp)
    243a:	f0a2                	sd	s0,96(sp)
    243c:	1880                	add	s0,sp,112
    243e:	f8a43823          	sd	a0,-112(s0)
    2442:	f8b43c23          	sd	a1,-104(s0)
    2446:	f9040513          	add	a0,s0,-112
    244a:	fca43823          	sd	a0,-48(s0)

000000000000244e <.Lpcrel_hi577>:
    244e:	00001517          	auipc	a0,0x1
    2452:	b1450513          	add	a0,a0,-1260 # 2f62 <_ZN4core3fmt3num3imp52_$LT$impl$u20$core..fmt..Display$u20$for$u20$u64$GT$3fmt17hd54b8357f338ce60E>
    2456:	fca43c23          	sd	a0,-40(s0)
    245a:	f9840593          	add	a1,s0,-104
    245e:	feb43023          	sd	a1,-32(s0)
    2462:	fea43423          	sd	a0,-24(s0)

0000000000002466 <.Lpcrel_hi578>:
    2466:	00002517          	auipc	a0,0x2
    246a:	18a50513          	add	a0,a0,394 # 45f0 <.Lanon.4be6c8c866b325639ca5cea174a3452e.346>
    246e:	faa43023          	sd	a0,-96(s0)
    2472:	4509                	li	a0,2
    2474:	faa43423          	sd	a0,-88(s0)
    2478:	fc043023          	sd	zero,-64(s0)
    247c:	fd040593          	add	a1,s0,-48
    2480:	fab43823          	sd	a1,-80(s0)
    2484:	faa43c23          	sd	a0,-72(s0)
    2488:	fa040513          	add	a0,s0,-96
    248c:	85b2                	mv	a1,a2
    248e:	fffff097          	auipc	ra,0xfffff
    2492:	602080e7          	jalr	1538(ra) # 1a90 <_ZN4core9panicking9panic_fmt17ha2f0b11bdd777378E>

0000000000002496 <_ZN4core3str5count14do_count_chars17hbdfa74771c0f7956E>:
    2496:	1141                	add	sp,sp,-16
    2498:	e406                	sd	ra,8(sp)
    249a:	e022                	sd	s0,0(sp)
    249c:	0800                	add	s0,sp,16
    249e:	862a                	mv	a2,a0
    24a0:	00750793          	add	a5,a0,7
    24a4:	9be1                	and	a5,a5,-8
    24a6:	40a786b3          	sub	a3,a5,a0
    24aa:	12d5e063          	bltu	a1,a3,25ca <_ZN4core3str5count14do_count_chars17hbdfa74771c0f7956E+0x134>
    24ae:	40d58733          	sub	a4,a1,a3
    24b2:	00375313          	srl	t1,a4,0x3
    24b6:	10030a63          	beqz	t1,25ca <_ZN4core3str5count14do_count_chars17hbdfa74771c0f7956E+0x134>
    24ba:	96b2                	add	a3,a3,a2
    24bc:	00777813          	and	a6,a4,7
    24c0:	4501                	li	a0,0
    24c2:	00c78c63          	beq	a5,a2,24da <_ZN4core3str5count14do_count_chars17hbdfa74771c0f7956E+0x44>
    24c6:	00060583          	lb	a1,0(a2)
    24ca:	fc05a593          	slti	a1,a1,-64
    24ce:	0015c593          	xor	a1,a1,1
    24d2:	0605                	add	a2,a2,1
    24d4:	952e                	add	a0,a0,a1
    24d6:	fed618e3          	bne	a2,a3,24c6 <_ZN4core3str5count14do_count_chars17hbdfa74771c0f7956E+0x30>
    24da:	4601                	li	a2,0
    24dc:	02080163          	beqz	a6,24fe <_ZN4core3str5count14do_count_chars17hbdfa74771c0f7956E+0x68>
    24e0:	9b61                	and	a4,a4,-8
    24e2:	00f705b3          	add	a1,a4,a5
    24e6:	9736                	add	a4,a4,a3
    24e8:	95c2                	add	a1,a1,a6
    24ea:	00070783          	lb	a5,0(a4)
    24ee:	fc07a793          	slti	a5,a5,-64
    24f2:	0017c793          	xor	a5,a5,1
    24f6:	0705                	add	a4,a4,1
    24f8:	963e                	add	a2,a2,a5
    24fa:	feb718e3          	bne	a4,a1,24ea <_ZN4core3str5count14do_count_chars17hbdfa74771c0f7956E+0x54>
    24fe:	010105b7          	lui	a1,0x1010
    2502:	1015859b          	addw	a1,a1,257 # 1010101 <end+0xff20fd>
    2506:	02059713          	sll	a4,a1,0x20
    250a:	00e58fb3          	add	t6,a1,a4
    250e:	00ff0737          	lui	a4,0xff0
    2512:	0ff7089b          	addw	a7,a4,255 # ff00ff <end+0xfd20fb>
    2516:	02089713          	sll	a4,a7,0x20
    251a:	98ba                	add	a7,a7,a4
    251c:	6741                	lui	a4,0x10
    251e:	2705                	addw	a4,a4,1 # 10001 <_ZN6kernel7console7CONSOLE17hf1f49ad43aab6abcE+0xaa21>
    2520:	02071813          	sll	a6,a4,0x20
    2524:	983a                	add	a6,a6,a4
    2526:	9532                	add	a0,a0,a2
    2528:	4291                	li	t0,4
    252a:	a015                	j	254e <_ZN4core3str5count14do_count_chars17hbdfa74771c0f7956E+0xb8>
    252c:	006e06b3          	add	a3,t3,t1
    2530:	407e8333          	sub	t1,t4,t2
    2534:	0033f593          	and	a1,t2,3
    2538:	0117f633          	and	a2,a5,a7
    253c:	83a1                	srl	a5,a5,0x8
    253e:	0117f733          	and	a4,a5,a7
    2542:	963a                	add	a2,a2,a4
    2544:	03060633          	mul	a2,a2,a6
    2548:	9241                	srl	a2,a2,0x30
    254a:	9532                	add	a0,a0,a2
    254c:	e1c5                	bnez	a1,25ec <_ZN4core3str5count14do_count_chars17hbdfa74771c0f7956E+0x156>
    254e:	08030b63          	beqz	t1,25e4 <_ZN4core3str5count14do_count_chars17hbdfa74771c0f7956E+0x14e>
    2552:	8e9a                	mv	t4,t1
    2554:	8e36                	mv	t3,a3
    2556:	0c000613          	li	a2,192
    255a:	839a                	mv	t2,t1
    255c:	00c36463          	bltu	t1,a2,2564 <_ZN4core3str5count14do_count_chars17hbdfa74771c0f7956E+0xce>
    2560:	0c000393          	li	t2,192
    2564:	00339313          	sll	t1,t2,0x3
    2568:	4781                	li	a5,0
    256a:	fc5ee1e3          	bltu	t4,t0,252c <_ZN4core3str5count14do_count_chars17hbdfa74771c0f7956E+0x96>
    256e:	7e037613          	and	a2,t1,2016
    2572:	00ce0f33          	add	t5,t3,a2
    2576:	86f2                	mv	a3,t3
    2578:	6298                	ld	a4,0(a3)
    257a:	fff74613          	not	a2,a4
    257e:	821d                	srl	a2,a2,0x7
    2580:	8319                	srl	a4,a4,0x6
    2582:	668c                	ld	a1,8(a3)
    2584:	8e59                	or	a2,a2,a4
    2586:	01f67633          	and	a2,a2,t6
    258a:	963e                	add	a2,a2,a5
    258c:	fff5c713          	not	a4,a1
    2590:	831d                	srl	a4,a4,0x7
    2592:	6a9c                	ld	a5,16(a3)
    2594:	8199                	srl	a1,a1,0x6
    2596:	8dd9                	or	a1,a1,a4
    2598:	01f5f5b3          	and	a1,a1,t6
    259c:	fff7c713          	not	a4,a5
    25a0:	831d                	srl	a4,a4,0x7
    25a2:	8399                	srl	a5,a5,0x6
    25a4:	8f5d                	or	a4,a4,a5
    25a6:	6e9c                	ld	a5,24(a3)
    25a8:	01f77733          	and	a4,a4,t6
    25ac:	95ba                	add	a1,a1,a4
    25ae:	95b2                	add	a1,a1,a2
    25b0:	fff7c613          	not	a2,a5
    25b4:	821d                	srl	a2,a2,0x7
    25b6:	8399                	srl	a5,a5,0x6
    25b8:	8e5d                	or	a2,a2,a5
    25ba:	01f677b3          	and	a5,a2,t6
    25be:	02068693          	add	a3,a3,32
    25c2:	97ae                	add	a5,a5,a1
    25c4:	fbe69ae3          	bne	a3,t5,2578 <_ZN4core3str5count14do_count_chars17hbdfa74771c0f7956E+0xe2>
    25c8:	b795                	j	252c <_ZN4core3str5count14do_count_chars17hbdfa74771c0f7956E+0x96>
    25ca:	4501                	li	a0,0
    25cc:	cd81                	beqz	a1,25e4 <_ZN4core3str5count14do_count_chars17hbdfa74771c0f7956E+0x14e>
    25ce:	95b2                	add	a1,a1,a2
    25d0:	00060683          	lb	a3,0(a2)
    25d4:	fc06a693          	slti	a3,a3,-64
    25d8:	0016c693          	xor	a3,a3,1
    25dc:	0605                	add	a2,a2,1
    25de:	9536                	add	a0,a0,a3
    25e0:	feb618e3          	bne	a2,a1,25d0 <_ZN4core3str5count14do_count_chars17hbdfa74771c0f7956E+0x13a>
    25e4:	60a2                	ld	ra,8(sp)
    25e6:	6402                	ld	s0,0(sp)
    25e8:	0141                	add	sp,sp,16
    25ea:	8082                	ret
    25ec:	4601                	li	a2,0
    25ee:	0fc3f593          	and	a1,t2,252
    25f2:	058e                	sll	a1,a1,0x3
    25f4:	9e2e                	add	t3,t3,a1
    25f6:	0c0eb593          	sltiu	a1,t4,192
    25fa:	40b005bb          	negw	a1,a1
    25fe:	00bef5b3          	and	a1,t4,a1
    2602:	898d                	and	a1,a1,3
    2604:	00359693          	sll	a3,a1,0x3
    2608:	000e3583          	ld	a1,0(t3)
    260c:	0e21                	add	t3,t3,8
    260e:	fff5c713          	not	a4,a1
    2612:	831d                	srl	a4,a4,0x7
    2614:	8199                	srl	a1,a1,0x6
    2616:	8dd9                	or	a1,a1,a4
    2618:	01f5f5b3          	and	a1,a1,t6
    261c:	16e1                	add	a3,a3,-8
    261e:	962e                	add	a2,a2,a1
    2620:	f6e5                	bnez	a3,2608 <_ZN4core3str5count14do_count_chars17hbdfa74771c0f7956E+0x172>
    2622:	011675b3          	and	a1,a2,a7
    2626:	8221                	srl	a2,a2,0x8
    2628:	01167633          	and	a2,a2,a7
    262c:	95b2                	add	a1,a1,a2
    262e:	030585b3          	mul	a1,a1,a6
    2632:	91c1                	srl	a1,a1,0x30
    2634:	952e                	add	a0,a0,a1
    2636:	60a2                	ld	ra,8(sp)
    2638:	6402                	ld	s0,0(sp)
    263a:	0141                	add	sp,sp,16
    263c:	8082                	ret

000000000000263e <_ZN4core3str16slice_error_fail17hd4ffbf48a66c80baE>:
    263e:	1141                	add	sp,sp,-16
    2640:	e406                	sd	ra,8(sp)
    2642:	e022                	sd	s0,0(sp)
    2644:	0800                	add	s0,sp,16
    2646:	00000097          	auipc	ra,0x0
    264a:	008080e7          	jalr	8(ra) # 264e <_ZN4core3str19slice_error_fail_rt17h039b9d141afb348cE>

000000000000264e <_ZN4core3str19slice_error_fail_rt17h039b9d141afb348cE>:
    264e:	7115                	add	sp,sp,-224
    2650:	ed86                	sd	ra,216(sp)
    2652:	e9a2                	sd	s0,208(sp)
    2654:	1180                	add	s0,sp,224
    2656:	f2c43023          	sd	a2,-224(s0)
    265a:	10100793          	li	a5,257
    265e:	f2d43423          	sd	a3,-216(s0)
    2662:	04f5ec63          	bltu	a1,a5,26ba <.Lpcrel_hi625+0x16>
    2666:	10050883          	lb	a7,256(a0)
    266a:	fbf00813          	li	a6,-65
    266e:	478d                	li	a5,3
    2670:	01184d63          	blt	a6,a7,268a <_ZN4core3str19slice_error_fail_rt17h039b9d141afb348cE+0x3c>
    2674:	0ff50883          	lb	a7,255(a0)
    2678:	4789                	li	a5,2
    267a:	01184863          	blt	a6,a7,268a <_ZN4core3str19slice_error_fail_rt17h039b9d141afb348cE+0x3c>
    267e:	0fe50783          	lb	a5,254(a0)
    2682:	fc07a793          	slti	a5,a5,-64
    2686:	0017c793          	xor	a5,a5,1
    268a:	0fd78893          	add	a7,a5,253
    268e:	011507b3          	add	a5,a0,a7
    2692:	00078783          	lb	a5,0(a5)
    2696:	10f85163          	bge	a6,a5,2798 <.Lpcrel_hi637+0x30>
    269a:	f2a43823          	sd	a0,-208(s0)
    269e:	f3143c23          	sd	a7,-200(s0)
    26a2:	4815                	li	a6,5

00000000000026a4 <.Lpcrel_hi625>:
    26a4:	00002797          	auipc	a5,0x2
    26a8:	f6c78793          	add	a5,a5,-148 # 4610 <.Lanon.4be6c8c866b325639ca5cea174a3452e.385>
    26ac:	f4f43023          	sd	a5,-192(s0)
    26b0:	f5043423          	sd	a6,-184(s0)
    26b4:	00c5ff63          	bgeu	a1,a2,26d2 <.Lpcrel_hi625+0x2e>
    26b8:	a88d                	j	272a <.Lpcrel_hi628+0x10>
    26ba:	4801                	li	a6,0
    26bc:	f2a43823          	sd	a0,-208(s0)
    26c0:	f2b43c23          	sd	a1,-200(s0)
    26c4:	4785                	li	a5,1
    26c6:	f4f43023          	sd	a5,-192(s0)
    26ca:	f4043423          	sd	zero,-184(s0)
    26ce:	04c5ee63          	bltu	a1,a2,272a <.Lpcrel_hi628+0x10>
    26d2:	04d5ec63          	bltu	a1,a3,272a <.Lpcrel_hi628+0x10>
    26d6:	0cc6f763          	bgeu	a3,a2,27a4 <.Lpcrel_hi637+0x3c>
    26da:	f2040513          	add	a0,s0,-224
    26de:	faa43023          	sd	a0,-96(s0)

00000000000026e2 <.Lpcrel_hi626>:
    26e2:	00001517          	auipc	a0,0x1
    26e6:	88050513          	add	a0,a0,-1920 # 2f62 <_ZN4core3fmt3num3imp52_$LT$impl$u20$core..fmt..Display$u20$for$u20$u64$GT$3fmt17hd54b8357f338ce60E>
    26ea:	faa43423          	sd	a0,-88(s0)
    26ee:	f2840593          	add	a1,s0,-216
    26f2:	fab43823          	sd	a1,-80(s0)
    26f6:	faa43c23          	sd	a0,-72(s0)
    26fa:	f3040513          	add	a0,s0,-208
    26fe:	fca43023          	sd	a0,-64(s0)

0000000000002702 <.Lpcrel_hi627>:
    2702:	00001517          	auipc	a0,0x1
    2706:	89250513          	add	a0,a0,-1902 # 2f94 <_ZN44_$LT$$RF$T$u20$as$u20$core..fmt..Display$GT$3fmt17h0e07db1b220f6d18E>
    270a:	fca43423          	sd	a0,-56(s0)
    270e:	f4040593          	add	a1,s0,-192
    2712:	fcb43823          	sd	a1,-48(s0)
    2716:	fca43c23          	sd	a0,-40(s0)

000000000000271a <.Lpcrel_hi628>:
    271a:	00002517          	auipc	a0,0x2
    271e:	f0e50513          	add	a0,a0,-242 # 4628 <.Lanon.4be6c8c866b325639ca5cea174a3452e.390>
    2722:	f6a43823          	sd	a0,-144(s0)
    2726:	4511                	li	a0,4
    2728:	a0b9                	j	2776 <.Lpcrel_hi637+0xe>
    272a:	00c5e363          	bltu	a1,a2,2730 <.Lpcrel_hi628+0x16>
    272e:	8636                	mv	a2,a3
    2730:	f6c43023          	sd	a2,-160(s0)
    2734:	f6040513          	add	a0,s0,-160
    2738:	faa43023          	sd	a0,-96(s0)

000000000000273c <.Lpcrel_hi635>:
    273c:	00001517          	auipc	a0,0x1
    2740:	82650513          	add	a0,a0,-2010 # 2f62 <_ZN4core3fmt3num3imp52_$LT$impl$u20$core..fmt..Display$u20$for$u20$u64$GT$3fmt17hd54b8357f338ce60E>
    2744:	faa43423          	sd	a0,-88(s0)
    2748:	f3040513          	add	a0,s0,-208
    274c:	faa43823          	sd	a0,-80(s0)

0000000000002750 <.Lpcrel_hi636>:
    2750:	00001517          	auipc	a0,0x1
    2754:	84450513          	add	a0,a0,-1980 # 2f94 <_ZN44_$LT$$RF$T$u20$as$u20$core..fmt..Display$GT$3fmt17h0e07db1b220f6d18E>
    2758:	faa43c23          	sd	a0,-72(s0)
    275c:	f4040593          	add	a1,s0,-192
    2760:	fcb43023          	sd	a1,-64(s0)
    2764:	fca43423          	sd	a0,-56(s0)

0000000000002768 <.Lpcrel_hi637>:
    2768:	00002517          	auipc	a0,0x2
    276c:	fa050513          	add	a0,a0,-96 # 4708 <.Lanon.4be6c8c866b325639ca5cea174a3452e.397>
    2770:	f6a43823          	sd	a0,-144(s0)
    2774:	450d                	li	a0,3
    2776:	f6a43c23          	sd	a0,-136(s0)
    277a:	f8043823          	sd	zero,-112(s0)
    277e:	fa040593          	add	a1,s0,-96
    2782:	f8b43023          	sd	a1,-128(s0)
    2786:	f8a43423          	sd	a0,-120(s0)
    278a:	f7040513          	add	a0,s0,-144
    278e:	85ba                	mv	a1,a4
    2790:	fffff097          	auipc	ra,0xfffff
    2794:	300080e7          	jalr	768(ra) # 1a90 <_ZN4core9panicking9panic_fmt17ha2f0b11bdd777378E>
    2798:	4601                	li	a2,0
    279a:	86c6                	mv	a3,a7
    279c:	00000097          	auipc	ra,0x0
    27a0:	ea2080e7          	jalr	-350(ra) # 263e <_ZN4core3str16slice_error_fail17hd4ffbf48a66c80baE>
    27a4:	ce19                	beqz	a2,27c2 <.Lpcrel_hi637+0x5a>
    27a6:	00b67e63          	bgeu	a2,a1,27c2 <.Lpcrel_hi637+0x5a>
    27aa:	962a                	add	a2,a2,a0
    27ac:	00060683          	lb	a3,0(a2)
    27b0:	fbf00793          	li	a5,-65
    27b4:	f2840613          	add	a2,s0,-216
    27b8:	00d7c463          	blt	a5,a3,27c0 <.Lpcrel_hi637+0x58>
    27bc:	f2040613          	add	a2,s0,-224
    27c0:	6214                	ld	a3,0(a2)
    27c2:	f4d43823          	sd	a3,-176(s0)
    27c6:	862e                	mv	a2,a1
    27c8:	04b6f763          	bgeu	a3,a1,2816 <.Lpcrel_hi629+0x34>
    27cc:	ffd68613          	add	a2,a3,-3
    27d0:	00c6b7b3          	sltu	a5,a3,a2
    27d4:	17fd                	add	a5,a5,-1
    27d6:	00c7f833          	and	a6,a5,a2
    27da:	00168793          	add	a5,a3,1
    27de:	0107fc63          	bgeu	a5,a6,27f6 <.Lpcrel_hi629+0x14>

00000000000027e2 <.Lpcrel_hi629>:
    27e2:	00002517          	auipc	a0,0x2
    27e6:	f7650613          	add	a2,a0,-138 # 4758 <.Lanon.4be6c8c866b325639ca5cea174a3452e.399>
    27ea:	8542                	mv	a0,a6
    27ec:	85be                	mv	a1,a5
    27ee:	00000097          	auipc	ra,0x0
    27f2:	c48080e7          	jalr	-952(ra) # 2436 <_ZN4core5slice5index22slice_index_order_fail17h6571b4fe48fbea9fE>
    27f6:	01050633          	add	a2,a0,a6
    27fa:	97aa                	add	a5,a5,a0
    27fc:	40c78633          	sub	a2,a5,a2
    2800:	96aa                	add	a3,a3,a0
    2802:	fc000893          	li	a7,-64
    2806:	c619                	beqz	a2,2814 <.Lpcrel_hi629+0x32>
    2808:	00068783          	lb	a5,0(a3)
    280c:	167d                	add	a2,a2,-1
    280e:	16fd                	add	a3,a3,-1
    2810:	ff17cbe3          	blt	a5,a7,2806 <.Lpcrel_hi629+0x24>
    2814:	9642                	add	a2,a2,a6
    2816:	00c506b3          	add	a3,a0,a2
    281a:	ea01                	bnez	a2,282a <.Lpcrel_hi629+0x48>
    281c:	02b61063          	bne	a2,a1,283c <.Lpcrel_hi629+0x5a>
    2820:	853a                	mv	a0,a4
    2822:	fffff097          	auipc	ra,0xfffff
    2826:	150080e7          	jalr	336(ra) # 1972 <_ZN4core6option13unwrap_failed17h6835b83430de06b2E>
    282a:	02b67363          	bgeu	a2,a1,2850 <.Lpcrel_hi629+0x6e>
    282e:	00068803          	lb	a6,0(a3)
    2832:	fbf00793          	li	a5,-65
    2836:	ff07c3e3          	blt	a5,a6,281c <.Lpcrel_hi629+0x3a>
    283a:	a829                	j	2854 <.Lpcrel_hi629+0x72>
    283c:	00068583          	lb	a1,0(a3)
    2840:	0ff5f513          	zext.b	a0,a1
    2844:	0005cd63          	bltz	a1,285e <.Lpcrel_hi629+0x7c>
    2848:	f4a42e23          	sw	a0,-164(s0)
    284c:	4585                	li	a1,1
    284e:	a8b5                	j	28ca <.Lpcrel_hi629+0xe8>
    2850:	fcb606e3          	beq	a2,a1,281c <.Lpcrel_hi629+0x3a>
    2854:	86ae                	mv	a3,a1
    2856:	00000097          	auipc	ra,0x0
    285a:	de8080e7          	jalr	-536(ra) # 263e <_ZN4core3str16slice_error_fail17hd4ffbf48a66c80baE>
    285e:	0016c783          	lbu	a5,1(a3)
    2862:	01f57593          	and	a1,a0,31
    2866:	0df00813          	li	a6,223
    286a:	03f7f793          	and	a5,a5,63
    286e:	02a87863          	bgeu	a6,a0,289e <.Lpcrel_hi629+0xbc>
    2872:	0026c803          	lbu	a6,2(a3)
    2876:	00679893          	sll	a7,a5,0x6
    287a:	03f87793          	and	a5,a6,63
    287e:	0f000813          	li	a6,240
    2882:	00f8e7b3          	or	a5,a7,a5
    2886:	03056063          	bltu	a0,a6,28a6 <.Lpcrel_hi629+0xc4>
    288a:	0036c503          	lbu	a0,3(a3)
    288e:	15f6                	sll	a1,a1,0x3d
    2890:	91ad                	srl	a1,a1,0x2b
    2892:	079a                	sll	a5,a5,0x6
    2894:	03f57513          	and	a0,a0,63
    2898:	8d5d                	or	a0,a0,a5
    289a:	8d4d                	or	a0,a0,a1
    289c:	a801                	j	28ac <.Lpcrel_hi629+0xca>
    289e:	00659513          	sll	a0,a1,0x6
    28a2:	8d5d                	or	a0,a0,a5
    28a4:	a021                	j	28ac <.Lpcrel_hi629+0xca>
    28a6:	00c59513          	sll	a0,a1,0xc
    28aa:	8d5d                	or	a0,a0,a5
    28ac:	f4a42e23          	sw	a0,-164(s0)
    28b0:	08000693          	li	a3,128
    28b4:	4585                	li	a1,1
    28b6:	00d56a63          	bltu	a0,a3,28ca <.Lpcrel_hi629+0xe8>
    28ba:	00b55693          	srl	a3,a0,0xb
    28be:	4589                	li	a1,2
    28c0:	c689                	beqz	a3,28ca <.Lpcrel_hi629+0xe8>
    28c2:	8141                	srl	a0,a0,0x10
    28c4:	00a035b3          	snez	a1,a0
    28c8:	058d                	add	a1,a1,3
    28ca:	95b2                	add	a1,a1,a2
    28cc:	f6c43023          	sd	a2,-160(s0)
    28d0:	f6b43423          	sd	a1,-152(s0)
    28d4:	f5040513          	add	a0,s0,-176
    28d8:	faa43023          	sd	a0,-96(s0)

00000000000028dc <.Lpcrel_hi630>:
    28dc:	00000517          	auipc	a0,0x0
    28e0:	68650513          	add	a0,a0,1670 # 2f62 <_ZN4core3fmt3num3imp52_$LT$impl$u20$core..fmt..Display$u20$for$u20$u64$GT$3fmt17hd54b8357f338ce60E>
    28e4:	faa43423          	sd	a0,-88(s0)
    28e8:	f5c40513          	add	a0,s0,-164
    28ec:	faa43823          	sd	a0,-80(s0)

00000000000028f0 <.Lpcrel_hi631>:
    28f0:	00000517          	auipc	a0,0x0
    28f4:	8fc50513          	add	a0,a0,-1796 # 21ec <_ZN41_$LT$char$u20$as$u20$core..fmt..Debug$GT$3fmt17h28d79ddde3836a6dE>
    28f8:	faa43c23          	sd	a0,-72(s0)
    28fc:	f6040513          	add	a0,s0,-160
    2900:	fca43023          	sd	a0,-64(s0)

0000000000002904 <.Lpcrel_hi632>:
    2904:	fffff517          	auipc	a0,0xfffff
    2908:	ffc50513          	add	a0,a0,-4 # 1900 <_ZN71_$LT$core..ops..range..Range$LT$Idx$GT$$u20$as$u20$core..fmt..Debug$GT$3fmt17hbbfaa22d4d4d486cE>
    290c:	fca43423          	sd	a0,-56(s0)
    2910:	f3040513          	add	a0,s0,-208
    2914:	fca43823          	sd	a0,-48(s0)

0000000000002918 <.Lpcrel_hi633>:
    2918:	00000517          	auipc	a0,0x0
    291c:	67c50513          	add	a0,a0,1660 # 2f94 <_ZN44_$LT$$RF$T$u20$as$u20$core..fmt..Display$GT$3fmt17h0e07db1b220f6d18E>
    2920:	fca43c23          	sd	a0,-40(s0)
    2924:	f4040593          	add	a1,s0,-192
    2928:	feb43023          	sd	a1,-32(s0)
    292c:	fea43423          	sd	a0,-24(s0)

0000000000002930 <.Lpcrel_hi634>:
    2930:	00002517          	auipc	a0,0x2
    2934:	d7050513          	add	a0,a0,-656 # 46a0 <.Lanon.4be6c8c866b325639ca5cea174a3452e.395>
    2938:	f6a43823          	sd	a0,-144(s0)
    293c:	4515                	li	a0,5
    293e:	bd25                	j	2776 <.Lpcrel_hi637+0xe>

0000000000002940 <_ZN4core7unicode9printable5check17hbcf5c62690a8a093E>:
    2940:	1141                	add	sp,sp,-16
    2942:	e406                	sd	ra,8(sp)
    2944:	e022                	sd	s0,0(sp)
    2946:	0800                	add	s0,sp,16
    2948:	03051293          	sll	t0,a0,0x30
    294c:	c629                	beqz	a2,2996 <_ZN4core7unicode9printable5check17hbcf5c62690a8a093E+0x56>
    294e:	88aa                	mv	a7,a0
    2950:	4501                	li	a0,0
    2952:	0382d313          	srl	t1,t0,0x38
    2956:	0606                	sll	a2,a2,0x1
    2958:	00c583b3          	add	t2,a1,a2
    295c:	0ff8fe13          	zext.b	t3,a7
    2960:	0005ce83          	lbu	t4,0(a1)
    2964:	0015c603          	lbu	a2,1(a1)
    2968:	0589                	add	a1,a1,2
    296a:	00c508b3          	add	a7,a0,a2
    296e:	006e9f63          	bne	t4,t1,298c <_ZN4core7unicode9printable5check17hbcf5c62690a8a093E+0x4c>
    2972:	08a8e663          	bltu	a7,a0,29fe <.Lpcrel_hi660>
    2976:	09176d63          	bltu	a4,a7,2a10 <.Lpcrel_hi661>
    297a:	9536                	add	a0,a0,a3
    297c:	ca11                	beqz	a2,2990 <_ZN4core7unicode9printable5check17hbcf5c62690a8a093E+0x50>
    297e:	00054e83          	lbu	t4,0(a0)
    2982:	0505                	add	a0,a0,1
    2984:	167d                	add	a2,a2,-1
    2986:	ffce9be3          	bne	t4,t3,297c <_ZN4core7unicode9printable5check17hbcf5c62690a8a093E+0x3c>
    298a:	a891                	j	29de <_ZN4core7unicode9printable5check17hbcf5c62690a8a093E+0x9e>
    298c:	01d36563          	bltu	t1,t4,2996 <_ZN4core7unicode9printable5check17hbcf5c62690a8a093E+0x56>
    2990:	8546                	mv	a0,a7
    2992:	fc7597e3          	bne	a1,t2,2960 <_ZN4core7unicode9printable5check17hbcf5c62690a8a093E+0x20>
    2996:	04080663          	beqz	a6,29e2 <_ZN4core7unicode9printable5check17hbcf5c62690a8a093E+0xa2>
    299a:	983e                	add	a6,a6,a5
    299c:	0302d593          	srl	a1,t0,0x30
    29a0:	4505                	li	a0,1
    29a2:	00078603          	lb	a2,0(a5)
    29a6:	00178693          	add	a3,a5,1
    29aa:	00064963          	bltz	a2,29bc <_ZN4core7unicode9printable5check17hbcf5c62690a8a093E+0x7c>
    29ae:	0ff67613          	zext.b	a2,a2
    29b2:	87b6                	mv	a5,a3
    29b4:	9d91                	subw	a1,a1,a2
    29b6:	0005df63          	bgez	a1,29d4 <_ZN4core7unicode9printable5check17hbcf5c62690a8a093E+0x94>
    29ba:	a02d                	j	29e4 <_ZN4core7unicode9printable5check17hbcf5c62690a8a093E+0xa4>
    29bc:	03068963          	beq	a3,a6,29ee <.Lpcrel_hi662>
    29c0:	0017c683          	lbu	a3,1(a5)
    29c4:	0789                	add	a5,a5,2
    29c6:	07f67613          	and	a2,a2,127
    29ca:	0622                	sll	a2,a2,0x8
    29cc:	8e55                	or	a2,a2,a3
    29ce:	9d91                	subw	a1,a1,a2
    29d0:	0005ca63          	bltz	a1,29e4 <_ZN4core7unicode9printable5check17hbcf5c62690a8a093E+0xa4>
    29d4:	00154513          	xor	a0,a0,1
    29d8:	fd0795e3          	bne	a5,a6,29a2 <_ZN4core7unicode9printable5check17hbcf5c62690a8a093E+0x62>
    29dc:	a021                	j	29e4 <_ZN4core7unicode9printable5check17hbcf5c62690a8a093E+0xa4>
    29de:	4501                	li	a0,0
    29e0:	a011                	j	29e4 <_ZN4core7unicode9printable5check17hbcf5c62690a8a093E+0xa4>
    29e2:	4505                	li	a0,1
    29e4:	8905                	and	a0,a0,1
    29e6:	60a2                	ld	ra,8(sp)
    29e8:	6402                	ld	s0,0(sp)
    29ea:	0141                	add	sp,sp,16
    29ec:	8082                	ret

00000000000029ee <.Lpcrel_hi662>:
    29ee:	00002517          	auipc	a0,0x2
    29f2:	daa50513          	add	a0,a0,-598 # 4798 <.Lanon.4be6c8c866b325639ca5cea174a3452e.415>
    29f6:	fffff097          	auipc	ra,0xfffff
    29fa:	f7c080e7          	jalr	-132(ra) # 1972 <_ZN4core6option13unwrap_failed17h6835b83430de06b2E>

00000000000029fe <.Lpcrel_hi660>:
    29fe:	00002597          	auipc	a1,0x2
    2a02:	db258613          	add	a2,a1,-590 # 47b0 <.Lanon.4be6c8c866b325639ca5cea174a3452e.416>
    2a06:	85c6                	mv	a1,a7
    2a08:	00000097          	auipc	ra,0x0
    2a0c:	a2e080e7          	jalr	-1490(ra) # 2436 <_ZN4core5slice5index22slice_index_order_fail17h6571b4fe48fbea9fE>

0000000000002a10 <.Lpcrel_hi661>:
    2a10:	00002517          	auipc	a0,0x2
    2a14:	da050613          	add	a2,a0,-608 # 47b0 <.Lanon.4be6c8c866b325639ca5cea174a3452e.416>
    2a18:	8546                	mv	a0,a7
    2a1a:	85ba                	mv	a1,a4
    2a1c:	00000097          	auipc	ra,0x0
    2a20:	9ba080e7          	jalr	-1606(ra) # 23d6 <_ZN4core5slice5index24slice_end_index_len_fail17had979da37fd5b595E>

0000000000002a24 <_ZN4core7unicode9printable12is_printable17h9a68603bbae84b1fE>:
    2a24:	1141                	add	sp,sp,-16
    2a26:	e406                	sd	ra,8(sp)
    2a28:	e022                	sd	s0,0(sp)
    2a2a:	0800                	add	s0,sp,16
    2a2c:	0005061b          	sext.w	a2,a0
    2a30:	02000593          	li	a1,32
    2a34:	00b67463          	bgeu	a2,a1,2a3c <_ZN4core7unicode9printable12is_printable17h9a68603bbae84b1fE+0x18>
    2a38:	4581                	li	a1,0
    2a3a:	a031                	j	2a46 <_ZN4core7unicode9printable12is_printable17h9a68603bbae84b1fE+0x22>
    2a3c:	07f00693          	li	a3,127
    2a40:	4585                	li	a1,1
    2a42:	00d67763          	bgeu	a2,a3,2a50 <_ZN4core7unicode9printable12is_printable17h9a68603bbae84b1fE+0x2c>
    2a46:	852e                	mv	a0,a1
    2a48:	60a2                	ld	ra,8(sp)
    2a4a:	6402                	ld	s0,0(sp)
    2a4c:	0141                	add	sp,sp,16
    2a4e:	8082                	ret
    2a50:	0105559b          	srlw	a1,a0,0x10
    2a54:	e995                	bnez	a1,2a88 <.Lpcrel_hi665+0x22>

0000000000002a56 <.Lpcrel_hi663>:
    2a56:	00002597          	auipc	a1,0x2
    2a5a:	05058593          	add	a1,a1,80 # 4aa6 <.Lanon.4be6c8c866b325639ca5cea174a3452e.420>

0000000000002a5e <.Lpcrel_hi664>:
    2a5e:	00002617          	auipc	a2,0x2
    2a62:	09860693          	add	a3,a2,152 # 4af6 <.Lanon.4be6c8c866b325639ca5cea174a3452e.421>

0000000000002a66 <.Lpcrel_hi665>:
    2a66:	00002617          	auipc	a2,0x2
    2a6a:	1b060793          	add	a5,a2,432 # 4c16 <.Lanon.4be6c8c866b325639ca5cea174a3452e.422>
    2a6e:	02800613          	li	a2,40
    2a72:	12000713          	li	a4,288
    2a76:	12d00813          	li	a6,301
    2a7a:	60a2                	ld	ra,8(sp)
    2a7c:	6402                	ld	s0,0(sp)
    2a7e:	0141                	add	sp,sp,16
    2a80:	00000317          	auipc	t1,0x0
    2a84:	ec030067          	jr	-320(t1) # 2940 <_ZN4core7unicode9printable5check17hbcf5c62690a8a093E>
    2a88:	0115559b          	srlw	a1,a0,0x11
    2a8c:	e995                	bnez	a1,2ac0 <.Lpcrel_hi668+0x22>

0000000000002a8e <.Lpcrel_hi666>:
    2a8e:	00002597          	auipc	a1,0x2
    2a92:	d3a58593          	add	a1,a1,-710 # 47c8 <.Lanon.4be6c8c866b325639ca5cea174a3452e.417>

0000000000002a96 <.Lpcrel_hi667>:
    2a96:	00002617          	auipc	a2,0x2
    2a9a:	d8a60693          	add	a3,a2,-630 # 4820 <.Lanon.4be6c8c866b325639ca5cea174a3452e.418>

0000000000002a9e <.Lpcrel_hi668>:
    2a9e:	00002617          	auipc	a2,0x2
    2aa2:	e4660793          	add	a5,a2,-442 # 48e4 <.Lanon.4be6c8c866b325639ca5cea174a3452e.419>
    2aa6:	02c00613          	li	a2,44
    2aaa:	0c400713          	li	a4,196
    2aae:	1c200813          	li	a6,450
    2ab2:	60a2                	ld	ra,8(sp)
    2ab4:	6402                	ld	s0,0(sp)
    2ab6:	0141                	add	sp,sp,16
    2ab8:	00000317          	auipc	t1,0x0
    2abc:	e8830067          	jr	-376(t1) # 2940 <_ZN4core7unicode9printable5check17hbcf5c62690a8a093E>
    2ac0:	fffce5b7          	lui	a1,0xfffce
    2ac4:	c5058593          	add	a1,a1,-944 # fffffffffffcdc50 <end+0xfffffffffffafc4c>
    2ac8:	00b5063b          	addw	a2,a0,a1
    2acc:	000ae5b7          	lui	a1,0xae
    2ad0:	d505869b          	addw	a3,a1,-688 # add50 <end+0x8fd4c>
    2ad4:	4581                	li	a1,0
    2ad6:	f6d668e3          	bltu	a2,a3,2a46 <_ZN4core7unicode9printable12is_printable17h9a68603bbae84b1fE+0x22>
    2ada:	fffcf637          	lui	a2,0xfffcf
    2ade:	cb560613          	add	a2,a2,-843 # fffffffffffcecb5 <end+0xfffffffffffb0cb1>
    2ae2:	9e29                	addw	a2,a2,a0
    2ae4:	4695                	li	a3,5
    2ae6:	f6d660e3          	bltu	a2,a3,2a46 <_ZN4core7unicode9printable12is_printable17h9a68603bbae84b1fE+0x22>
    2aea:	fffd0637          	lui	a2,0xfffd0
    2aee:	5e260613          	add	a2,a2,1506 # fffffffffffd05e2 <end+0xfffffffffffb25de>
    2af2:	9e29                	addw	a2,a2,a0
    2af4:	5e200693          	li	a3,1506
    2af8:	f4d667e3          	bltu	a2,a3,2a46 <_ZN4core7unicode9printable12is_printable17h9a68603bbae84b1fE+0x22>
    2afc:	fffd1637          	lui	a2,0xfffd1
    2b00:	1a260613          	add	a2,a2,418 # fffffffffffd11a2 <end+0xfffffffffffb319e>
    2b04:	962a                	add	a2,a2,a0
    2b06:	0016569b          	srlw	a3,a2,0x1
    2b0a:	4d100713          	li	a4,1233
    2b0e:	f2e6ece3          	bltu	a3,a4,2a46 <_ZN4core7unicode9printable12is_printable17h9a68603bbae84b1fE+0x22>
    2b12:	27d6061b          	addw	a2,a2,637
    2b16:	46bd                	li	a3,15
    2b18:	f2d667e3          	bltu	a2,a3,2a46 <_ZN4core7unicode9printable12is_printable17h9a68603bbae84b1fE+0x22>
    2b1c:	fffd3637          	lui	a2,0xfffd3
    2b20:	15e60613          	add	a2,a2,350 # fffffffffffd315e <end+0xfffffffffffb515a>
    2b24:	9e29                	addw	a2,a2,a0
    2b26:	46b9                	li	a3,14
    2b28:	f0d66fe3          	bltu	a2,a3,2a46 <_ZN4core7unicode9printable12is_printable17h9a68603bbae84b1fE+0x22>
    2b2c:	ffe57613          	and	a2,a0,-2
    2b30:	2601                	sext.w	a2,a2
    2b32:	0002c6b7          	lui	a3,0x2c
    2b36:	81e6869b          	addw	a3,a3,-2018 # 2b81e <end+0xd81a>
    2b3a:	f0d606e3          	beq	a2,a3,2a46 <_ZN4core7unicode9printable12is_printable17h9a68603bbae84b1fE+0x22>
    2b3e:	fe057613          	and	a2,a0,-32
    2b42:	2601                	sext.w	a2,a2
    2b44:	0002a6b7          	lui	a3,0x2a
    2b48:	6e06869b          	addw	a3,a3,1760 # 2a6e0 <end+0xc6dc>
    2b4c:	eed60de3          	beq	a2,a3,2a46 <_ZN4core7unicode9printable12is_printable17h9a68603bbae84b1fE+0x22>
    2b50:	fffd5637          	lui	a2,0xfffd5
    2b54:	8c660613          	add	a2,a2,-1850 # fffffffffffd48c6 <end+0xfffffffffffb68c2>
    2b58:	9e29                	addw	a2,a2,a0
    2b5a:	4699                	li	a3,6
    2b5c:	eed665e3          	bltu	a2,a3,2a46 <_ZN4core7unicode9printable12is_printable17h9a68603bbae84b1fE+0x22>
    2b60:	ffef05b7          	lui	a1,0xffef0
    2b64:	9d2d                	addw	a0,a0,a1
    2b66:	fffd05b7          	lui	a1,0xfffd0
    2b6a:	1f05859b          	addw	a1,a1,496 # fffffffffffd01f0 <end+0xfffffffffffb21ec>
    2b6e:	00b535b3          	sltu	a1,a0,a1
    2b72:	bdd1                	j	2a46 <_ZN4core7unicode9printable12is_printable17h9a68603bbae84b1fE+0x22>

0000000000002b74 <_ZN4core6escape14escape_unicode17hedbd552c510bfac9E>:
    2b74:	7139                	add	sp,sp,-64
    2b76:	fc06                	sd	ra,56(sp)
    2b78:	f822                	sd	s0,48(sp)
    2b7a:	f426                	sd	s1,40(sp)
    2b7c:	f04a                	sd	s2,32(sp)
    2b7e:	ec4e                	sd	s3,24(sp)
    2b80:	0080                	add	s0,sp,64
    2b82:	892a                	mv	s2,a0
    2b84:	0025d51b          	srlw	a0,a1,0x2
    2b88:	0506                	sll	a0,a0,0x1
    2b8a:	8d4d                	or	a0,a0,a1
    2b8c:	0035561b          	srlw	a2,a0,0x3
    2b90:	0606                	sll	a2,a2,0x1
    2b92:	8d51                	or	a0,a0,a2
    2b94:	0055561b          	srlw	a2,a0,0x5
    2b98:	0606                	sll	a2,a2,0x1
    2b9a:	8d51                	or	a0,a0,a2
    2b9c:	0095561b          	srlw	a2,a0,0x9
    2ba0:	0606                	sll	a2,a2,0x1
    2ba2:	8d51                	or	a0,a0,a2
    2ba4:	0115561b          	srlw	a2,a0,0x11
    2ba8:	0606                	sll	a2,a2,0x1
    2baa:	8d51                	or	a0,a0,a2
    2bac:	fff54513          	not	a0,a0
    2bb0:	00155613          	srl	a2,a0,0x1
    2bb4:	555556b7          	lui	a3,0x55555
    2bb8:	5556869b          	addw	a3,a3,1365 # 55555555 <end+0x55537551>
    2bbc:	8e75                	and	a2,a2,a3
    2bbe:	9979                	and	a0,a0,-2
    2bc0:	8d11                	sub	a0,a0,a2
    2bc2:	33333637          	lui	a2,0x33333
    2bc6:	3336061b          	addw	a2,a2,819 # 33333333 <end+0x3331532f>
    2bca:	00c576b3          	and	a3,a0,a2
    2bce:	8109                	srl	a0,a0,0x2
    2bd0:	8d71                	and	a0,a0,a2
    2bd2:	9536                	add	a0,a0,a3
    2bd4:	00455613          	srl	a2,a0,0x4
    2bd8:	9532                	add	a0,a0,a2
    2bda:	0f0f1637          	lui	a2,0xf0f1
    2bde:	f0f60613          	add	a2,a2,-241 # f0f0f0f <end+0xf0d2f0b>
    2be2:	8d71                	and	a0,a0,a2
    2be4:	01010637          	lui	a2,0x1010
    2be8:	10160613          	add	a2,a2,257 # 1010101 <end+0xff20fd>
    2bec:	02c50533          	mul	a0,a0,a2
    2bf0:	02859613          	sll	a2,a1,0x28
    2bf4:	9271                	srl	a2,a2,0x3c

0000000000002bf6 <.Lpcrel_hi688>:
    2bf6:	00001697          	auipc	a3,0x1
    2bfa:	50268693          	add	a3,a3,1282 # 40f8 <.Lanon.2d1874b916770e24482da30d672d4674.12+0x50>
    2bfe:	9636                	add	a2,a2,a3
    2c00:	00064603          	lbu	a2,0(a2)
    2c04:	02c59713          	sll	a4,a1,0x2c
    2c08:	9371                	srl	a4,a4,0x3c
    2c0a:	9736                	add	a4,a4,a3
    2c0c:	00074703          	lbu	a4,0(a4)
    2c10:	03059793          	sll	a5,a1,0x30
    2c14:	93f1                	srl	a5,a5,0x3c
    2c16:	97b6                	add	a5,a5,a3
    2c18:	0007c783          	lbu	a5,0(a5)
    2c1c:	fcc408a3          	sb	a2,-47(s0)
    2c20:	01a5551b          	srlw	a0,a0,0x1a
    2c24:	fce40923          	sb	a4,-46(s0)
    2c28:	fcf409a3          	sb	a5,-45(s0)
    2c2c:	03459613          	sll	a2,a1,0x34
    2c30:	9271                	srl	a2,a2,0x3c
    2c32:	9636                	add	a2,a2,a3
    2c34:	03859713          	sll	a4,a1,0x38
    2c38:	9371                	srl	a4,a4,0x3c
    2c3a:	9736                	add	a4,a4,a3
    2c3c:	89bd                	and	a1,a1,15
    2c3e:	95b6                	add	a1,a1,a3
    2c40:	ffe50493          	add	s1,a0,-2
    2c44:	fc040823          	sb	zero,-48(s0)
    2c48:	00064603          	lbu	a2,0(a2)
    2c4c:	00074683          	lbu	a3,0(a4)
    2c50:	0005c583          	lbu	a1,0(a1)
    2c54:	fc041723          	sh	zero,-50(s0)
    2c58:	fcc40a23          	sb	a2,-44(s0)
    2c5c:	fcd40aa3          	sb	a3,-43(s0)
    2c60:	fcb40b23          	sb	a1,-42(s0)
    2c64:	07d00593          	li	a1,125
    2c68:	4625                	li	a2,9
    2c6a:	fcb40ba3          	sb	a1,-41(s0)
    2c6e:	04966763          	bltu	a2,s1,2cbc <.Lpcrel_hi689>
    2c72:	fce40593          	add	a1,s0,-50
    2c76:	00958633          	add	a2,a1,s1
    2c7a:	05c00693          	li	a3,92
    2c7e:	00d60023          	sb	a3,0(a2)
    2c82:	952e                	add	a0,a0,a1
    2c84:	07500593          	li	a1,117
    2c88:	feb50fa3          	sb	a1,-1(a0)
    2c8c:	07b00593          	li	a1,123
    2c90:	00b50023          	sb	a1,0(a0)
    2c94:	fce40593          	add	a1,s0,-50
    2c98:	4629                	li	a2,10
    2c9a:	49a9                	li	s3,10
    2c9c:	854a                	mv	a0,s2
    2c9e:	00000097          	auipc	ra,0x0
    2ca2:	4e0080e7          	jalr	1248(ra) # 317e <memcpy>
    2ca6:	00990523          	sb	s1,10(s2)
    2caa:	013905a3          	sb	s3,11(s2)
    2cae:	70e2                	ld	ra,56(sp)
    2cb0:	7442                	ld	s0,48(sp)
    2cb2:	74a2                	ld	s1,40(sp)
    2cb4:	7902                	ld	s2,32(sp)
    2cb6:	69e2                	ld	s3,24(sp)
    2cb8:	6121                	add	sp,sp,64
    2cba:	8082                	ret

0000000000002cbc <.Lpcrel_hi689>:
    2cbc:	00002517          	auipc	a0,0x2
    2cc0:	10450613          	add	a2,a0,260 # 4dc0 <.Lanon.4be6c8c866b325639ca5cea174a3452e.440>
    2cc4:	45a9                	li	a1,10
    2cc6:	8526                	mv	a0,s1
    2cc8:	fffff097          	auipc	ra,0xfffff
    2ccc:	e44080e7          	jalr	-444(ra) # 1b0c <_ZN4core9panicking18panic_bounds_check17h3cd3879189909ef2E>

0000000000002cd0 <_ZN4core3fmt3num52_$LT$impl$u20$core..fmt..Debug$u20$for$u20$usize$GT$3fmt17h44f77695f2ed6fa5E>:
    2cd0:	7175                	add	sp,sp,-144
    2cd2:	e506                	sd	ra,136(sp)
    2cd4:	e122                	sd	s0,128(sp)
    2cd6:	0900                	add	s0,sp,144
    2cd8:	882e                	mv	a6,a1
    2cda:	0345e583          	lwu	a1,52(a1)
    2cde:	0105f613          	and	a2,a1,16
    2ce2:	ee11                	bnez	a2,2cfe <_ZN4core3fmt3num52_$LT$impl$u20$core..fmt..Debug$u20$for$u20$usize$GT$3fmt17h44f77695f2ed6fa5E+0x2e>
    2ce4:	0205f593          	and	a1,a1,32
    2ce8:	eda9                	bnez	a1,2d42 <.Lpcrel_hi938+0xa>
    2cea:	6108                	ld	a0,0(a0)
    2cec:	4585                	li	a1,1
    2cee:	8642                	mv	a2,a6
    2cf0:	60aa                	ld	ra,136(sp)
    2cf2:	640a                	ld	s0,128(sp)
    2cf4:	6149                	add	sp,sp,144
    2cf6:	00000317          	auipc	t1,0x0
    2cfa:	0cc30067          	jr	204(t1) # 2dc2 <_ZN4core3fmt3num3imp7fmt_u6417ha8177b8342f48538E>
    2cfe:	6108                	ld	a0,0(a0)
    2d00:	4781                	li	a5,0
    2d02:	ff040613          	add	a2,s0,-16
    2d06:	45a9                	li	a1,10
    2d08:	a819                	j	2d1e <_ZN4core3fmt3num52_$LT$impl$u20$core..fmt..Debug$u20$for$u20$usize$GT$3fmt17h44f77695f2ed6fa5E+0x4e>
    2d0a:	05768693          	add	a3,a3,87
    2d0e:	fff60713          	add	a4,a2,-1
    2d12:	8111                	srl	a0,a0,0x4
    2d14:	fed60fa3          	sb	a3,-1(a2)
    2d18:	0785                	add	a5,a5,1
    2d1a:	863a                	mv	a2,a4
    2d1c:	c901                	beqz	a0,2d2c <_ZN4core3fmt3num52_$LT$impl$u20$core..fmt..Debug$u20$for$u20$usize$GT$3fmt17h44f77695f2ed6fa5E+0x5c>
    2d1e:	00f57693          	and	a3,a0,15
    2d22:	feb6f4e3          	bgeu	a3,a1,2d0a <_ZN4core3fmt3num52_$LT$impl$u20$core..fmt..Debug$u20$for$u20$usize$GT$3fmt17h44f77695f2ed6fa5E+0x3a>
    2d26:	03068693          	add	a3,a3,48
    2d2a:	b7d5                	j	2d0e <_ZN4core3fmt3num52_$LT$impl$u20$core..fmt..Debug$u20$for$u20$usize$GT$3fmt17h44f77695f2ed6fa5E+0x3e>
    2d2c:	08000593          	li	a1,128
    2d30:	40f58533          	sub	a0,a1,a5
    2d34:	06a5e363          	bltu	a1,a0,2d9a <.Lpcrel_hi937>

0000000000002d38 <.Lpcrel_hi938>:
    2d38:	00001517          	auipc	a0,0x1
    2d3c:	73350613          	add	a2,a0,1843 # 446b <.Lanon.4be6c8c866b325639ca5cea174a3452e.315>
    2d40:	a091                	j	2d84 <.Lpcrel_hi940+0x8>
    2d42:	6108                	ld	a0,0(a0)
    2d44:	4781                	li	a5,0
    2d46:	ff040613          	add	a2,s0,-16
    2d4a:	45a9                	li	a1,10
    2d4c:	a819                	j	2d62 <.Lpcrel_hi938+0x2a>
    2d4e:	03768693          	add	a3,a3,55
    2d52:	fff60713          	add	a4,a2,-1
    2d56:	8111                	srl	a0,a0,0x4
    2d58:	fed60fa3          	sb	a3,-1(a2)
    2d5c:	0785                	add	a5,a5,1
    2d5e:	863a                	mv	a2,a4
    2d60:	c901                	beqz	a0,2d70 <.Lpcrel_hi938+0x38>
    2d62:	00f57693          	and	a3,a0,15
    2d66:	feb6f4e3          	bgeu	a3,a1,2d4e <.Lpcrel_hi938+0x16>
    2d6a:	03068693          	add	a3,a3,48
    2d6e:	b7d5                	j	2d52 <.Lpcrel_hi938+0x1a>
    2d70:	08000593          	li	a1,128
    2d74:	40f58533          	sub	a0,a1,a5
    2d78:	02a5eb63          	bltu	a1,a0,2dae <.Lpcrel_hi939>

0000000000002d7c <.Lpcrel_hi940>:
    2d7c:	00001517          	auipc	a0,0x1
    2d80:	6ef50613          	add	a2,a0,1775 # 446b <.Lanon.4be6c8c866b325639ca5cea174a3452e.315>
    2d84:	4585                	li	a1,1
    2d86:	4689                	li	a3,2
    2d88:	8542                	mv	a0,a6
    2d8a:	fffff097          	auipc	ra,0xfffff
    2d8e:	006080e7          	jalr	6(ra) # 1d90 <_ZN4core3fmt9Formatter12pad_integral17h44dfd61457ce584aE>
    2d92:	60aa                	ld	ra,136(sp)
    2d94:	640a                	ld	s0,128(sp)
    2d96:	6149                	add	sp,sp,144
    2d98:	8082                	ret

0000000000002d9a <.Lpcrel_hi937>:
    2d9a:	00001597          	auipc	a1,0x1
    2d9e:	6d658613          	add	a2,a1,1750 # 4470 <.Lanon.4be6c8c866b325639ca5cea174a3452e.316>
    2da2:	08000593          	li	a1,128
    2da6:	fffff097          	auipc	ra,0xfffff
    2daa:	5d0080e7          	jalr	1488(ra) # 2376 <_ZN4core5slice5index26slice_start_index_len_fail17ha9a92be414eea063E>

0000000000002dae <.Lpcrel_hi939>:
    2dae:	00001597          	auipc	a1,0x1
    2db2:	6c258613          	add	a2,a1,1730 # 4470 <.Lanon.4be6c8c866b325639ca5cea174a3452e.316>
    2db6:	08000593          	li	a1,128
    2dba:	fffff097          	auipc	ra,0xfffff
    2dbe:	5bc080e7          	jalr	1468(ra) # 2376 <_ZN4core5slice5index26slice_start_index_len_fail17ha9a92be414eea063E>

0000000000002dc2 <_ZN4core3fmt3num3imp7fmt_u6417ha8177b8342f48538E>:
    2dc2:	715d                	add	sp,sp,-80
    2dc4:	e486                	sd	ra,72(sp)
    2dc6:	e0a2                	sd	s0,64(sp)
    2dc8:	fc26                	sd	s1,56(sp)
    2dca:	f84a                	sd	s2,48(sp)
    2dcc:	0880                	add	s0,sp,80
    2dce:	8832                	mv	a6,a2
    2dd0:	00455693          	srl	a3,a0,0x4
    2dd4:	02700713          	li	a4,39
    2dd8:	27100793          	li	a5,625

0000000000002ddc <.Lpcrel_hi941>:
    2ddc:	00001617          	auipc	a2,0x1
    2de0:	6ac60e93          	add	t4,a2,1708 # 4488 <.Lanon.4be6c8c866b325639ca5cea174a3452e.319>
    2de4:	02f6f363          	bgeu	a3,a5,2e0a <.Lpcrel_hi941+0x2e>
    2de8:	06300693          	li	a3,99
    2dec:	0aa6ea63          	bltu	a3,a0,2ea0 <.Lpcrel_hi942+0x8c>
    2df0:	4629                	li	a2,10
    2df2:	0ec57863          	bgeu	a0,a2,2ee2 <.Lpcrel_hi942+0xce>
    2df6:	fff70693          	add	a3,a4,-1
    2dfa:	fb940613          	add	a2,s0,-71
    2dfe:	9636                	add	a2,a2,a3
    2e00:	03056513          	or	a0,a0,48
    2e04:	00a60023          	sb	a0,0(a2)
    2e08:	a8e5                	j	2f00 <.Lpcrel_hi942+0xec>
    2e0a:	4701                	li	a4,0
    2e0c:	fdc40893          	add	a7,s0,-36
    2e10:	fde40293          	add	t0,s0,-34

0000000000002e14 <.Lpcrel_hi942>:
    2e14:	00013697          	auipc	a3,0x13
    2e18:	90c6b303          	ld	t1,-1780(a3) # 15720 <.LCPI423_0>
    2e1c:	6689                	lui	a3,0x2
    2e1e:	71068e13          	add	t3,a3,1808 # 2710 <.Lpcrel_hi627+0xe>
    2e22:	6685                	lui	a3,0x1
    2e24:	47b68f1b          	addw	t5,a3,1147 # 147b <.Lpcrel_hi11+0x1f1>
    2e28:	06400393          	li	t2,100
    2e2c:	05f5e6b7          	lui	a3,0x5f5e
    2e30:	0ff68f9b          	addw	t6,a3,255 # 5f5e0ff <end+0x5f400fb>
    2e34:	892a                	mv	s2,a0
    2e36:	02653533          	mulhu	a0,a0,t1
    2e3a:	812d                	srl	a0,a0,0xb
    2e3c:	03c507b3          	mul	a5,a0,t3
    2e40:	40f9063b          	subw	a2,s2,a5
    2e44:	03061793          	sll	a5,a2,0x30
    2e48:	93c9                	srl	a5,a5,0x32
    2e4a:	03e787b3          	mul	a5,a5,t5
    2e4e:	0117d493          	srl	s1,a5,0x11
    2e52:	83c1                	srl	a5,a5,0x10
    2e54:	7fe7f793          	and	a5,a5,2046
    2e58:	027484b3          	mul	s1,s1,t2
    2e5c:	9e05                	subw	a2,a2,s1
    2e5e:	1646                	sll	a2,a2,0x31
    2e60:	97f6                	add	a5,a5,t4
    2e62:	0017c483          	lbu	s1,1(a5)
    2e66:	9241                	srl	a2,a2,0x30
    2e68:	00e886b3          	add	a3,a7,a4
    2e6c:	0007c783          	lbu	a5,0(a5)
    2e70:	009680a3          	sb	s1,1(a3)
    2e74:	9676                	add	a2,a2,t4
    2e76:	00164483          	lbu	s1,1(a2)
    2e7a:	00064603          	lbu	a2,0(a2)
    2e7e:	00f68023          	sb	a5,0(a3)
    2e82:	00e286b3          	add	a3,t0,a4
    2e86:	009680a3          	sb	s1,1(a3)
    2e8a:	00c68023          	sb	a2,0(a3)
    2e8e:	1771                	add	a4,a4,-4
    2e90:	fb2fe2e3          	bltu	t6,s2,2e34 <.Lpcrel_hi942+0x20>
    2e94:	02770713          	add	a4,a4,39
    2e98:	06300693          	li	a3,99
    2e9c:	f4a6fae3          	bgeu	a3,a0,2df0 <.Lpcrel_hi941+0x14>
    2ea0:	03051613          	sll	a2,a0,0x30
    2ea4:	9249                	srl	a2,a2,0x32
    2ea6:	6685                	lui	a3,0x1
    2ea8:	47b6869b          	addw	a3,a3,1147 # 147b <.Lpcrel_hi11+0x1f1>
    2eac:	02d60633          	mul	a2,a2,a3
    2eb0:	8245                	srl	a2,a2,0x11
    2eb2:	06400693          	li	a3,100
    2eb6:	02d606b3          	mul	a3,a2,a3
    2eba:	9d15                	subw	a0,a0,a3
    2ebc:	1546                	sll	a0,a0,0x31
    2ebe:	9141                	srl	a0,a0,0x30
    2ec0:	1779                	add	a4,a4,-2
    2ec2:	9576                	add	a0,a0,t4
    2ec4:	00154683          	lbu	a3,1(a0)
    2ec8:	00054503          	lbu	a0,0(a0)
    2ecc:	fb940793          	add	a5,s0,-71
    2ed0:	97ba                	add	a5,a5,a4
    2ed2:	00d780a3          	sb	a3,1(a5)
    2ed6:	00a78023          	sb	a0,0(a5)
    2eda:	8532                	mv	a0,a2
    2edc:	4629                	li	a2,10
    2ede:	f0c56ce3          	bltu	a0,a2,2df6 <.Lpcrel_hi941+0x1a>
    2ee2:	0506                	sll	a0,a0,0x1
    2ee4:	ffe70693          	add	a3,a4,-2
    2ee8:	9576                	add	a0,a0,t4
    2eea:	00154603          	lbu	a2,1(a0)
    2eee:	00054503          	lbu	a0,0(a0)
    2ef2:	fb940713          	add	a4,s0,-71
    2ef6:	9736                	add	a4,a4,a3
    2ef8:	00c700a3          	sb	a2,1(a4)
    2efc:	00a70023          	sb	a0,0(a4)
    2f00:	fb940713          	add	a4,s0,-71
    2f04:	9736                	add	a4,a4,a3
    2f06:	02700793          	li	a5,39
    2f0a:	8f95                	sub	a5,a5,a3
    2f0c:	4605                	li	a2,1
    2f0e:	8542                	mv	a0,a6
    2f10:	4681                	li	a3,0
    2f12:	fffff097          	auipc	ra,0xfffff
    2f16:	e7e080e7          	jalr	-386(ra) # 1d90 <_ZN4core3fmt9Formatter12pad_integral17h44dfd61457ce584aE>
    2f1a:	60a6                	ld	ra,72(sp)
    2f1c:	6406                	ld	s0,64(sp)
    2f1e:	74e2                	ld	s1,56(sp)
    2f20:	7942                	ld	s2,48(sp)
    2f22:	6161                	add	sp,sp,80
    2f24:	8082                	ret

0000000000002f26 <_ZN4core3fmt3num3imp52_$LT$impl$u20$core..fmt..Display$u20$for$u20$u16$GT$3fmt17h5d746266f57fcb3dE>:
    2f26:	1141                	add	sp,sp,-16
    2f28:	e406                	sd	ra,8(sp)
    2f2a:	e022                	sd	s0,0(sp)
    2f2c:	0800                	add	s0,sp,16
    2f2e:	00055503          	lhu	a0,0(a0)
    2f32:	862e                	mv	a2,a1
    2f34:	4585                	li	a1,1
    2f36:	60a2                	ld	ra,8(sp)
    2f38:	6402                	ld	s0,0(sp)
    2f3a:	0141                	add	sp,sp,16
    2f3c:	00000317          	auipc	t1,0x0
    2f40:	e8630067          	jr	-378(t1) # 2dc2 <_ZN4core3fmt3num3imp7fmt_u6417ha8177b8342f48538E>

0000000000002f44 <_ZN4core3fmt3num3imp52_$LT$impl$u20$core..fmt..Display$u20$for$u20$u32$GT$3fmt17heeec3f2fdb7fbbceE>:
    2f44:	1141                	add	sp,sp,-16
    2f46:	e406                	sd	ra,8(sp)
    2f48:	e022                	sd	s0,0(sp)
    2f4a:	0800                	add	s0,sp,16
    2f4c:	00056503          	lwu	a0,0(a0)
    2f50:	862e                	mv	a2,a1
    2f52:	4585                	li	a1,1
    2f54:	60a2                	ld	ra,8(sp)
    2f56:	6402                	ld	s0,0(sp)
    2f58:	0141                	add	sp,sp,16
    2f5a:	00000317          	auipc	t1,0x0
    2f5e:	e6830067          	jr	-408(t1) # 2dc2 <_ZN4core3fmt3num3imp7fmt_u6417ha8177b8342f48538E>

0000000000002f62 <_ZN4core3fmt3num3imp52_$LT$impl$u20$core..fmt..Display$u20$for$u20$u64$GT$3fmt17hd54b8357f338ce60E>:
    2f62:	1141                	add	sp,sp,-16
    2f64:	e406                	sd	ra,8(sp)
    2f66:	e022                	sd	s0,0(sp)
    2f68:	0800                	add	s0,sp,16
    2f6a:	6108                	ld	a0,0(a0)
    2f6c:	862e                	mv	a2,a1
    2f6e:	4585                	li	a1,1
    2f70:	60a2                	ld	ra,8(sp)
    2f72:	6402                	ld	s0,0(sp)
    2f74:	0141                	add	sp,sp,16
    2f76:	00000317          	auipc	t1,0x0
    2f7a:	e4c30067          	jr	-436(t1) # 2dc2 <_ZN4core3fmt3num3imp7fmt_u6417ha8177b8342f48538E>

0000000000002f7e <_ZN42_$LT$$RF$T$u20$as$u20$core..fmt..Debug$GT$3fmt17h5674c85afe4c8ee5E>:
    2f7e:	1141                	add	sp,sp,-16
    2f80:	e406                	sd	ra,8(sp)
    2f82:	e022                	sd	s0,0(sp)
    2f84:	0800                	add	s0,sp,16
    2f86:	6510                	ld	a2,8(a0)
    2f88:	6108                	ld	a0,0(a0)
    2f8a:	6e1c                	ld	a5,24(a2)
    2f8c:	60a2                	ld	ra,8(sp)
    2f8e:	6402                	ld	s0,0(sp)
    2f90:	0141                	add	sp,sp,16
    2f92:	8782                	jr	a5

0000000000002f94 <_ZN44_$LT$$RF$T$u20$as$u20$core..fmt..Display$GT$3fmt17h0e07db1b220f6d18E>:
    2f94:	1141                	add	sp,sp,-16
    2f96:	e406                	sd	ra,8(sp)
    2f98:	e022                	sd	s0,0(sp)
    2f9a:	0800                	add	s0,sp,16
    2f9c:	6114                	ld	a3,0(a0)
    2f9e:	6510                	ld	a2,8(a0)
    2fa0:	852e                	mv	a0,a1
    2fa2:	85b6                	mv	a1,a3
    2fa4:	60a2                	ld	ra,8(sp)
    2fa6:	6402                	ld	s0,0(sp)
    2fa8:	0141                	add	sp,sp,16
    2faa:	fffff317          	auipc	t1,0xfffff
    2fae:	07030067          	jr	112(t1) # 201a <_ZN4core3fmt9Formatter3pad17h7d67947b6a7c39b2E>

0000000000002fb2 <_ZN4core7unicode12unicode_data15grapheme_extend11lookup_slow17hb4aa5a40f1bf8a0dE>:
    2fb2:	1141                	add	sp,sp,-16
    2fb4:	e406                	sd	ra,8(sp)
    2fb6:	e022                	sd	s0,0(sp)
    2fb8:	0800                	add	s0,sp,16
    2fba:	4881                	li	a7,0
    2fbc:	00b5161b          	sllw	a2,a0,0xb
    2fc0:	02100793          	li	a5,33

0000000000002fc4 <.Lpcrel_hi983>:
    2fc4:	00002597          	auipc	a1,0x2
    2fc8:	e1458813          	add	a6,a1,-492 # 4dd8 <_ZN4core7unicode12unicode_data15grapheme_extend17SHORT_OFFSET_RUNS17h4b195488a367f00eE>
    2fcc:	02100593          	li	a1,33
    2fd0:	a031                	j	2fdc <.Lpcrel_hi983+0x18>
    2fd2:	411707b3          	sub	a5,a4,a7
    2fd6:	85ba                	mv	a1,a4
    2fd8:	02e8fa63          	bgeu	a7,a4,300c <.Lpcrel_hi983+0x48>
    2fdc:	8385                	srl	a5,a5,0x1
    2fde:	97c6                	add	a5,a5,a7
    2fe0:	00279693          	sll	a3,a5,0x2
    2fe4:	96c2                	add	a3,a3,a6
    2fe6:	4294                	lw	a3,0(a3)
    2fe8:	00b6969b          	sllw	a3,a3,0xb
    2fec:	00c68e63          	beq	a3,a2,3008 <.Lpcrel_hi983+0x44>
    2ff0:	873e                	mv	a4,a5
    2ff2:	00d67563          	bgeu	a2,a3,2ffc <.Lpcrel_hi983+0x38>
    2ff6:	fcc6fee3          	bgeu	a3,a2,2fd2 <.Lpcrel_hi983+0xe>
    2ffa:	a021                	j	3002 <.Lpcrel_hi983+0x3e>
    2ffc:	872e                	mv	a4,a1
    2ffe:	fcc6fae3          	bgeu	a3,a2,2fd2 <.Lpcrel_hi983+0xe>
    3002:	00178893          	add	a7,a5,1
    3006:	b7f1                	j	2fd2 <.Lpcrel_hi983+0xe>
    3008:	00178893          	add	a7,a5,1
    300c:	02000693          	li	a3,32
    3010:	0916ed63          	bltu	a3,a7,30aa <.Lpcrel_hi984>
    3014:	00289593          	sll	a1,a7,0x2
    3018:	982e                	add	a6,a6,a1
    301a:	00086583          	lwu	a1,0(a6)
    301e:	0155d293          	srl	t0,a1,0x15
    3022:	2d700613          	li	a2,727
    3026:	00d88763          	beq	a7,a3,3034 <.Lpcrel_hi983+0x70>
    302a:	00486603          	lwu	a2,4(a6)
    302e:	8255                	srl	a2,a2,0x15
    3030:	04088c63          	beqz	a7,3088 <.Lpcrel_hi985+0x2e>
    3034:	ffc86683          	lwu	a3,-4(a6)
    3038:	16ae                	sll	a3,a3,0x2b
    303a:	02b6d713          	srl	a4,a3,0x2b
    303e:	fff2c693          	not	a3,t0
    3042:	96b2                	add	a3,a3,a2
    3044:	ce85                	beqz	a3,307c <.Lpcrel_hi985+0x22>
    3046:	2d700793          	li	a5,727
    304a:	8696                	mv	a3,t0
    304c:	0057e463          	bltu	a5,t0,3054 <.Lpcrel_hi983+0x90>
    3050:	2d700693          	li	a3,727
    3054:	4781                	li	a5,0
    3056:	9d19                	subw	a0,a0,a4
    3058:	167d                	add	a2,a2,-1

000000000000305a <.Lpcrel_hi985>:
    305a:	00002717          	auipc	a4,0x2
    305e:	e0270713          	add	a4,a4,-510 # 4e5c <_ZN4core7unicode12unicode_data15grapheme_extend7OFFSETS17heca1bffa0b52a2aeE>
    3062:	02568963          	beq	a3,t0,3094 <.Lpcrel_hi986>
    3066:	005705b3          	add	a1,a4,t0
    306a:	0005c583          	lbu	a1,0(a1)
    306e:	9fad                	addw	a5,a5,a1
    3070:	00f56663          	bltu	a0,a5,307c <.Lpcrel_hi985+0x22>
    3074:	0285                	add	t0,t0,1
    3076:	fe5616e3          	bne	a2,t0,3062 <.Lpcrel_hi985+0x8>
    307a:	82b2                	mv	t0,a2
    307c:	0012f513          	and	a0,t0,1
    3080:	60a2                	ld	ra,8(sp)
    3082:	6402                	ld	s0,0(sp)
    3084:	0141                	add	sp,sp,16
    3086:	8082                	ret
    3088:	4701                	li	a4,0
    308a:	fff2c693          	not	a3,t0
    308e:	96b2                	add	a3,a3,a2
    3090:	fadd                	bnez	a3,3046 <.Lpcrel_hi983+0x82>
    3092:	b7ed                	j	307c <.Lpcrel_hi985+0x22>

0000000000003094 <.Lpcrel_hi986>:
    3094:	00002517          	auipc	a0,0x2
    3098:	cf450613          	add	a2,a0,-780 # 4d88 <.Lanon.4be6c8c866b325639ca5cea174a3452e.428>
    309c:	2d700593          	li	a1,727
    30a0:	8536                	mv	a0,a3
    30a2:	fffff097          	auipc	ra,0xfffff
    30a6:	a6a080e7          	jalr	-1430(ra) # 1b0c <_ZN4core9panicking18panic_bounds_check17h3cd3879189909ef2E>

00000000000030aa <.Lpcrel_hi984>:
    30aa:	00002517          	auipc	a0,0x2
    30ae:	cc650613          	add	a2,a0,-826 # 4d70 <.Lanon.4be6c8c866b325639ca5cea174a3452e.427>
    30b2:	02100593          	li	a1,33
    30b6:	8546                	mv	a0,a7
    30b8:	fffff097          	auipc	ra,0xfffff
    30bc:	a54080e7          	jalr	-1452(ra) # 1b0c <_ZN4core9panicking18panic_bounds_check17h3cd3879189909ef2E>

00000000000030c0 <_ZN17compiler_builtins3mem6memcpy17hf70f65b4a2ee4a48E>:
    30c0:	1141                	add	sp,sp,-16
    30c2:	e406                	sd	ra,8(sp)
    30c4:	e022                	sd	s0,0(sp)
    30c6:	0800                	add	s0,sp,16
    30c8:	46c1                	li	a3,16
    30ca:	06d66b63          	bltu	a2,a3,3140 <_ZN17compiler_builtins3mem6memcpy17hf70f65b4a2ee4a48E+0x80>
    30ce:	40a006bb          	negw	a3,a0
    30d2:	0076f813          	and	a6,a3,7
    30d6:	010503b3          	add	t2,a0,a6
    30da:	00080c63          	beqz	a6,30f2 <_ZN17compiler_builtins3mem6memcpy17hf70f65b4a2ee4a48E+0x32>
    30de:	87aa                	mv	a5,a0
    30e0:	86ae                	mv	a3,a1
    30e2:	0006c703          	lbu	a4,0(a3)
    30e6:	00e78023          	sb	a4,0(a5)
    30ea:	0785                	add	a5,a5,1
    30ec:	0685                	add	a3,a3,1
    30ee:	fe77eae3          	bltu	a5,t2,30e2 <_ZN17compiler_builtins3mem6memcpy17hf70f65b4a2ee4a48E+0x22>
    30f2:	010588b3          	add	a7,a1,a6
    30f6:	41060833          	sub	a6,a2,a6
    30fa:	ff887293          	and	t0,a6,-8
    30fe:	0078f593          	and	a1,a7,7
    3102:	005386b3          	add	a3,t2,t0
    3106:	c1a1                	beqz	a1,3146 <_ZN17compiler_builtins3mem6memcpy17hf70f65b4a2ee4a48E+0x86>
    3108:	04505963          	blez	t0,315a <_ZN17compiler_builtins3mem6memcpy17hf70f65b4a2ee4a48E+0x9a>
    310c:	00389593          	sll	a1,a7,0x3
    3110:	0385f313          	and	t1,a1,56
    3114:	ff88f793          	and	a5,a7,-8
    3118:	6390                	ld	a2,0(a5)
    311a:	40b005bb          	negw	a1,a1
    311e:	0385fe13          	and	t3,a1,56
    3122:	07a1                	add	a5,a5,8
    3124:	6398                	ld	a4,0(a5)
    3126:	00665633          	srl	a2,a2,t1
    312a:	01c715b3          	sll	a1,a4,t3
    312e:	8dd1                	or	a1,a1,a2
    3130:	00b3b023          	sd	a1,0(t2)
    3134:	03a1                	add	t2,t2,8
    3136:	07a1                	add	a5,a5,8
    3138:	863a                	mv	a2,a4
    313a:	fed3e5e3          	bltu	t2,a3,3124 <_ZN17compiler_builtins3mem6memcpy17hf70f65b4a2ee4a48E+0x64>
    313e:	a831                	j	315a <_ZN17compiler_builtins3mem6memcpy17hf70f65b4a2ee4a48E+0x9a>
    3140:	86aa                	mv	a3,a0
    3142:	e20d                	bnez	a2,3164 <_ZN17compiler_builtins3mem6memcpy17hf70f65b4a2ee4a48E+0xa4>
    3144:	a80d                	j	3176 <_ZN17compiler_builtins3mem6memcpy17hf70f65b4a2ee4a48E+0xb6>
    3146:	00505a63          	blez	t0,315a <_ZN17compiler_builtins3mem6memcpy17hf70f65b4a2ee4a48E+0x9a>
    314a:	85c6                	mv	a1,a7
    314c:	6190                	ld	a2,0(a1)
    314e:	00c3b023          	sd	a2,0(t2)
    3152:	03a1                	add	t2,t2,8
    3154:	05a1                	add	a1,a1,8
    3156:	fed3ebe3          	bltu	t2,a3,314c <_ZN17compiler_builtins3mem6memcpy17hf70f65b4a2ee4a48E+0x8c>
    315a:	005885b3          	add	a1,a7,t0
    315e:	00787613          	and	a2,a6,7
    3162:	ca11                	beqz	a2,3176 <_ZN17compiler_builtins3mem6memcpy17hf70f65b4a2ee4a48E+0xb6>
    3164:	9636                	add	a2,a2,a3
    3166:	0005c703          	lbu	a4,0(a1)
    316a:	00e68023          	sb	a4,0(a3)
    316e:	0685                	add	a3,a3,1
    3170:	0585                	add	a1,a1,1
    3172:	fec6eae3          	bltu	a3,a2,3166 <_ZN17compiler_builtins3mem6memcpy17hf70f65b4a2ee4a48E+0xa6>
    3176:	60a2                	ld	ra,8(sp)
    3178:	6402                	ld	s0,0(sp)
    317a:	0141                	add	sp,sp,16
    317c:	8082                	ret

000000000000317e <memcpy>:
    317e:	1141                	add	sp,sp,-16
    3180:	e406                	sd	ra,8(sp)
    3182:	e022                	sd	s0,0(sp)
    3184:	0800                	add	s0,sp,16
    3186:	60a2                	ld	ra,8(sp)
    3188:	6402                	ld	s0,0(sp)
    318a:	0141                	add	sp,sp,16
    318c:	00000317          	auipc	t1,0x0
    3190:	f3430067          	jr	-204(t1) # 30c0 <_ZN17compiler_builtins3mem6memcpy17hf70f65b4a2ee4a48E>
	...

Disassembly of section .rodata:

0000000000004000 <.Lanon.c52970ddbcc266f70c25a361dd8dfc98.32>:
    4000:	6e45                	lui	t3,0x11
    4002:	6e756f63          	bltu	a0,t2,4700 <.Lanon.4be6c8c866b325639ca5cea174a3452e.396+0x10>
    4006:	6574                	ld	a3,200(a0)
    4008:	6572                	ld	a0,280(sp)
    400a:	2064                	fld	fs1,192(s0)
    400c:	6150                	ld	a2,128(a0)
    400e:	696e                	ld	s2,216(sp)
    4010:	74282063          	.insn	4, 0x74282063
    4014:	3d70                	fld	fa2,248(a0)

0000000000004016 <.Lanon.c52970ddbcc266f70c25a361dd8dfc98.33>:
    4016:	3a29                	addw	s4,s4,-22
    4018:	                	add	s0,sp,280

0000000000004019 <.Lanon.c52970ddbcc266f70c25a361dd8dfc98.34>:
    4019:	000a                	c.slli	zero,0x2
    401b:	0000                	unimp
    401d:	0000                	unimp
	...

0000000000004020 <.Lanon.c52970ddbcc266f70c25a361dd8dfc98.35>:
    4020:	4000                	lw	s0,0(s0)
    4022:	0000                	unimp
    4024:	0000                	unimp
    4026:	0000                	unimp
    4028:	0016                	c.slli	zero,0x5
    402a:	0000                	unimp
    402c:	0000                	unimp
    402e:	0000                	unimp
    4030:	4016                	.insn	2, 0x4016
    4032:	0000                	unimp
    4034:	0000                	unimp
    4036:	0000                	unimp
    4038:	00000003          	lb	zero,0(zero) # 0 <.Lline_table_start0>
    403c:	0000                	unimp
    403e:	0000                	unimp
    4040:	4019                	c.li	zero,6
    4042:	0000                	unimp
    4044:	0000                	unimp
    4046:	0000                	unimp
    4048:	0001                	nop
    404a:	0000                	unimp
    404c:	0000                	unimp
	...

0000000000004050 <.Lanon.2d1874b916770e24482da30d672d4674.6>:
    4050:	4946                	lw	s2,80(sp)
    4052:	454c                	lw	a1,12(a0)
    4054:	4920                	lw	s0,80(a0)
    4056:	0944                	add	s1,sp,148
    4058:	4e09                	li	t3,2
    405a:	4d41                	li	s10,16
    405c:	0945                	add	s2,s2,17
    405e:	0909                	add	s2,s2,2
    4060:	455a4953          	.insn	4, 0x455a4953
    4064:	000a                	c.slli	zero,0x2
	...

0000000000004068 <.Lanon.2d1874b916770e24482da30d672d4674.7>:
    4068:	4050                	lw	a2,4(s0)
    406a:	0000                	unimp
    406c:	0000                	unimp
    406e:	0000                	unimp
    4070:	0015                	c.nop	5
    4072:	0000                	unimp
    4074:	0000                	unimp
	...

0000000000004078 <.Lanon.2d1874b916770e24482da30d672d4674.8>:
    4078:	0909                	add	s2,s2,2
    407a:	0000                	unimp
    407c:	0000                	unimp
	...

0000000000004080 <.Lanon.2d1874b916770e24482da30d672d4674.9>:
    4080:	0001                	nop
	...
    408e:	0000                	unimp
    4090:	4078                	lw	a4,68(s0)
    4092:	0000                	unimp
    4094:	0000                	unimp
    4096:	0000                	unimp
    4098:	0002                	c.slli64	zero
    409a:	0000                	unimp
    409c:	0000                	unimp
	...

00000000000040a0 <.Lanon.2d1874b916770e24482da30d672d4674.10>:
    40a0:	                	add	s4,s4,2

00000000000040a1 <.Lanon.2d1874b916770e24482da30d672d4674.11>:
    40a1:	000a                	c.slli	zero,0x2
    40a3:	0000                	unimp
    40a5:	0000                	unimp
	...

00000000000040a8 <.Lanon.2d1874b916770e24482da30d672d4674.12>:
    40a8:	40a0                	lw	s0,64(s1)
    40aa:	0000                	unimp
    40ac:	0000                	unimp
    40ae:	0000                	unimp
    40b0:	0001                	nop
    40b2:	0000                	unimp
    40b4:	0000                	unimp
    40b6:	0000                	unimp
    40b8:	40a1                	li	ra,8
    40ba:	0000                	unimp
    40bc:	0000                	unimp
    40be:	0000                	unimp
    40c0:	0001                	nop
    40c2:	0000                	unimp
    40c4:	0000                	unimp
    40c6:	0000                	unimp
    40c8:	2029                	.insn	2, 0x2029
    40ca:	6e656877          	.insn	4, 0x6e656877
    40ce:	7320                	ld	s0,96(a4)
    40d0:	696c                	ld	a1,208(a0)
    40d2:	676e6963          	bltu	t3,s6,4744 <.Lanon.4be6c8c866b325639ca5cea174a3452e.398+0xc>
    40d6:	6020                	ld	s0,64(s0)
    40d8:	6172                	ld	sp,280(sp)
    40da:	676e                	ld	a4,216(sp)
    40dc:	2065                	.insn	2, 0x2065
    40de:	6e65                	lui	t3,0x19
    40e0:	2064                	fld	fs1,192(s0)
    40e2:	6e69                	lui	t3,0x1a
    40e4:	6564                	ld	s1,200(a0)
    40e6:	2078                	fld	fa4,192(s0)
    40e8:	0001                	nop
	...
    40f6:	0000                	unimp
    40f8:	3130                	fld	fa2,96(a0)
    40fa:	3332                	fld	ft6,296(sp)
    40fc:	3534                	fld	fa3,104(a0)
    40fe:	3736                	fld	fa4,360(sp)
    4100:	3938                	fld	fa4,112(a0)
    4102:	6261                	lui	tp,0x18
    4104:	66656463          	bltu	a0,t1,476c <.Lanon.4be6c8c866b325639ca5cea174a3452e.399+0x14>

0000000000004108 <.Lanon.a10dc4acf2bdc285224ee929493701d2.6>:
    4108:	7245                	lui	tp,0xffff1
    410a:	6f72                	ld	t5,280(sp)
    410c:	0072                	c.slli	zero,0x1c
	...

0000000000004110 <anon.a10dc4acf2bdc285224ee929493701d2.12.llvm.18187908855622888574>:
	...
    4118:	0004                	.insn	2, 0x0004
    411a:	0001                	nop
    411c:	0000                	unimp
    411e:	0000                	unimp
    4120:	0002                	c.slli64	zero
    4122:	0000                	unimp
    4124:	0000                	unimp
    4126:	0000                	unimp
    4128:	1754                	add	a3,sp,932
    412a:	0000                	unimp
    412c:	0000                	unimp
    412e:	0000                	unimp
    4130:	1688                	add	a0,sp,864
    4132:	0000                	unimp
    4134:	0000                	unimp
    4136:	0000                	unimp
    4138:	173e                	sll	a4,a4,0x2f
    413a:	0000                	unimp
    413c:	0000                	unimp
	...

0000000000004140 <anon.a10dc4acf2bdc285224ee929493701d2.13.llvm.18187908855622888574>:
	...
    4150:	0001                	nop
    4152:	0000                	unimp
    4154:	0000                	unimp
    4156:	0000                	unimp
    4158:	15b6                	sll	a1,a1,0x2d
    415a:	0000                	unimp
    415c:	0000                	unimp
	...

0000000000004160 <anon.a10dc4acf2bdc285224ee929493701d2.14.llvm.18187908855622888574>:
    4160:	6c756f43          	.insn	4, 0x6c756f43
    4164:	6e64                	ld	s1,216(a2)
    4166:	77207427          	.insn	4, 0x77207427
    416a:	6972                	ld	s2,280(sp)
    416c:	6574                	ld	a3,200(a0)
    416e:	7420                	ld	s0,104(s0)
    4170:	6f63206f          	j	36866 <end+0x18862>
    4174:	736e                	ld	t1,248(sp)
    4176:	          	jal	s8,5a8ac <end+0x3c8a8>

0000000000004179 <anon.a10dc4acf2bdc285224ee929493701d2.15.llvm.18187908855622888574>:
    4179:	2f637273          	csrrc	tp,0x2f6,6
    417d:	6e72656b          	.insn	4, 0x6e72656b
    4181:	6c65                	lui	s8,0x19
    4183:	6372732f          	.insn	4, 0x6372732f
    4187:	6e6f632f          	.insn	4, 0x6e6f632f
    418b:	656c6f73          	csrrs	t5,hviprio1h,24
    418f:	722e                	ld	tp,232(sp)
    4191:	00000073          	ecall
    4195:	0000                	unimp
	...

0000000000004198 <anon.a10dc4acf2bdc285224ee929493701d2.16.llvm.18187908855622888574>:
    4198:	4179                	li	sp,30
    419a:	0000                	unimp
    419c:	0000                	unimp
    419e:	0000                	unimp
    41a0:	0019                	c.nop	6
    41a2:	0000                	unimp
    41a4:	0000                	unimp
    41a6:	0000                	unimp
    41a8:	0069                	c.nop	26
    41aa:	0000                	unimp
    41ac:	000e                	c.slli	zero,0x3
	...

00000000000041b0 <.Lanon.5b35e17ee5893043f58f8d4a57874d7c.10>:
	...
    41b8:	0004                	.insn	2, 0x0004
    41ba:	0001                	nop
    41bc:	0000                	unimp
    41be:	0000                	unimp
    41c0:	0002                	c.slli64	zero
    41c2:	0000                	unimp
    41c4:	0000                	unimp
    41c6:	0000                	unimp
    41c8:	1754                	add	a3,sp,932
    41ca:	0000                	unimp
    41cc:	0000                	unimp
    41ce:	0000                	unimp
    41d0:	1688                	add	a0,sp,864
    41d2:	0000                	unimp
    41d4:	0000                	unimp
    41d6:	0000                	unimp
    41d8:	173e                	sll	a4,a4,0x2f
    41da:	0000                	unimp
    41dc:	0000                	unimp
	...

00000000000041e0 <.Lanon.5b35e17ee5893043f58f8d4a57874d7c.11>:
    41e0:	2f637273          	csrrc	tp,0x2f6,6
    41e4:	6e72656b          	.insn	4, 0x6e72656b
    41e8:	6c65                	lui	s8,0x19
    41ea:	6372732f          	.insn	4, 0x6372732f
    41ee:	6e6f632f          	.insn	4, 0x6e6f632f
    41f2:	656c6f73          	csrrs	t5,hviprio1h,24
    41f6:	722e                	ld	tp,232(sp)
    41f8:	00000073          	ecall
    41fc:	0000                	unimp
	...

0000000000004200 <.Lanon.5b35e17ee5893043f58f8d4a57874d7c.12>:
    4200:	41e0                	lw	s0,68(a1)
    4202:	0000                	unimp
    4204:	0000                	unimp
    4206:	0000                	unimp
    4208:	0019                	c.nop	6
    420a:	0000                	unimp
    420c:	0000                	unimp
    420e:	0000                	unimp
    4210:	0046                	c.slli	zero,0x11
    4212:	0000                	unimp
    4214:	00000013          	nop

0000000000004218 <.LJTI214_0>:
    4218:	2238                	fld	fa4,64(a2)
    421a:	0000                	unimp
    421c:	0000                	unimp
    421e:	0000                	unimp
    4220:	2254                	fld	fa3,128(a2)
    4222:	0000                	unimp
    4224:	0000                	unimp
    4226:	0000                	unimp
    4228:	2254                	fld	fa3,128(a2)
    422a:	0000                	unimp
    422c:	0000                	unimp
    422e:	0000                	unimp
    4230:	2254                	fld	fa3,128(a2)
    4232:	0000                	unimp
    4234:	0000                	unimp
    4236:	0000                	unimp
    4238:	2254                	fld	fa3,128(a2)
    423a:	0000                	unimp
    423c:	0000                	unimp
    423e:	0000                	unimp
    4240:	2254                	fld	fa3,128(a2)
    4242:	0000                	unimp
    4244:	0000                	unimp
    4246:	0000                	unimp
    4248:	2254                	fld	fa3,128(a2)
    424a:	0000                	unimp
    424c:	0000                	unimp
    424e:	0000                	unimp
    4250:	2254                	fld	fa3,128(a2)
    4252:	0000                	unimp
    4254:	0000                	unimp
    4256:	0000                	unimp
    4258:	2254                	fld	fa3,128(a2)
    425a:	0000                	unimp
    425c:	0000                	unimp
    425e:	0000                	unimp
    4260:	22ea                	fld	ft5,152(sp)
    4262:	0000                	unimp
    4264:	0000                	unimp
    4266:	0000                	unimp
    4268:	22fe                	fld	ft5,472(sp)
    426a:	0000                	unimp
    426c:	0000                	unimp
    426e:	0000                	unimp
    4270:	2254                	fld	fa3,128(a2)
    4272:	0000                	unimp
    4274:	0000                	unimp
    4276:	0000                	unimp
    4278:	2254                	fld	fa3,128(a2)
    427a:	0000                	unimp
    427c:	0000                	unimp
    427e:	0000                	unimp
    4280:	2308                	fld	fa0,0(a4)
    4282:	0000                	unimp
    4284:	0000                	unimp
    4286:	0000                	unimp
    4288:	2254                	fld	fa3,128(a2)
    428a:	0000                	unimp
    428c:	0000                	unimp
    428e:	0000                	unimp
    4290:	2254                	fld	fa3,128(a2)
    4292:	0000                	unimp
    4294:	0000                	unimp
    4296:	0000                	unimp
    4298:	2254                	fld	fa3,128(a2)
    429a:	0000                	unimp
    429c:	0000                	unimp
    429e:	0000                	unimp
    42a0:	2254                	fld	fa3,128(a2)
    42a2:	0000                	unimp
    42a4:	0000                	unimp
    42a6:	0000                	unimp
    42a8:	2254                	fld	fa3,128(a2)
    42aa:	0000                	unimp
    42ac:	0000                	unimp
    42ae:	0000                	unimp
    42b0:	2254                	fld	fa3,128(a2)
    42b2:	0000                	unimp
    42b4:	0000                	unimp
    42b6:	0000                	unimp
    42b8:	2254                	fld	fa3,128(a2)
    42ba:	0000                	unimp
    42bc:	0000                	unimp
    42be:	0000                	unimp
    42c0:	2254                	fld	fa3,128(a2)
    42c2:	0000                	unimp
    42c4:	0000                	unimp
    42c6:	0000                	unimp
    42c8:	2254                	fld	fa3,128(a2)
    42ca:	0000                	unimp
    42cc:	0000                	unimp
    42ce:	0000                	unimp
    42d0:	2254                	fld	fa3,128(a2)
    42d2:	0000                	unimp
    42d4:	0000                	unimp
    42d6:	0000                	unimp
    42d8:	2254                	fld	fa3,128(a2)
    42da:	0000                	unimp
    42dc:	0000                	unimp
    42de:	0000                	unimp
    42e0:	2254                	fld	fa3,128(a2)
    42e2:	0000                	unimp
    42e4:	0000                	unimp
    42e6:	0000                	unimp
    42e8:	2254                	fld	fa3,128(a2)
    42ea:	0000                	unimp
    42ec:	0000                	unimp
    42ee:	0000                	unimp
    42f0:	2254                	fld	fa3,128(a2)
    42f2:	0000                	unimp
    42f4:	0000                	unimp
    42f6:	0000                	unimp
    42f8:	2254                	fld	fa3,128(a2)
    42fa:	0000                	unimp
    42fc:	0000                	unimp
    42fe:	0000                	unimp
    4300:	2254                	fld	fa3,128(a2)
    4302:	0000                	unimp
    4304:	0000                	unimp
    4306:	0000                	unimp
    4308:	2254                	fld	fa3,128(a2)
    430a:	0000                	unimp
    430c:	0000                	unimp
    430e:	0000                	unimp
    4310:	2254                	fld	fa3,128(a2)
    4312:	0000                	unimp
    4314:	0000                	unimp
    4316:	0000                	unimp
    4318:	2254                	fld	fa3,128(a2)
    431a:	0000                	unimp
    431c:	0000                	unimp
    431e:	0000                	unimp
    4320:	2254                	fld	fa3,128(a2)
    4322:	0000                	unimp
    4324:	0000                	unimp
    4326:	0000                	unimp
    4328:	2268                	fld	fa0,192(a2)
    432a:	0000                	unimp
    432c:	0000                	unimp
    432e:	0000                	unimp
    4330:	2254                	fld	fa3,128(a2)
    4332:	0000                	unimp
    4334:	0000                	unimp
    4336:	0000                	unimp
    4338:	2254                	fld	fa3,128(a2)
    433a:	0000                	unimp
    433c:	0000                	unimp
    433e:	0000                	unimp
    4340:	2254                	fld	fa3,128(a2)
    4342:	0000                	unimp
    4344:	0000                	unimp
    4346:	0000                	unimp
    4348:	2254                	fld	fa3,128(a2)
    434a:	0000                	unimp
    434c:	0000                	unimp
    434e:	0000                	unimp
    4350:	22f4                	fld	fa3,192(a3)
    4352:	0000                	unimp
    4354:	0000                	unimp
	...

0000000000004358 <.Lanon.4be6c8c866b325639ca5cea174a3452e.170>:
    4358:	2e2e                	fld	ft8,200(sp)
    435a:	0000                	unimp
    435c:	0000                	unimp
    435e:	0000                	unimp
    4360:	6e69                	lui	t3,0x1a
    4362:	6564                	ld	s1,200(a0)
    4364:	2078                	fld	fa4,192(s0)
    4366:	2074756f          	jal	a0,4bd6c <end+0x2dd68>
    436a:	6220666f          	jal	a2,a98c <_ZN6kernel7console7CONSOLE17hf1f49ad43aab6abcE+0x53ac>
    436e:	646e756f          	jal	a0,eb9b4 <end+0xcd9b0>
    4372:	74203a73          	csrrc	s4,0x742,zero
    4376:	6568                	ld	a0,200(a0)
    4378:	6c20                	ld	s0,88(s0)
    437a:	6e65                	lui	t3,0x19
    437c:	6920                	ld	s0,80(a0)
    437e:	3c202073          	csrr	zero,pmpaddr18
    4382:	203d                	.insn	2, 0x203d
    4384:	2820                	fld	fs0,80(s0)
    4386:	7962                	ld	s2,56(sp)
    4388:	6574                	ld	a3,200(a0)
    438a:	          	csrs	0x633,s4

000000000000438c <.Lanon.4be6c8c866b325639ca5cea174a3452e.242>:
    438c:	                	ld	t1,392(sp)

000000000000438d <.Lanon.4be6c8c866b325639ca5cea174a3452e.254>:
    438d:	6c6c6163          	bltu	s8,t1,4a4f <.Lanon.4be6c8c866b325639ca5cea174a3452e.419+0x16b>
    4391:	6465                	lui	s0,0x19
    4393:	6020                	ld	s0,64(s0)
    4395:	6974704f          	fnmadd.s	ft0,fs0,fs7,fa3
    4399:	3a3a6e6f          	jal	t3,aaf3b <end+0x8cf37>
    439d:	6e75                	lui	t3,0x1d
    439f:	70617277          	.insn	4, 0x70617277
    43a3:	2928                	fld	fa0,80(a0)
    43a5:	2060                	fld	fs0,192(s0)
    43a7:	61206e6f          	jal	t3,a9b9 <_ZN6kernel7console7CONSOLE17hf1f49ad43aab6abcE+0x53d9>
    43ab:	6020                	ld	s0,64(s0)
    43ad:	6f4e                	ld	t5,208(sp)
    43af:	656e                	ld	a0,216(sp)
    43b1:	2060                	fld	fs0,192(s0)
    43b3:	6176                	ld	sp,344(sp)
    43b5:	756c                	ld	a1,232(a0)
    43b7:	                	add	sp,sp,25

00000000000043b8 <.Lanon.4be6c8c866b325639ca5cea174a3452e.255>:
    43b8:	0001                	nop
	...
    43c6:	0000                	unimp
    43c8:	438c                	lw	a1,0(a5)
    43ca:	0000                	unimp
    43cc:	0000                	unimp
    43ce:	0000                	unimp
    43d0:	0001                	nop
    43d2:	0000                	unimp
    43d4:	0000                	unimp
    43d6:	0000                	unimp
    43d8:	438c                	lw	a1,0(a5)
    43da:	0000                	unimp
    43dc:	0000                	unimp
    43de:	0000                	unimp
    43e0:	0001                	nop
    43e2:	0000                	unimp
    43e4:	0000                	unimp
	...

00000000000043e8 <.Lanon.4be6c8c866b325639ca5cea174a3452e.256>:
    43e8:	6170                	ld	a2,192(a0)
    43ea:	696e                	ld	s2,216(sp)
    43ec:	64656b63          	bltu	a0,t1,4a42 <.Lanon.4be6c8c866b325639ca5cea174a3452e.419+0x15e>
    43f0:	6120                	ld	s0,64(a0)
    43f2:	2074                	fld	fa3,192(s0)

00000000000043f4 <.Lanon.4be6c8c866b325639ca5cea174a3452e.257>:
    43f4:	0a3a                	sll	s4,s4,0xe

00000000000043f6 <.Lanon.4be6c8c866b325639ca5cea174a3452e.264>:
    43f6:	6220                	ld	s0,64(a2)
    43f8:	7475                	lui	s0,0xffffd
    43fa:	7420                	ld	s0,104(s0)
    43fc:	6568                	ld	a0,200(a0)
    43fe:	6920                	ld	s0,80(a0)
    4400:	646e                	ld	s0,216(sp)
    4402:	7865                	lui	a6,0xffff9
    4404:	6920                	ld	s0,80(a0)
    4406:	          	csrr	zero,0x436

0000000000004408 <.Lanon.4be6c8c866b325639ca5cea174a3452e.265>:
    4408:	4360                	lw	s0,68(a4)
    440a:	0000                	unimp
    440c:	0000                	unimp
    440e:	0000                	unimp
    4410:	0020                	add	s0,sp,8
    4412:	0000                	unimp
    4414:	0000                	unimp
    4416:	0000                	unimp
    4418:	43f6                	lw	t2,92(sp)
    441a:	0000                	unimp
    441c:	0000                	unimp
    441e:	0000                	unimp
    4420:	0012                	c.slli	zero,0x4
    4422:	0000                	unimp
    4424:	0000                	unimp
	...

0000000000004428 <.Lanon.4be6c8c866b325639ca5cea174a3452e.284>:
    4428:	203a                	fld	ft0,392(sp)
    442a:	0000                	unimp
    442c:	0000                	unimp
	...

0000000000004430 <.Lanon.4be6c8c866b325639ca5cea174a3452e.285>:
    4430:	0001                	nop
	...
    443e:	0000                	unimp
    4440:	4428                	lw	a0,72(s0)
    4442:	0000                	unimp
    4444:	0000                	unimp
    4446:	0000                	unimp
    4448:	0002                	c.slli64	zero
    444a:	0000                	unimp
    444c:	0000                	unimp
	...

0000000000004450 <.Lanon.4be6c8c866b325639ca5cea174a3452e.314>:
    4450:	696c                	ld	a1,208(a0)
    4452:	7262                	ld	tp,56(sp)
    4454:	7261                	lui	tp,0xffff8
    4456:	2f79                	addw	t5,t5,30
    4458:	65726f63          	bltu	tp,s7,4ab6 <.Lanon.4be6c8c866b325639ca5cea174a3452e.420+0x10>
    445c:	6372732f          	.insn	4, 0x6372732f
    4460:	746d662f          	.insn	4, 0x746d662f
    4464:	6d756e2f          	.insn	4, 0x6d756e2f
    4468:	722e                	ld	tp,232(sp)
    446a:	          	csrc	0x7,a6

000000000000446b <.Lanon.4be6c8c866b325639ca5cea174a3452e.315>:
    446b:	7830                	ld	a2,112(s0)
    446d:	0000                	unimp
	...

0000000000004470 <.Lanon.4be6c8c866b325639ca5cea174a3452e.316>:
    4470:	4450                	lw	a2,12(s0)
    4472:	0000                	unimp
    4474:	0000                	unimp
    4476:	0000                	unimp
    4478:	0000001b          	sext.w	zero,zero
    447c:	0000                	unimp
    447e:	0000                	unimp
    4480:	0069                	c.nop	26
    4482:	0000                	unimp
    4484:	00000017          	auipc	zero,0x0

0000000000004488 <.Lanon.4be6c8c866b325639ca5cea174a3452e.319>:
    4488:	3030                	fld	fa2,96(s0)
    448a:	3130                	fld	fa2,96(a0)
    448c:	3230                	fld	fa2,96(a2)
    448e:	3330                	fld	fa2,96(a4)
    4490:	3430                	fld	fa2,104(s0)
    4492:	3530                	fld	fa2,104(a0)
    4494:	3630                	fld	fa2,104(a2)
    4496:	3730                	fld	fa2,104(a4)
    4498:	3830                	fld	fa2,112(s0)
    449a:	3930                	fld	fa2,112(a0)
    449c:	3031                	.insn	2, 0x3031
    449e:	3131                	addw	sp,sp,-20
    44a0:	3231                	addw	tp,tp,-20 # ffffffffffff7fec <end+0xfffffffffffd9fe8>
    44a2:	3331                	addw	t1,t1,-20
    44a4:	3431                	addw	s0,s0,-20 # ffffffffffffcfec <end+0xfffffffffffdefe8>
    44a6:	3531                	addw	a0,a0,-20
    44a8:	3631                	addw	a2,a2,-20
    44aa:	3731                	addw	a4,a4,-20
    44ac:	3831                	addw	a6,a6,-20 # ffffffffffff8fec <end+0xfffffffffffdafe8>
    44ae:	3931                	addw	s2,s2,-20
    44b0:	3032                	fld	ft0,296(sp)
    44b2:	3132                	fld	ft2,296(sp)
    44b4:	3232                	fld	ft4,296(sp)
    44b6:	3332                	fld	ft6,296(sp)
    44b8:	3432                	fld	fs0,296(sp)
    44ba:	3532                	fld	fa0,296(sp)
    44bc:	3632                	fld	fa2,296(sp)
    44be:	3732                	fld	fa4,296(sp)
    44c0:	3832                	fld	fa6,296(sp)
    44c2:	3932                	fld	fs2,296(sp)
    44c4:	31333033          	.insn	4, 0x31333033
    44c8:	33333233          	.insn	4, 0x33333233
    44cc:	35333433          	.insn	4, 0x35333433
    44d0:	37333633          	.insn	4, 0x37333633
    44d4:	39333833          	.insn	4, 0x39333833
    44d8:	3034                	fld	fa3,96(s0)
    44da:	3134                	fld	fa3,96(a0)
    44dc:	3234                	fld	fa3,96(a2)
    44de:	3334                	fld	fa3,96(a4)
    44e0:	3434                	fld	fa3,104(s0)
    44e2:	3534                	fld	fa3,104(a0)
    44e4:	3634                	fld	fa3,104(a2)
    44e6:	3734                	fld	fa3,104(a4)
    44e8:	3834                	fld	fa3,112(s0)
    44ea:	3934                	fld	fa3,112(a0)
    44ec:	3035                	.insn	2, 0x3035
    44ee:	3135                	addw	sp,sp,-19
    44f0:	3235                	addw	tp,tp,-19 # ffffffffffffffed <end+0xfffffffffffe1fe9>
    44f2:	3335                	addw	t1,t1,-19
    44f4:	3435                	addw	s0,s0,-19
    44f6:	3535                	addw	a0,a0,-19
    44f8:	3635                	addw	a2,a2,-19
    44fa:	3735                	addw	a4,a4,-19
    44fc:	3835                	addw	a6,a6,-19
    44fe:	3935                	addw	s2,s2,-19
    4500:	3036                	fld	ft0,360(sp)
    4502:	3136                	fld	ft2,360(sp)
    4504:	3236                	fld	ft4,360(sp)
    4506:	3336                	fld	ft6,360(sp)
    4508:	3436                	fld	fs0,360(sp)
    450a:	3536                	fld	fa0,360(sp)
    450c:	3636                	fld	fa2,360(sp)
    450e:	3736                	fld	fa4,360(sp)
    4510:	3836                	fld	fa6,360(sp)
    4512:	3936                	fld	fs2,360(sp)
    4514:	31373037          	lui	zero,0x31373
    4518:	33373237          	lui	tp,0x33373
    451c:	35373437          	lui	s0,0x35373
    4520:	37373637          	lui	a2,0x37373
    4524:	39373837          	lui	a6,0x39373
    4528:	3038                	fld	fa4,96(s0)
    452a:	3138                	fld	fa4,96(a0)
    452c:	3238                	fld	fa4,96(a2)
    452e:	3338                	fld	fa4,96(a4)
    4530:	3438                	fld	fa4,104(s0)
    4532:	3538                	fld	fa4,104(a0)
    4534:	3638                	fld	fa4,104(a2)
    4536:	3738                	fld	fa4,104(a4)
    4538:	3838                	fld	fa4,112(s0)
    453a:	3938                	fld	fa4,112(a0)
    453c:	3039                	.insn	2, 0x3039
    453e:	3139                	addw	sp,sp,-18
    4540:	3239                	addw	tp,tp,-18 # 33372fee <end+0x33354fea>
    4542:	3339                	addw	t1,t1,-18
    4544:	3439                	addw	s0,s0,-18 # 35372fee <end+0x35354fea>
    4546:	3539                	addw	a0,a0,-18
    4548:	3639                	addw	a2,a2,-18 # 37372fee <end+0x37354fea>
    454a:	3739                	addw	a4,a4,-18
    454c:	3839                	addw	a6,a6,-18 # 39372fee <end+0x39354fea>
    454e:	3939                	addw	s2,s2,-18

0000000000004550 <.Lanon.4be6c8c866b325639ca5cea174a3452e.339>:
    4550:	6172                	ld	sp,280(sp)
    4552:	676e                	ld	a4,216(sp)
    4554:	2065                	.insn	2, 0x2065
    4556:	72617473          	csrrc	s0,mhpmevent6h,2
    455a:	2074                	fld	fa3,192(s0)
    455c:	6e69                	lui	t3,0x1a
    455e:	6564                	ld	s1,200(a0)
    4560:	2078                	fld	fa4,192(s0)

0000000000004562 <.Lanon.4be6c8c866b325639ca5cea174a3452e.340>:
    4562:	6f20                	ld	s0,88(a4)
    4564:	7475                	lui	s0,0xffffd
    4566:	6f20                	ld	s0,88(a4)
    4568:	2066                	fld	ft0,88(sp)
    456a:	6172                	ld	sp,280(sp)
    456c:	676e                	ld	a4,216(sp)
    456e:	2065                	.insn	2, 0x2065
    4570:	6f66                	ld	t5,88(sp)
    4572:	2072                	fld	ft0,280(sp)
    4574:	63696c73          	csrrs	s8,0x636,18
    4578:	2065                	.insn	2, 0x2065
    457a:	6c20666f          	jal	a2,ac3c <_ZN6kernel7console7CONSOLE17hf1f49ad43aab6abcE+0x565c>
    457e:	6e65                	lui	t3,0x19
    4580:	20687467          	.insn	4, 0x20687467
    4584:	0000                	unimp
	...

0000000000004588 <.Lanon.4be6c8c866b325639ca5cea174a3452e.341>:
    4588:	4550                	lw	a2,12(a0)
    458a:	0000                	unimp
    458c:	0000                	unimp
    458e:	0000                	unimp
    4590:	0012                	c.slli	zero,0x4
    4592:	0000                	unimp
    4594:	0000                	unimp
    4596:	0000                	unimp
    4598:	4562                	lw	a0,24(sp)
    459a:	0000                	unimp
    459c:	0000                	unimp
    459e:	0000                	unimp
    45a0:	0022                	c.slli	zero,0x8
    45a2:	0000                	unimp
    45a4:	0000                	unimp
	...

00000000000045a8 <.Lanon.4be6c8c866b325639ca5cea174a3452e.343>:
    45a8:	40d8                	lw	a4,4(s1)
    45aa:	0000                	unimp
    45ac:	0000                	unimp
    45ae:	0000                	unimp
    45b0:	0010                	.insn	2, 0x0010
    45b2:	0000                	unimp
    45b4:	0000                	unimp
    45b6:	0000                	unimp
    45b8:	4562                	lw	a0,24(sp)
    45ba:	0000                	unimp
    45bc:	0000                	unimp
    45be:	0000                	unimp
    45c0:	0022                	c.slli	zero,0x8
    45c2:	0000                	unimp
    45c4:	0000                	unimp
	...

00000000000045c8 <.Lanon.4be6c8c866b325639ca5cea174a3452e.344>:
    45c8:	63696c73          	csrrs	s8,0x636,18
    45cc:	2065                	.insn	2, 0x2065
    45ce:	6e69                	lui	t3,0x1a
    45d0:	6564                	ld	s1,200(a0)
    45d2:	2078                	fld	fa4,192(s0)
    45d4:	72617473          	csrrc	s0,mhpmevent6h,2
    45d8:	7374                	ld	a3,224(a4)
    45da:	6120                	ld	s0,64(a0)
    45dc:	2074                	fld	fa3,192(s0)

00000000000045de <.Lanon.4be6c8c866b325639ca5cea174a3452e.345>:
    45de:	6220                	ld	s0,64(a2)
    45e0:	7475                	lui	s0,0xffffd
    45e2:	6520                	ld	s0,72(a0)
    45e4:	646e                	ld	s0,216(sp)
    45e6:	74612073          	csrs	0x746,sp
    45ea:	0020                	add	s0,sp,8
    45ec:	0000                	unimp
	...

00000000000045f0 <.Lanon.4be6c8c866b325639ca5cea174a3452e.346>:
    45f0:	45c8                	lw	a0,12(a1)
    45f2:	0000                	unimp
    45f4:	0000                	unimp
    45f6:	0000                	unimp
    45f8:	0016                	c.slli	zero,0x5
    45fa:	0000                	unimp
    45fc:	0000                	unimp
    45fe:	0000                	unimp
    4600:	45de                	lw	a1,212(sp)
    4602:	0000                	unimp
    4604:	0000                	unimp
    4606:	0000                	unimp
    4608:	000d                	c.nop	3
    460a:	0000                	unimp
    460c:	0000                	unimp
	...

0000000000004610 <.Lanon.4be6c8c866b325639ca5cea174a3452e.385>:
    4610:	2e2e2e5b          	.insn	4, 0x2e2e2e5b
    4614:	                	lui	tp,0x17

0000000000004615 <.Lanon.4be6c8c866b325639ca5cea174a3452e.386>:
    4615:	6562                	ld	a0,24(sp)
    4617:	206e6967          	.insn	4, 0x206e6967
    461b:	3d3c                	fld	fa5,120(a0)
    461d:	6520                	ld	s0,72(a0)
    461f:	646e                	ld	s0,216(sp)
    4621:	2820                	fld	fs0,80(s0)

0000000000004623 <.Lanon.4be6c8c866b325639ca5cea174a3452e.389>:
    4623:	0060                	add	s0,sp,12
    4625:	0000                	unimp
	...

0000000000004628 <.Lanon.4be6c8c866b325639ca5cea174a3452e.390>:
    4628:	4615                	li	a2,5
    462a:	0000                	unimp
    462c:	0000                	unimp
    462e:	0000                	unimp
    4630:	000e                	c.slli	zero,0x3
    4632:	0000                	unimp
    4634:	0000                	unimp
    4636:	0000                	unimp
    4638:	4380                	lw	s0,0(a5)
    463a:	0000                	unimp
    463c:	0000                	unimp
    463e:	0000                	unimp
    4640:	0004                	.insn	2, 0x0004
    4642:	0000                	unimp
    4644:	0000                	unimp
    4646:	0000                	unimp
    4648:	40c8                	lw	a0,4(s1)
    464a:	0000                	unimp
    464c:	0000                	unimp
    464e:	0000                	unimp
    4650:	0010                	.insn	2, 0x0010
    4652:	0000                	unimp
    4654:	0000                	unimp
    4656:	0000                	unimp
    4658:	00004623          	.insn	4, 0x4623
    465c:	0000                	unimp
    465e:	0000                	unimp
    4660:	0001                	nop
    4662:	0000                	unimp
    4664:	0000                	unimp
	...

0000000000004668 <.Lanon.4be6c8c866b325639ca5cea174a3452e.391>:
    4668:	7962                	ld	s2,56(sp)
    466a:	6574                	ld	a3,200(a0)
    466c:	6920                	ld	s0,80(a0)
    466e:	646e                	ld	s0,216(sp)
    4670:	7865                	lui	a6,0xffff9
    4672:	                	fld	fs0,64(s0)

0000000000004673 <.Lanon.4be6c8c866b325639ca5cea174a3452e.392>:
    4673:	6920                	ld	s0,80(a0)
    4675:	6f6e2073          	csrs	0x6f6,t3
    4679:	2074                	fld	fa3,192(s0)
    467b:	2061                	.insn	2, 0x2061
    467d:	72616863          	bltu	sp,t1,4dad <.Lanon.4be6c8c866b325639ca5cea174a3452e.439+0xd>
    4681:	6220                	ld	s0,64(a2)
    4683:	646e756f          	jal	a0,ebcc9 <end+0xcdcc5>
    4687:	7261                	lui	tp,0xffff8
    4689:	3b79                	addw	s6,s6,-2
    468b:	6920                	ld	s0,80(a0)
    468d:	2074                	fld	fa3,192(s0)
    468f:	7369                	lui	t1,0xffffa
    4691:	6920                	ld	s0,80(a0)
    4693:	736e                	ld	t1,248(sp)
    4695:	6469                	lui	s0,0x1a
    4697:	2065                	.insn	2, 0x2065

0000000000004699 <.Lanon.4be6c8c866b325639ca5cea174a3452e.394>:
    4699:	2029                	.insn	2, 0x2029
    469b:	6020666f          	jal	a2,ac9d <_ZN6kernel7console7CONSOLE17hf1f49ad43aab6abcE+0x56bd>
	...

00000000000046a0 <.Lanon.4be6c8c866b325639ca5cea174a3452e.395>:
    46a0:	4668                	lw	a0,76(a2)
    46a2:	0000                	unimp
    46a4:	0000                	unimp
    46a6:	0000                	unimp
    46a8:	0000000b          	.insn	4, 0x000b
    46ac:	0000                	unimp
    46ae:	0000                	unimp
    46b0:	00004673          	.insn	4, 0x4673
    46b4:	0000                	unimp
    46b6:	0000                	unimp
    46b8:	0026                	c.slli	zero,0x9
    46ba:	0000                	unimp
    46bc:	0000                	unimp
    46be:	0000                	unimp
    46c0:	4384                	lw	s1,0(a5)
    46c2:	0000                	unimp
    46c4:	0000                	unimp
    46c6:	0000                	unimp
    46c8:	0008                	.insn	2, 0x0008
    46ca:	0000                	unimp
    46cc:	0000                	unimp
    46ce:	0000                	unimp
    46d0:	4699                	li	a3,6
    46d2:	0000                	unimp
    46d4:	0000                	unimp
    46d6:	0000                	unimp
    46d8:	0006                	c.slli	zero,0x1
    46da:	0000                	unimp
    46dc:	0000                	unimp
    46de:	0000                	unimp
    46e0:	00004623          	.insn	4, 0x4623
    46e4:	0000                	unimp
    46e6:	0000                	unimp
    46e8:	0001                	nop
    46ea:	0000                	unimp
    46ec:	0000                	unimp
	...

00000000000046f0 <.Lanon.4be6c8c866b325639ca5cea174a3452e.396>:
    46f0:	6920                	ld	s0,80(a0)
    46f2:	756f2073          	csrs	0x756,t5
    46f6:	2074                	fld	fa3,192(s0)
    46f8:	6220666f          	jal	a2,ad1a <_ZN6kernel7console7CONSOLE17hf1f49ad43aab6abcE+0x573a>
    46fc:	646e756f          	jal	a0,ebd42 <end+0xcdd3e>
    4700:	666f2073          	csrs	0x666,t5
    4704:	6020                	ld	s0,64(s0)
	...

0000000000004708 <.Lanon.4be6c8c866b325639ca5cea174a3452e.397>:
    4708:	4668                	lw	a0,76(a2)
    470a:	0000                	unimp
    470c:	0000                	unimp
    470e:	0000                	unimp
    4710:	0000000b          	.insn	4, 0x000b
    4714:	0000                	unimp
    4716:	0000                	unimp
    4718:	46f0                	lw	a2,76(a3)
    471a:	0000                	unimp
    471c:	0000                	unimp
    471e:	0000                	unimp
    4720:	0016                	c.slli	zero,0x5
    4722:	0000                	unimp
    4724:	0000                	unimp
    4726:	0000                	unimp
    4728:	00004623          	.insn	4, 0x4623
    472c:	0000                	unimp
    472e:	0000                	unimp
    4730:	0001                	nop
    4732:	0000                	unimp
    4734:	0000                	unimp
	...

0000000000004738 <.Lanon.4be6c8c866b325639ca5cea174a3452e.398>:
    4738:	696c                	ld	a1,208(a0)
    473a:	7262                	ld	tp,56(sp)
    473c:	7261                	lui	tp,0xffff8
    473e:	2f79                	addw	t5,t5,30
    4740:	65726f63          	bltu	tp,s7,4d9e <.Lanon.4be6c8c866b325639ca5cea174a3452e.428+0x16>
    4744:	6372732f          	.insn	4, 0x6372732f
    4748:	7274732f          	.insn	4, 0x7274732f
    474c:	646f6d2f          	.insn	4, 0x646f6d2f
    4750:	722e                	ld	tp,232(sp)
    4752:	00000073          	ecall
	...

0000000000004758 <.Lanon.4be6c8c866b325639ca5cea174a3452e.399>:
    4758:	4738                	lw	a4,72(a4)
    475a:	0000                	unimp
    475c:	0000                	unimp
    475e:	0000                	unimp
    4760:	0000001b          	sext.w	zero,zero
    4764:	0000                	unimp
    4766:	0000                	unimp
    4768:	0105                	add	sp,sp,1
    476a:	0000                	unimp
    476c:	002c                	add	a1,sp,8
	...

0000000000004770 <.Lanon.4be6c8c866b325639ca5cea174a3452e.414>:
    4770:	696c                	ld	a1,208(a0)
    4772:	7262                	ld	tp,56(sp)
    4774:	7261                	lui	tp,0xffff8
    4776:	2f79                	addw	t5,t5,30
    4778:	65726f63          	bltu	tp,s7,4dd6 <.Lanon.4be6c8c866b325639ca5cea174a3452e.440+0x16>
    477c:	6372732f          	.insn	4, 0x6372732f
    4780:	696e752f          	.insn	4, 0x696e752f
    4784:	65646f63          	bltu	s0,s6,4de2 <_ZN4core7unicode12unicode_data15grapheme_extend17SHORT_OFFSET_RUNS17h4b195488a367f00eE+0xa>
    4788:	6972702f          	.insn	4, 0x6972702f
    478c:	746e                	ld	s0,248(sp)
    478e:	6261                	lui	tp,0x18
    4790:	656c                	ld	a1,200(a0)
    4792:	722e                	ld	tp,232(sp)
    4794:	00000073          	ecall

0000000000004798 <.Lanon.4be6c8c866b325639ca5cea174a3452e.415>:
    4798:	4770                	lw	a2,76(a4)
    479a:	0000                	unimp
    479c:	0000                	unimp
    479e:	0000                	unimp
    47a0:	0025                	c.nop	9
    47a2:	0000                	unimp
    47a4:	0000                	unimp
    47a6:	0000                	unimp
    47a8:	001a                	c.slli	zero,0x6
    47aa:	0000                	unimp
    47ac:	0036                	c.slli	zero,0xd
	...

00000000000047b0 <.Lanon.4be6c8c866b325639ca5cea174a3452e.416>:
    47b0:	4770                	lw	a2,76(a4)
    47b2:	0000                	unimp
    47b4:	0000                	unimp
    47b6:	0000                	unimp
    47b8:	0025                	c.nop	9
    47ba:	0000                	unimp
    47bc:	0000                	unimp
    47be:	0000                	unimp
    47c0:	000a                	c.slli	zero,0x2
    47c2:	0000                	unimp
    47c4:	0000002b          	.insn	4, 0x002b

00000000000047c8 <.Lanon.4be6c8c866b325639ca5cea174a3452e.417>:
    47c8:	0600                	add	s0,sp,768
    47ca:	0101                	add	sp,sp,0
    47cc:	02040103          	lb	sp,32(s0) # 1a020 <_ZN6kernel2fs5FILES17ha4962b5e3f59440dE+0x4020>
    47d0:	0705                	add	a4,a4,1
    47d2:	08080207          	.insn	4, 0x08080207
    47d6:	0209                	add	tp,tp,2 # 18002 <_ZN6kernel2fs5FILES17ha4962b5e3f59440dE+0x2002>
    47d8:	050a                	sll	a0,a0,0x2
    47da:	040e020b          	.insn	4, 0x040e020b
    47de:	0110                	add	a2,sp,128
    47e0:	0211                	add	tp,tp,4 # 4 <.Lline_table_start0+0x4>
    47e2:	0512                	sll	a0,a0,0x4
    47e4:	01141113          	sll	sp,s0,0x11
    47e8:	0215                	add	tp,tp,5 # 5 <.Lline_table_start0+0x5>
    47ea:	0d190217          	auipc	tp,0xd190
    47ee:	051c                	add	a5,sp,640
    47f0:	081d                	add	a6,a6,7 # ffffffffffff9007 <end+0xfffffffffffdb003>
    47f2:	011f 0124 046a      	.insn	6, 0x046a0124011f
    47f8:	03af026b          	.insn	4, 0x03af026b
    47fc:	02b1                	add	t0,t0,12
    47fe:	02bc                	add	a5,sp,328
    4800:	02d102cf          	fnmadd.d	ft5,ft2,fa3,ft0,rne
    4804:	0cd4                	add	a3,sp,596
    4806:	09d5                	add	s3,s3,21
    4808:	02d6                	sll	t0,t0,0x15
    480a:	01da02d7          	.insn	4, 0x01da02d7
    480e:	05e0                	add	s0,sp,716
    4810:	02e1                	add	t0,t0,24
    4812:	02e804e7          	jalr	s1,46(a6)
    4816:	20ee                	fld	ft1,216(sp)
    4818:	04f0                	add	a2,sp,588
    481a:	02f8                	add	a4,sp,332
    481c:	03fa                	sll	t2,t2,0x1e
    481e:	          	.insn	4, 0x270c01fb

0000000000004820 <.Lanon.4be6c8c866b325639ca5cea174a3452e.418>:
    4820:	270c                	fld	fa1,8(a4)
    4822:	4f4e3e3b          	.insn	4, 0x4f4e3e3b
    4826:	9f9e9e8f          	.insn	4, 0x9f9e9e8f
    482a:	96938b7b          	.insn	4, 0x96938b7b
    482e:	b2a2                	fsd	fs0,352(sp)
    4830:	86ba                	mv	a3,a4
    4832:	06b1                	add	a3,a3,12
    4834:	3d360907          	.insn	4, 0x3d360907
    4838:	563e                	lw	a2,236(sp)
    483a:	04d1d0f3          	csrrw	ra,0x4d,3
    483e:	1814                	add	a3,sp,48
    4840:	3736                	fld	fa4,360(sp)
    4842:	5756                	lw	a4,116(sp)
    4844:	aa7f afae 35bd 12e0 	.insn	14, 0x0d049e8e898712e035bdafaeaa7f
    484c:	8987 9e8e 0d04 
    4852:	110e                	sll	sp,sp,0x23
    4854:	2912                	fld	fs2,256(sp)
    4856:	3431                	addw	s0,s0,-20
    4858:	453a                	lw	a0,140(sp)
    485a:	4946                	lw	s2,80(sp)
    485c:	4e4a                	lw	t3,144(sp)
    485e:	5c65644f          	.insn	4, 0x5c65644f
    4862:	b7b6                	fsd	fa3,488(sp)
    4864:	08071c1b          	.insn	4, 0x08071c1b
    4868:	0b0a                	sll	s6,s6,0x2
    486a:	1714                	add	a3,sp,928
    486c:	3936                	fld	fs2,360(sp)
    486e:	a83a                	fsd	fa4,16(sp)
    4870:	d8a9                	beqz	s1,47c2 <.Lanon.4be6c8c866b325639ca5cea174a3452e.416+0x12>
    4872:	09d9                	add	s3,s3,22
    4874:	a8919037          	lui	zero,0xa8919
    4878:	3e3b0a07          	.insn	4, 0x3e3b0a07
    487c:	6966                	ld	s2,88(sp)
    487e:	6f11928f          	.insn	4, 0x6f11928f
    4882:	bf5f efee 625a      	.insn	6, 0x625aefeebf5f
    4888:	fcf4                	sd	a3,248(s1)
    488a:	9a5453ff 272f2e9b 	.insn	20, 0xbcbaada8a7a4a3a1a09d5528272f2e9b9a5453ff
    4892:	a09d5528 a7a4a3a1 
    489a:	bcbaada8 
    489e:	06c4                	add	s1,sp,836
    48a0:	1d150c0b          	.insn	4, 0x1d150c0b
    48a4:	3f3a                	fld	ft10,424(sp)
    48a6:	5145                	li	sp,-15
    48a8:	a7a6                	fsd	fs1,456(sp)
    48aa:	cdcc                	sw	a1,28(a1)
    48ac:	07a0                	add	s0,sp,968
    48ae:	1a19                	add	s4,s4,-26
    48b0:	2522                	fld	fa0,8(sp)
    48b2:	3f3e                	fld	ft10,488(sp)
    48b4:	ffefece7          	.insn	4, 0xffefece7
    48b8:	c6c5                	beqz	a3,4960 <.Lanon.4be6c8c866b325639ca5cea174a3452e.419+0x7c>
    48ba:	2004                	fld	fs1,0(s0)
    48bc:	28262523          	sw	sp,650(a2)
    48c0:	483a3833          	.insn	4, 0x483a3833
    48c4:	4c4a                	lw	s8,144(sp)
    48c6:	5350                	lw	a2,36(a4)
    48c8:	5655                	li	a2,-11
    48ca:	5a58                	lw	a4,52(a2)
    48cc:	5e5c                	lw	a5,60(a2)
    48ce:	6360                	ld	s0,192(a4)
    48d0:	6665                	lui	a2,0x19
    48d2:	7d78736b          	.insn	4, 0x7d78736b
    48d6:	8a7f aaa4 b0af d0c0 	.insn	10, 0xafaed0c0b0afaaa48a7f
    48de:	afae 
    48e0:	6f6e                	ld	t5,216(sp)
    48e2:	93be                	add	t2,t2,a5

00000000000048e4 <.Lanon.4be6c8c866b325639ca5cea174a3452e.419>:
    48e4:	225e                	fld	ft4,464(sp)
    48e6:	0403057b          	.insn	4, 0x0403057b
    48ea:	032d                	add	t1,t1,11 # ffffffffffffa00b <end+0xfffffffffffdc007>
    48ec:	0366                	sll	t1,t1,0x19
    48ee:	2f01                	sext.w	t5,t5
    48f0:	802e                	c.mv	zero,a1
    48f2:	1d82                	sll	s11,s11,0x20
    48f4:	1c0f3103          	ld	sp,448(t5)
    48f8:	2404                	fld	fs1,8(s0)
    48fa:	1e09                	add	t3,t3,-30 # 19fe2 <_ZN6kernel2fs5FILES17ha4962b5e3f59440dE+0x3fe2>
    48fc:	2b05                	addw	s6,s6,1
    48fe:	4405                	li	s0,1
    4900:	0e04                	add	s1,sp,784
    4902:	802a                	c.mv	zero,a0
    4904:	06aa                	sll	a3,a3,0xa
    4906:	0424                	add	s1,sp,520
    4908:	0424                	add	s1,sp,520
    490a:	0828                	add	a0,sp,24
    490c:	0b34                	add	a3,sp,408
    490e:	434e                	lw	t1,208(sp)
    4910:	3781                	addw	a5,a5,-32
    4912:	1609                	add	a2,a2,-30 # 18fe2 <_ZN6kernel2fs5FILES17ha4962b5e3f59440dE+0x2fe2>
    4914:	080a                	sll	a6,a6,0x2
    4916:	3b18                	fld	fa4,48(a4)
    4918:	3945                	addw	s2,s2,-15
    491a:	09086303          	lwu	t1,144(a6)
    491e:	1630                	add	a2,sp,808
    4920:	2105                	addw	sp,sp,1
    4922:	01051b03          	lh	s6,16(a0)
    4926:	3840                	fld	fs0,176(s0)
    4928:	4b04                	lw	s1,16(a4)
    492a:	2f05                	addw	t5,t5,1
    492c:	0a04                	add	s1,sp,272
    492e:	40070907          	.insn	4, 0x40070907
    4932:	2720                	fld	fs0,72(a4)
    4934:	0c04                	add	s1,sp,528
    4936:	3609                	addw	a2,a2,-30
    4938:	1a053a03          	ld	s4,416(a0)
    493c:	070c0407          	.insn	4, 0x070c0407
    4940:	4950                	lw	a2,20(a0)
    4942:	330d3337          	lui	t1,0x330d3
    4946:	0a082e07          	flw	ft8,160(a6)
    494a:	2681                	sext.w	a3,a3
    494c:	4b52                	lw	s6,20(sp)
    494e:	162a082b          	.insn	4, 0x162a082b
    4952:	261a                	fld	fa2,384(sp)
    4954:	141c                	add	a5,sp,544
    4956:	044e0917          	auipc	s2,0x44e0
    495a:	0924                	add	s1,sp,152
    495c:	0d44                	add	s1,sp,660
    495e:	0719                	add	a4,a4,6
    4960:	060a                	sll	a2,a2,0x2
    4962:	0848                	add	a0,sp,20
    4964:	0b750927          	.insn	4, 0x0b750927
    4968:	3e42                	fld	ft8,48(sp)
    496a:	062a                	sll	a2,a2,0xa
    496c:	060a053b          	.insn	4, 0x060a053b
    4970:	0651                	add	a2,a2,20
    4972:	0501                	add	a0,a0,0
    4974:	0310                	add	a2,sp,384
    4976:	8005                	srl	s0,s0,0x1
    4978:	481e628b          	.insn	4, 0x481e628b
    497c:	0a08                	add	a0,sp,272
    497e:	a680                	fsd	fs0,8(a3)
    4980:	225e                	fld	ft4,464(sp)
    4982:	0b45                	add	s6,s6,17
    4984:	060a                	sll	a2,a2,0x2
    4986:	130d                	add	t1,t1,-29 # 330d2fe3 <end+0x330b4fdf>
    4988:	063a                	sll	a2,a2,0xe
    498a:	360a                	fld	fa2,160(sp)
    498c:	042c                	add	a1,sp,520
    498e:	3cb98017          	auipc	zero,0x3cb98
    4992:	5364                	lw	s1,100(a4)
    4994:	480c                	lw	a1,16(s0)
    4996:	0a09                	add	s4,s4,2
    4998:	4546                	lw	a0,80(sp)
    499a:	5308481b          	.insn	4, 0x5308481b
    499e:	490d                	li	s2,3
    49a0:	f6800a07          	.insn	4, 0xf6800a07
    49a4:	0a46                	sll	s4,s4,0x11
    49a6:	031d                	add	t1,t1,7
    49a8:	03374947          	fmsub.d	fs2,fa4,fs3,ft0,rmm
    49ac:	080e                	sll	a6,a6,0x3
    49ae:	060a                	sll	a2,a2,0x2
    49b0:	0739                	add	a4,a4,14
    49b2:	810a                	mv	sp,sp
    49b4:	1936                	sll	s2,s2,0x2d
    49b6:	1c033b07          	fld	fs6,448(t1)
    49ba:	0156                	sll	sp,sp,0x15
    49bc:	830d320f          	.insn	4, 0x830d320f
    49c0:	0b75669b          	.insn	4, 0x0b75669b
    49c4:	c480                	sw	s0,8(s1)
    49c6:	4c8a                	lw	s9,128(sp)
    49c8:	30840d63          	beq	s0,s0,4ce2 <.Lanon.4be6c8c866b325639ca5cea174a3452e.422+0xcc>
    49cc:	1610                	add	a2,sp,800
    49ce:	4782aa8f          	.insn	4, 0x4782aa8f
    49d2:	b9a1                	j	462a <.Lanon.4be6c8c866b325639ca5cea174a3452e.390+0x2>
    49d4:	3982                	fld	fs3,32(sp)
    49d6:	5c042a07          	flw	fs4,1472(s0)
    49da:	2606                	fld	fa2,64(sp)
    49dc:	460a                	lw	a2,128(sp)
    49de:	280a                	fld	fa6,128(sp)
    49e0:	1305                	add	t1,t1,-31
    49e2:	b082                	fsd	ft0,96(sp)
    49e4:	044b655b          	.insn	4, 0x044b655b
    49e8:	0739                	add	a4,a4,14
    49ea:	4011                	c.li	zero,4
    49ec:	0b05                	add	s6,s6,1
    49ee:	0e02                	c.slli64	t3
    49f0:	8408f897          	auipc	a7,0x8408f
    49f4:	2ad6                	fld	fs5,336(sp)
    49f6:	a209                	j	4af8 <.Lanon.4be6c8c866b325639ca5cea174a3452e.421+0x2>
    49f8:	0f3381e7          	jalr	gp,243(t2)
    49fc:	1d01                	add	s10,s10,-32
    49fe:	0e06                	sll	t3,t3,0x1
    4a00:	0804                	add	s1,sp,16
    4a02:	8c81                	sub	s1,s1,s0
    4a04:	0489                	add	s1,s1,2
    4a06:	030d056b          	.insn	4, 0x030d056b
    4a0a:	0709                	add	a4,a4,2
    4a0c:	9210                	.insn	2, 0x9210
    4a0e:	4760                	lw	s0,76(a4)
    4a10:	7409                	lui	s0,0xfffe2
    4a12:	803c                	.insn	2, 0x803c
    4a14:	0af6                	sll	s5,s5,0x1d
    4a16:	15700873          	.insn	4, 0x15700873
    4a1a:	7a46                	ld	s4,112(sp)
    4a1c:	0c14                	add	a3,sp,528
    4a1e:	0c14                	add	a3,sp,528
    4a20:	80190957          	.insn	4, 0x80190957
    4a24:	03478187          	.insn	4, 0x03478187
    4a28:	4285                	li	t0,1
    4a2a:	5084150f          	.insn	4, 0x5084150f
    4a2e:	061f 8006 2bd5      	.insn	6, 0x2bd58006061f
    4a34:	3e05                	addw	t3,t3,-31
    4a36:	0121                	add	sp,sp,8
    4a38:	2d70                	fld	fa2,216(a0)
    4a3a:	02041a03          	lh	s4,32(s0) # fffffffffffe2020 <end+0xfffffffffffc401c>
    4a3e:	4081                	li	ra,0
    4a40:	111f 053a 8101      	.insn	6, 0x8101053a111f
    4a46:	2ad0                	fld	fa2,144(a3)
    4a48:	e682                	sd	zero,328(sp)
    4a4a:	f780                	sd	s0,40(a5)
    4a4c:	4c29                	li	s8,10
    4a4e:	0a04                	add	s1,sp,272
    4a50:	0204                	add	s1,sp,256
    4a52:	4c441183          	lh	gp,1220(s0)
    4a56:	803d                	srl	s0,s0,0xf
    4a58:	3cc2                	fld	fs9,48(sp)
    4a5a:	0106                	sll	sp,sp,0x1
    4a5c:	5504                	lw	s1,40(a0)
    4a5e:	1b05                	add	s6,s6,-31
    4a60:	0234                	add	a3,sp,264
    4a62:	0e81                	add	t4,t4,0
    4a64:	042c                	add	a1,sp,520
    4a66:	0c64                	add	s1,sp,540
    4a68:	0a56                	sll	s4,s4,0x15
    4a6a:	ae80                	fsd	fs0,24(a3)
    4a6c:	1d38                	add	a4,sp,696
    4a6e:	2c0d                	addw	s8,s8,3 # 19003 <_ZN6kernel2fs5FILES17ha4962b5e3f59440dE+0x3003>
    4a70:	0904                	add	s1,sp,144
    4a72:	060e0207          	.insn	4, 0x060e0207
    4a76:	9a80                	.insn	2, 0x9a80
    4a78:	1104d883          	lhu	a7,272(s1)
    4a7c:	77030d03          	lb	s10,1904(t1)
    4a80:	5f04                	lw	s1,56(a4)
    4a82:	0c06                	sll	s8,s8,0x1
    4a84:	0104                	add	s1,sp,128
    4a86:	38040c0f          	.insn	4, 0x38040c0f
    4a8a:	0a08                	add	a0,sp,272
    4a8c:	2806                	fld	fa6,64(sp)
    4a8e:	2208                	fld	fa0,0(a2)
    4a90:	814e                	mv	sp,s3
    4a92:	0c54                	add	a3,sp,532
    4a94:	031d                	add	t1,t1,7
    4a96:	0709                	add	a4,a4,2
    4a98:	0836                	sll	a6,a6,0xd
    4a9a:	040e                	sll	s0,s0,0x3
    4a9c:	0709                	add	a4,a4,2
    4a9e:	0709                	add	a4,a4,2
    4aa0:	cb80                	sw	s0,16(a5)
    4aa2:	0a25                	add	s4,s4,9
    4aa4:	0684                	add	s1,sp,832

0000000000004aa6 <.Lanon.4be6c8c866b325639ca5cea174a3452e.420>:
    4aa6:	0100                	add	s0,sp,128
    4aa8:	06050503          	lb	a0,96(a0)
    4aac:	0206                	sll	tp,tp,0x1
    4aae:	07080607          	.insn	4, 0x07080607
    4ab2:	1109                	add	sp,sp,-30
    4ab4:	1c0a                	sll	s8,s8,0x22
    4ab6:	1a0c190b          	.insn	4, 0x1a0c190b
    4aba:	100d                	c.nop	-29
    4abc:	0c0e                	sll	s8,s8,0x3
    4abe:	0310040f          	.insn	4, 0x0310040f
    4ac2:	1212                	sll	tp,tp,0x24
    4ac4:	01160913          	add	s2,a2,17
    4ac8:	01180417          	auipc	s0,0x1180
    4acc:	0319                	add	t1,t1,6
    4ace:	071a                	sll	a4,a4,0x6
    4ad0:	021c011b          	addw	sp,s8,33
    4ad4:	161f 0320 032b      	.insn	6, 0x032b0320161f
    4ada:	0b2d                	add	s6,s6,11
    4adc:	012e                	sll	sp,sp,0xb
    4ade:	0430                	add	a2,sp,520
    4ae0:	0231                	add	tp,tp,12 # d1947f6 <end+0xd1767f2>
    4ae2:	0132                	sll	sp,sp,0xc
    4ae4:	02a902a7          	.insn	4, 0x02a902a7
    4ae8:	04aa                	sll	s1,s1,0xa
    4aea:	02fa08ab          	.insn	4, 0x02fa08ab
    4aee:	02fd05fb          	.insn	4, 0x02fd05fb
    4af2:	03fe                	sll	t2,t2,0x1f
    4af4:	09ff    	.insn	10, 0x5730a28d8b7978ad09ff
    4afc:	 

0000000000004af6 <.Lanon.4be6c8c866b325639ca5cea174a3452e.421>:
    4af6:	78ad                	lui	a7,0xfffeb
    4af8:	8b79                	and	a4,a4,30
    4afa:	a28d                	j	4c5c <.Lanon.4be6c8c866b325639ca5cea174a3452e.422+0x46>
    4afc:	5730                	lw	a2,104(a4)
    4afe:	8b58                	.insn	2, 0x8b58
    4b00:	908c                	.insn	2, 0x908c
    4b02:	dd1c                	sw	a5,56(a0)
    4b04:	0f0e                	sll	t5,t5,0x3
    4b06:	fcfb4c4b          	.insn	4, 0xfcfb4c4b
    4b0a:	2f2e                	fld	ft10,200(sp)
    4b0c:	5f5d5c3f 8e8d84e2 	.insn	8, 0x8e8d84e25f5d5c3f
    4b14:	9291                	srl	a3,a3,0x24
    4b16:	b1a9                	j	4760 <.Lanon.4be6c8c866b325639ca5cea174a3452e.399+0x8>
    4b18:	bbba                	fsd	fa4,496(sp)
    4b1a:	c6c5                	beqz	a3,4bc2 <.Lanon.4be6c8c866b325639ca5cea174a3452e.421+0xcc>
    4b1c:	cac9                	beqz	a3,4bae <.Lanon.4be6c8c866b325639ca5cea174a3452e.421+0xb8>
    4b1e:	e4de                	sd	s7,72(sp)
    4b20:	ffe5                	bnez	a5,4b18 <.Lanon.4be6c8c866b325639ca5cea174a3452e.421+0x22>
    4b22:	0400                	add	s0,sp,512
    4b24:	1211                	add	tp,tp,-28 # ffffffffffffffe4 <end+0xfffffffffffe1fe0>
    4b26:	3129                	addw	sp,sp,-22
    4b28:	3734                	fld	fa3,104(a4)
    4b2a:	3b3a                	fld	fs6,424(sp)
    4b2c:	493d                	li	s2,15
    4b2e:	5d4a                	lw	s10,176(sp)
    4b30:	8e84                	.insn	2, 0x8e84
    4b32:	a992                	fsd	ft4,208(sp)
    4b34:	b4b1                	j	4580 <.Lanon.4be6c8c866b325639ca5cea174a3452e.340+0x1e>
    4b36:	bbba                	fsd	fa4,496(sp)
    4b38:	cac6                	sw	a7,84(sp)
    4b3a:	cfce                	sw	s3,220(sp)
    4b3c:	e5e4                	sd	s1,200(a1)
    4b3e:	0400                	add	s0,sp,512
    4b40:	0e0d                	add	t3,t3,3
    4b42:	1211                	add	tp,tp,-28 # ffffffffffffffe4 <end+0xfffffffffffe1fe0>
    4b44:	3129                	addw	sp,sp,-22
    4b46:	3a34                	fld	fa3,112(a2)
    4b48:	4946453b          	.insn	4, 0x4946453b
    4b4c:	5e4a                	lw	t3,176(sp)
    4b4e:	6564                	ld	s1,200(a0)
    4b50:	9184                	.insn	2, 0x9184
    4b52:	cec99d9b          	.insn	4, 0xcec99d9b
    4b56:	29110dcf          	fnmadd.s	fs11,ft2,fa7,ft5,rne
    4b5a:	3b3a                	fld	fs6,424(sp)
    4b5c:	4945                	li	s2,17
    4b5e:	5e5c5b57          	.insn	4, 0x5e5c5b57
    4b62:	645f 8d65 a991      	.insn	6, 0xa9918d65645f
    4b68:	bab4                	fsd	fa3,112(a3)
    4b6a:	dfc9c5bb          	.insn	4, 0xdfc9c5bb
    4b6e:	e5e4                	sd	s1,200(a1)
    4b70:	0df0                	add	a2,sp,732
    4b72:	4511                	li	a0,4
    4b74:	6449                	lui	s0,0x12
    4b76:	8065                	srl	s0,s0,0x19
    4b78:	b284                	fsd	fs1,32(a3)
    4b7a:	bebc                	fsd	fa5,120(a3)
    4b7c:	f0d7d5bf 8b8583f1 	.insn	8, 0x8b8583f1f0d7d5bf
    4b84:	a6a4                	fsd	fs1,72(a3)
    4b86:	bfbe                	fsd	fa5,504(sp)
    4b88:	c7c5                	beqz	a5,4c30 <.Lanon.4be6c8c866b325639ca5cea174a3452e.422+0x1a>
    4b8a:	48dbdacf          	fnmadd.s	fs5,fs7,fa3,fs1,unknown
    4b8e:	bd98                	fsd	fa4,56(a1)
    4b90:	c6cd                	beqz	a3,4c3a <.Lanon.4be6c8c866b325639ca5cea174a3452e.422+0x24>
    4b92:	cfce                	sw	s3,220(sp)
    4b94:	4e49                	li	t3,18
    4b96:	5e59574f          	.insn	4, 0x5e59574f
    4b9a:	895f 8f8e b6b1      	.insn	6, 0xb6b18f8e895f
    4ba0:	c6c1bfb7          	lui	t6,0xc6c1b
    4ba4:	1611d7c7          	.insn	4, 0x1611d7c7
    4ba8:	f65c5b17          	auipc	s6,0xf65c5
    4bac:	80fffef7          	.insn	4, 0x80fffef7
    4bb0:	716d                	add	sp,sp,-272
    4bb2:	dfde                	sw	s7,252(sp)
    4bb4:	1f0e                	sll	t5,t5,0x23
    4bb6:	6f6e                	ld	t5,216(sp)
    4bb8:	1d1c                	add	a5,sp,688
    4bba:	7d5f ae7e 7faf      	.insn	6, 0x7fafae7e7d5f
    4bc0:	1716bcbb          	.insn	4, 0x1716bcbb
    4bc4:	1f1e                	sll	t5,t5,0x27
    4bc6:	4746                	lw	a4,80(sp)
    4bc8:	4f4e                	lw	t5,208(sp)
    4bca:	5a58                	lw	a4,52(a2)
    4bcc:	5e5c                	lw	a5,60(a2)
    4bce:	7f7e                	ld	t5,504(sp)
    4bd0:	c5b5                	beqz	a1,4c3c <.Lanon.4be6c8c866b325639ca5cea174a3452e.422+0x26>
    4bd2:	d5d4                	sw	a3,44(a1)
    4bd4:	f0dc                	sd	a5,160(s1)
    4bd6:	f5f1                	bnez	a1,4ba2 <.Lanon.4be6c8c866b325639ca5cea174a3452e.421+0xac>
    4bd8:	7372                	ld	t1,312(sp)
    4bda:	9675748f          	.insn	4, 0x9675748f
    4bde:	2e26                	fld	ft8,72(sp)
    4be0:	b7afa72f          	.insn	4, 0xb7afa72f
    4be4:	d7cfc7bf 40009adf 	.insn	8, 0x40009adfd7cfc7bf
    4bec:	8f309897          	auipc	a7,0x8f309
    4bf0:	d21f ced4 4eff      	.insn	6, 0x4effced4d21f
    4bf6:	075b5a4f          	.insn	4, 0x075b5a4f
    4bfa:	0f08                	add	a0,sp,912
    4bfc:	2710                	fld	fa2,8(a4)
    4bfe:	6eefee2f          	.insn	4, 0x6eefee2f
    4c02:	3f3d376f          	jal	a4,d87f4 <end+0xba7f0>
    4c06:	4542                	lw	a0,16(sp)
    4c08:	9190                	.insn	2, 0x9190
    4c0a:	c8756753          	.insn	4, 0xc8756753
    4c0e:	d0c9                	beqz	s1,4b90 <.Lanon.4be6c8c866b325639ca5cea174a3452e.421+0x9a>
    4c10:	d8d1                	beqz	s1,4ba4 <.Lanon.4be6c8c866b325639ca5cea174a3452e.421+0xae>
    4c12:	e7d9                	bnez	a5,4ca0 <.Lanon.4be6c8c866b325639ca5cea174a3452e.422+0x8a>
    4c14:	fffe                	sd	t6,504(sp)

0000000000004c16 <.Lanon.4be6c8c866b325639ca5cea174a3452e.422>:
    4c16:	2000                	fld	fs0,0(s0)
    4c18:	225f df82 8204      	.insn	6, 0x8204df82225f
    4c1e:	0844                	add	s1,sp,20
    4c20:	1106041b          	addw	s0,a2,272
    4c24:	ac81                	j	4e74 <_ZN4core7unicode12unicode_data15grapheme_extend7OFFSETS17heca1bffa0b52a2aeE+0x18>
    4c26:	800e                	c.mv	zero,gp
    4c28:	091f05ab          	.insn	4, 0x091f05ab
    4c2c:	1b81                	add	s7,s7,-32
    4c2e:	01081903          	lh	s2,16(a6)
    4c32:	2f04                	fld	fs1,24(a4)
    4c34:	3404                	fld	fs1,40(s0)
    4c36:	0704                	add	s1,sp,896
    4c38:	06070103          	lb	sp,96(a4)
    4c3c:	500a1107          	.insn	4, 0x500a1107
    4c40:	5507120f          	.insn	4, 0x5507120f
    4c44:	1c040307          	.insn	4, 0x1c040307
    4c48:	090a                	sll	s2,s2,0x2
    4c4a:	07030803          	lb	a6,112(t1)
    4c4e:	03030203          	lb	tp,48(t1)
    4c52:	05040c03          	lb	s8,80(s0) # 12050 <_ZN6kernel7console7CONSOLE17hf1f49ad43aab6abcE+0xca70>
    4c56:	01060b03          	lb	s6,16(a2)
    4c5a:	150e                	sll	a0,a0,0x23
    4c5c:	4e05                	li	t3,1
    4c5e:	57071b07          	.insn	4, 0x57071b07
    4c62:	17060207          	.insn	4, 0x17060207
    4c66:	500c                	lw	a1,32(s0)
    4c68:	4304                	lw	s1,0(a4)
    4c6a:	01032d03          	lw	s10,16(t1)
    4c6e:	1104                	add	s1,sp,160
    4c70:	0f06                	sll	t5,t5,0x1
    4c72:	3a0c                	fld	fa1,48(a2)
    4c74:	1d04                	add	s1,sp,688
    4c76:	5f25                	li	t5,-23
    4c78:	6d20                	ld	s0,88(a0)
    4c7a:	6a04                	ld	s1,16(a2)
    4c7c:	8025                	srl	s0,s0,0x9
    4c7e:	05c8                	add	a0,sp,708
    4c80:	b082                	fsd	ft0,96(sp)
    4c82:	82061a03          	lh	s4,-2016(a2)
    4c86:	03fd                	add	t2,t2,31
    4c88:	0759                	add	a4,a4,22
    4c8a:	0916                	sll	s2,s2,0x5
    4c8c:	0918                	add	a4,sp,144
    4c8e:	0c14                	add	a3,sp,528
    4c90:	0c14                	add	a3,sp,528
    4c92:	066a                	sll	a2,a2,0x1a
    4c94:	060a                	sll	a2,a2,0x2
    4c96:	061a                	sll	a2,a2,0x6
    4c98:	0759                	add	a4,a4,22
    4c9a:	0a46052b          	.insn	4, 0x0a46052b
    4c9e:	042c                	add	a1,sp,520
    4ca0:	040c                	add	a1,sp,512
    4ca2:	0301                	add	t1,t1,0
    4ca4:	0b31                	add	s6,s6,12 # fffffffff65c9bb4 <end+0xfffffffff65abbb0>
    4ca6:	042c                	add	a1,sp,520
    4ca8:	061a                	sll	a2,a2,0x6
    4caa:	ac80030b          	.insn	4, 0xac80030b
    4cae:	0a06                	sll	s4,s4,0x1
    4cb0:	2f06                	fld	ft10,64(sp)
    4cb2:	4d31                	li	s10,12
    4cb4:	08a48003          	lb	zero,138(s1)
    4cb8:	033c                	add	a5,sp,392
    4cba:	073c030f          	.insn	4, 0x073c030f
    4cbe:	0838                	add	a4,sp,24
    4cc0:	ff82052b          	.insn	4, 0xff82052b
    4cc4:	1811                	add	a6,a6,-28
    4cc6:	2f08                	fld	fa0,24(a4)
    4cc8:	2d11                	addw	s10,s10,4
    4cca:	210f2103          	lw	sp,528(t5)
    4cce:	048c800f          	.insn	4, 0x048c800f
    4cd2:	9782                	jalr	a5
    4cd4:	0b19                	add	s6,s6,6
    4cd6:	8815                	and	s0,s0,5
    4cd8:	0594                	add	a3,sp,704
    4cda:	073b052f          	.insn	4, 0x073b052f
    4cde:	0e02                	c.slli64	t3
    4ce0:	0918                	add	a4,sp,144
    4ce2:	be80                	fsd	fs0,56(a3)
    4ce4:	7422                	ld	s0,40(sp)
    4ce6:	800c                	.insn	2, 0x800c
    4ce8:	1ad6                	sll	s5,s5,0x35
    4cea:	1081                	add	ra,ra,-32
    4cec:	8005                	srl	s0,s0,0x1
    4cee:	0bdf 9ef2 3703      	.insn	6, 0x37039ef20bdf
    4cf4:	8109                	srl	a0,a0,0x2
    4cf6:	145c                	add	a5,sp,548
    4cf8:	b880                	fsd	fs0,48(s1)
    4cfa:	8008                	.insn	2, 0x8008
    4cfc:	180a05cb          	fnmsub.s	fa1,fs4,ft0,ft3,rne
    4d00:	060a033b          	.insn	4, 0x060a033b
    4d04:	0838                	add	a4,sp,24
    4d06:	0846                	sll	a6,a6,0x11
    4d08:	060c                	add	a1,sp,768
    4d0a:	0b74                	add	a3,sp,412
    4d0c:	031e                	sll	t1,t1,0x7
    4d0e:	045a                	sll	s0,s0,0x16
    4d10:	0959                	add	s2,s2,22 # 44e496c <end+0x44c6968>
    4d12:	8380                	.insn	2, 0x8380
    4d14:	1c18                	add	a4,sp,560
    4d16:	160a                	sll	a2,a2,0x22
    4d18:	4c09                	li	s8,2
    4d1a:	8004                	.insn	2, 0x8004
    4d1c:	068a                	sll	a3,a3,0x2
    4d1e:	170ca4ab          	.insn	4, 0x170ca4ab
    4d22:	3104                	fld	fs1,32(a0)
    4d24:	04a1                	add	s1,s1,8
    4d26:	da81                	beqz	a3,4c36 <.Lanon.4be6c8c866b325639ca5cea174a3452e.422+0x20>
    4d28:	0726                	sll	a4,a4,0x9
    4d2a:	050c                	add	a1,sp,640
    4d2c:	8005                	srl	s0,s0,0x1
    4d2e:	10a6                	sll	ra,ra,0x29
    4d30:	f581                	bnez	a1,4c38 <.Lanon.4be6c8c866b325639ca5cea174a3452e.422+0x22>
    4d32:	2a200107          	.insn	4, 0x2a200107
    4d36:	4c06                	lw	s8,64(sp)
    4d38:	8004                	.insn	2, 0x8004
    4d3a:	048d                	add	s1,s1,3
    4d3c:	be80                	fsd	fs0,56(a3)
    4d3e:	0f031b03          	lh	s6,240(t1)
    4d42:	                	lui	s8,0x3

0000000000004d43 <.Lanon.4be6c8c866b325639ca5cea174a3452e.423>:
    4d43:	696c                	ld	a1,208(a0)
    4d45:	7262                	ld	tp,56(sp)
    4d47:	7261                	lui	tp,0xffff8
    4d49:	2f79                	addw	t5,t5,30
    4d4b:	65726f63          	bltu	tp,s7,53a9 <_ZN4core7unicode12unicode_data15grapheme_extend7OFFSETS17heca1bffa0b52a2aeE+0x54d>
    4d4f:	6372732f          	.insn	4, 0x6372732f
    4d53:	696e752f          	.insn	4, 0x696e752f
    4d57:	65646f63          	bltu	s0,s6,53b5 <_ZN4core7unicode12unicode_data15grapheme_extend7OFFSETS17heca1bffa0b52a2aeE+0x559>
    4d5b:	696e752f          	.insn	4, 0x696e752f
    4d5f:	65646f63          	bltu	s0,s6,53bd <_ZN4core7unicode12unicode_data15grapheme_extend7OFFSETS17heca1bffa0b52a2aeE+0x561>
    4d63:	645f 7461 2e61      	.insn	6, 0x2e617461645f
    4d69:	7372                	ld	t1,312(sp)
    4d6b:	0000                	unimp
    4d6d:	0000                	unimp
	...

0000000000004d70 <.Lanon.4be6c8c866b325639ca5cea174a3452e.427>:
    4d70:	00004d43          	fmadd.s	fs10,ft0,ft0,ft0,rmm
    4d74:	0000                	unimp
    4d76:	0000                	unimp
    4d78:	0028                	add	a0,sp,8
    4d7a:	0000                	unimp
    4d7c:	0000                	unimp
    4d7e:	0000                	unimp
    4d80:	0050                	add	a2,sp,4
    4d82:	0000                	unimp
    4d84:	0028                	add	a0,sp,8
	...

0000000000004d88 <.Lanon.4be6c8c866b325639ca5cea174a3452e.428>:
    4d88:	00004d43          	fmadd.s	fs10,ft0,ft0,ft0,rmm
    4d8c:	0000                	unimp
    4d8e:	0000                	unimp
    4d90:	0028                	add	a0,sp,8
    4d92:	0000                	unimp
    4d94:	0000                	unimp
    4d96:	0000                	unimp
    4d98:	005c                	add	a5,sp,4
    4d9a:	0000                	unimp
    4d9c:	0016                	c.slli	zero,0x5
	...

0000000000004da0 <.Lanon.4be6c8c866b325639ca5cea174a3452e.439>:
    4da0:	696c                	ld	a1,208(a0)
    4da2:	7262                	ld	tp,56(sp)
    4da4:	7261                	lui	tp,0xffff8
    4da6:	2f79                	addw	t5,t5,30
    4da8:	65726f63          	bltu	tp,s7,5406 <_ZN4core7unicode12unicode_data15grapheme_extend7OFFSETS17heca1bffa0b52a2aeE+0x5aa>
    4dac:	6372732f          	.insn	4, 0x6372732f
    4db0:	6373652f          	.insn	4, 0x6373652f
    4db4:	7061                	c.lui	zero,0xffff8
    4db6:	2e65                	addw	t3,t3,25
    4db8:	7372                	ld	t1,312(sp)
    4dba:	0000                	unimp
    4dbc:	0000                	unimp
	...

0000000000004dc0 <.Lanon.4be6c8c866b325639ca5cea174a3452e.440>:
    4dc0:	4da0                	lw	s0,88(a1)
    4dc2:	0000                	unimp
    4dc4:	0000                	unimp
    4dc6:	0000                	unimp
    4dc8:	001a                	c.slli	zero,0x6
    4dca:	0000                	unimp
    4dcc:	0000                	unimp
    4dce:	0000                	unimp
    4dd0:	004d                	c.nop	19
    4dd2:	0000                	unimp
    4dd4:	0005                	c.nop	1
	...

0000000000004dd8 <_ZN4core7unicode12unicode_data15grapheme_extend17SHORT_OFFSET_RUNS17h4b195488a367f00eE>:
    4dd8:	0300                	add	s0,sp,384
    4dda:	0000                	unimp
    4ddc:	00200483          	lb	s1,2(zero) # 2 <.Lline_table_start0+0x2>
    4de0:	0591                	add	a1,a1,4
    4de2:	0060                	add	s0,sp,12
    4de4:	135d                	add	t1,t1,-9
    4de6:	00a0                	add	s0,sp,72
    4de8:	1712                	sll	a4,a4,0x24
    4dea:	1f20                	add	s0,sp,952
    4dec:	200c                	fld	fa1,0(s0)
    4dee:	1f60                	add	s0,sp,956
    4df0:	2ba02cef          	jal	s9,70aa <_ZN6kernel7console7CONSOLE17hf1f49ad43aab6abcE+0x1aca>
    4df4:	302a                	fld	ft0,168(sp)
    4df6:	2c20                	fld	fs0,88(s0)
    4df8:	2ce0a66f          	jal	a2,f0c6 <_ZN6kernel7console7CONSOLE17hf1f49ad43aab6abcE+0x9ae6>
    4dfc:	a802                	fsd	ft0,16(sp)
    4dfe:	2d60                	fld	fs0,216(a0)
    4e00:	fb1e                	sd	t2,432(sp)
    4e02:	2e60                	fld	fs0,216(a2)
    4e04:	fe00                	sd	s0,56(a2)
    4e06:	3620                	fld	fs0,104(a2)
    4e08:	ff9e                	sd	t2,504(sp)
    4e0a:	3660                	fld	fs0,232(a2)
    4e0c:	01fd                	add	gp,gp,31
    4e0e:	36e1                	addw	a3,a3,-8
    4e10:	0a01                	add	s4,s4,0
    4e12:	3721                	addw	a4,a4,-24
    4e14:	0d24                	add	s1,sp,664
    4e16:	37e1                	addw	a5,a5,-8
    4e18:	39610eab          	.insn	4, 0x39610eab
    4e1c:	39a1182f          	.insn	4, 0x39a1182f
    4e20:	1c30                	add	a2,sp,568
    4e22:	4861                	li	a6,24
    4e24:	4ca11ef3          	csrrw	t4,0x4ca,sp
    4e28:	3440                	fld	fs0,168(s0)
    4e2a:	5061                	c.li	zero,-8
    4e2c:	6af0                	ld	a2,208(a3)
    4e2e:	51a1                	li	gp,-24
    4e30:	52216f4f          	fnmadd.d	ft10,ft2,ft2,fa0,unknown
    4e34:	bc9d                	j	48aa <.Lanon.4be6c8c866b325639ca5cea174a3452e.418+0x8a>
    4e36:	52a1                	li	t0,-24
    4e38:	cf00                	sw	s0,24(a4)
    4e3a:	5361                	li	t1,-8
    4e3c:	d165                	beqz	a0,4e1c <_ZN4core7unicode12unicode_data15grapheme_extend17SHORT_OFFSET_RUNS17h4b195488a367f00eE+0x44>
    4e3e:	53a1                	li	t2,-24
    4e40:	da00                	sw	s0,48(a2)
    4e42:	5421                	li	s0,-24
    4e44:	e000                	sd	s0,0(s0)
    4e46:	55e1                	li	a1,-8
    4e48:	e2ae                	sd	a1,320(sp)
    4e4a:	5761                	li	a4,-8
    4e4c:	e4ec                	sd	a1,200(s1)
    4e4e:	5921                	li	s2,-24
    4e50:	e8d0                	sd	a2,144(s1)
    4e52:	59a1                	li	s3,-24
    4e54:	0020                	add	s0,sp,8
    4e56:	59ee                	lw	s3,248(sp)
    4e58:	01f0                	add	a2,sp,204
    4e5a:	  	.insn	20, 0x15300b4801010201020101012d00070070005a7f
    4e62:	  
    4e6a:	 

0000000000004e5c <_ZN4core7unicode12unicode_data15grapheme_extend7OFFSETS17heca1bffa0b52a2aeE>:
    4e5c:	7000                	ld	s0,32(s0)
    4e5e:	0700                	add	s0,sp,896
    4e60:	2d00                	fld	fs0,24(a0)
    4e62:	0101                	add	sp,sp,0
    4e64:	0201                	add	tp,tp,0 # ffffffffffff8000 <end+0xfffffffffffd9ffc>
    4e66:	0201                	add	tp,tp,0 # 0 <.Lline_table_start0>
    4e68:	0101                	add	sp,sp,0
    4e6a:	0b48                	add	a0,sp,404
    4e6c:	1530                	add	a2,sp,680
    4e6e:	0110                	add	a2,sp,128
    4e70:	0765                	add	a4,a4,25
    4e72:	0602                	c.slli64	a2
    4e74:	0202                	c.slli64	tp
    4e76:	0401                	add	s0,s0,0
    4e78:	1b1e0123          	sb	a7,418(t3)
    4e7c:	093a0b5b          	.insn	4, 0x093a0b5b
    4e80:	0109                	add	sp,sp,2
    4e82:	0418                	add	a4,sp,512
    4e84:	0901                	add	s2,s2,0
    4e86:	0301                	add	t1,t1,0
    4e88:	0501                	add	a0,a0,0
    4e8a:	083c032b          	.insn	4, 0x083c032b
    4e8e:	182a                	sll	a6,a6,0x2a
    4e90:	2001                	.insn	2, 0x2001
    4e92:	01010137          	lui	sp,0x1010
    4e96:	0804                	add	s1,sp,16
    4e98:	0104                	add	s1,sp,128
    4e9a:	020a0703          	lb	a4,32(s4)
    4e9e:	011d                	add	sp,sp,7 # 1010007 <end+0xff2003>
    4ea0:	013a                	sll	sp,sp,0xe
    4ea2:	0101                	add	sp,sp,0
    4ea4:	0402                	c.slli64	s0
    4ea6:	0108                	add	a0,sp,128
    4ea8:	0109                	add	sp,sp,2
    4eaa:	020a                	sll	tp,tp,0x2
    4eac:	011a                	sll	sp,sp,0x6
    4eae:	0202                	c.slli64	tp
    4eb0:	0139                	add	sp,sp,14
    4eb2:	0204                	add	s1,sp,256
    4eb4:	0204                	add	s1,sp,256
    4eb6:	0302                	c.slli64	t1
    4eb8:	021e0103          	lb	sp,33(t3)
    4ebc:	020b0103          	lb	sp,32(s6)
    4ec0:	0139                	add	sp,sp,14
    4ec2:	0504                	add	s1,sp,640
    4ec4:	0201                	add	tp,tp,0 # 0 <.Lline_table_start0>
    4ec6:	0104                	add	s1,sp,128
    4ec8:	0214                	add	a3,sp,256
    4eca:	0616                	sll	a2,a2,0x5
    4ecc:	0101                	add	sp,sp,0
    4ece:	013a                	sll	sp,sp,0xe
    4ed0:	0201                	add	tp,tp,0 # 0 <.Lline_table_start0>
    4ed2:	0401                	add	s0,s0,0
    4ed4:	0108                	add	a0,sp,128
    4ed6:	020a0307          	.insn	4, 0x020a0307
    4eda:	011e                	sll	sp,sp,0x7
    4edc:	0101013b          	addw	sp,sp,a6
    4ee0:	010c                	add	a1,sp,128
    4ee2:	0109                	add	sp,sp,2
    4ee4:	0128                	add	a0,sp,136
    4ee6:	01370103          	lb	sp,19(a4)
    4eea:	0301                	add	t1,t1,0
    4eec:	0305                	add	t1,t1,1
    4eee:	0401                	add	s0,s0,0
    4ef0:	020b0207          	.insn	4, 0x020b0207
    4ef4:	011d                	add	sp,sp,7
    4ef6:	013a                	sll	sp,sp,0xe
    4ef8:	0102                	c.slli64	sp
    4efa:	0102                	c.slli64	sp
    4efc:	02050103          	lb	sp,32(a0)
    4f00:	020b0207          	.insn	4, 0x020b0207
    4f04:	021c                	add	a5,sp,256
    4f06:	0239                	add	tp,tp,14 # e <.Lline_table_start0+0xe>
    4f08:	0101                	add	sp,sp,0
    4f0a:	0402                	c.slli64	s0
    4f0c:	0108                	add	a0,sp,128
    4f0e:	0109                	add	sp,sp,2
    4f10:	020a                	sll	tp,tp,0x2
    4f12:	011d                	add	sp,sp,7
    4f14:	0148                	add	a0,sp,132
    4f16:	0104                	add	s1,sp,128
    4f18:	0302                	c.slli64	t1
    4f1a:	0101                	add	sp,sp,0
    4f1c:	0108                	add	a0,sp,128
    4f1e:	0151                	add	sp,sp,20
    4f20:	0702                	c.slli64	a4
    4f22:	080c                	add	a1,sp,16
    4f24:	0162                	sll	sp,sp,0x18
    4f26:	0902                	c.slli64	s2
    4f28:	0249070b          	.insn	4, 0x0249070b
    4f2c:	0101011b          	addw	sp,sp,16
    4f30:	0101                	add	sp,sp,0
    4f32:	05010e37          	lui	t3,0x5010
    4f36:	0201                	add	tp,tp,0 # 0 <.Lline_table_start0>
    4f38:	0b05                	add	s6,s6,1
    4f3a:	2401                	sext.w	s0,s0
    4f3c:	0109                	add	sp,sp,2
    4f3e:	0466                	sll	s0,s0,0x19
    4f40:	0601                	add	a2,a2,0
    4f42:	0201                	add	tp,tp,0 # 0 <.Lline_table_start0>
    4f44:	0202                	c.slli64	tp
    4f46:	0219                	add	tp,tp,6 # 6 <.Lline_table_start0+0x6>
    4f48:	0304                	add	s1,sp,384
    4f4a:	0410                	add	a2,sp,512
    4f4c:	010d                	add	sp,sp,3
    4f4e:	0202                	c.slli64	tp
    4f50:	0106                	sll	sp,sp,0x1
    4f52:	0300010f          	.insn	4, 0x0300010f
    4f56:	0300                	add	s0,sp,384
    4f58:	021d                	add	tp,tp,7 # 7 <.Lline_table_start0+0x7>
    4f5a:	021e                	sll	tp,tp,0x7
    4f5c:	021e                	sll	tp,tp,0x7
    4f5e:	0240                	add	s0,sp,260
    4f60:	0701                	add	a4,a4,0
    4f62:	0108                	add	a0,sp,128
    4f64:	0b02                	c.slli64	s6
    4f66:	0109                	add	sp,sp,2
    4f68:	032d                	add	t1,t1,11
    4f6a:	0101                	add	sp,sp,0
    4f6c:	0275                	add	tp,tp,29 # 1d <.Lline_table_start0+0x1d>
    4f6e:	0122                	sll	sp,sp,0x8
    4f70:	0376                	sll	t1,t1,0x1d
    4f72:	0204                	add	s1,sp,256
    4f74:	0109                	add	sp,sp,2
    4f76:	0306                	sll	t1,t1,0x1
    4f78:	010202db          	.insn	4, 0x010202db
    4f7c:	013a                	sll	sp,sp,0xe
    4f7e:	0701                	add	a4,a4,0
    4f80:	0101                	add	sp,sp,0
    4f82:	0101                	add	sp,sp,0
    4f84:	0802                	c.slli64	a6
    4f86:	0a06                	sll	s4,s4,0x1
    4f88:	0102                	c.slli64	sp
    4f8a:	1f30                	add	a2,sp,952
    4f8c:	0431                	add	s0,s0,12
    4f8e:	0730                	add	a2,sp,904
    4f90:	0101                	add	sp,sp,0
    4f92:	0105                	add	sp,sp,1
    4f94:	0928                	add	a0,sp,152
    4f96:	020c                	add	a1,sp,256
    4f98:	0420                	add	s0,sp,520
    4f9a:	0202                	c.slli64	tp
    4f9c:	0301                	add	t1,t1,0
    4f9e:	0138                	add	a4,sp,136
    4fa0:	0201                	add	tp,tp,0 # 0 <.Lline_table_start0>
    4fa2:	03010103          	lb	sp,48(sp)
    4fa6:	083a                	sll	a6,a6,0xe
    4fa8:	0202                	c.slli64	tp
    4faa:	0398                	add	a4,sp,448
    4fac:	0d01                	add	s10,s10,0
    4fae:	0701                	add	a4,a4,0
    4fb0:	0104                	add	s1,sp,128
    4fb2:	0106                	sll	sp,sp,0x1
    4fb4:	40c60203          	lb	tp,1036(a2)
    4fb8:	0100                	add	s0,sp,128
    4fba:	030021c3          	fmadd.d	ft3,ft0,fa6,ft0,rdn
    4fbe:	018d                	add	gp,gp,3
    4fc0:	2060                	fld	fs0,192(s0)
    4fc2:	0600                	add	s0,sp,768
    4fc4:	0269                	add	tp,tp,26 # 1a <.Lline_table_start0+0x1a>
    4fc6:	0400                	add	s0,sp,512
    4fc8:	0a01                	add	s4,s4,0
    4fca:	0220                	add	s0,sp,264
    4fcc:	0250                	add	a2,sp,260
    4fce:	0100                	add	s0,sp,128
    4fd0:	01040103          	lb	sp,16(s0)
    4fd4:	0219                	add	tp,tp,6 # 6 <.Lline_table_start0+0x6>
    4fd6:	0105                	add	sp,sp,1
    4fd8:	121a0297          	auipc	t0,0x121a0
    4fdc:	010d                	add	sp,sp,3
    4fde:	0826                	sll	a6,a6,0x9
    4fe0:	0b19                	add	s6,s6,6
    4fe2:	032e                	sll	t1,t1,0xb
    4fe4:	0130                	add	a2,sp,136
    4fe6:	0402                	c.slli64	s0
    4fe8:	0202                	c.slli64	tp
    4fea:	06430127          	.insn	4, 0x06430127
    4fee:	0202                	c.slli64	tp
    4ff0:	0202                	c.slli64	tp
    4ff2:	010c                	add	a1,sp,128
    4ff4:	0108                	add	a0,sp,128
    4ff6:	0133012f          	.insn	4, 0x0133012f
    4ffa:	0301                	add	t1,t1,0
    4ffc:	0202                	c.slli64	tp
    4ffe:	0205                	add	tp,tp,1 # 1 <.Lline_table_start0+0x1>
    5000:	0101                	add	sp,sp,0
    5002:	022a                	sll	tp,tp,0xa
    5004:	0108                	add	a0,sp,128
    5006:	01ee                	sll	gp,gp,0x1b
    5008:	0102                	c.slli64	sp
    500a:	0104                	add	s1,sp,128
    500c:	0100                	add	s0,sp,128
    500e:	1000                	add	s0,sp,32
    5010:	1010                	add	a2,sp,32
    5012:	0200                	add	s0,sp,256
    5014:	0100                	add	s0,sp,128
    5016:	01e2                	sll	gp,gp,0x18
    5018:	0595                	add	a1,a1,5
    501a:	0300                	add	s0,sp,384
    501c:	0201                	add	tp,tp,0 # 0 <.Lline_table_start0>
    501e:	0405                	add	s0,s0,1
    5020:	0328                	add	a0,sp,392
    5022:	0104                	add	s1,sp,128
    5024:	02a5                	add	t0,t0,9 # 121a4fe1 <end+0x12186fdd>
    5026:	0400                	add	s0,sp,512
    5028:	0200                	add	s0,sp,256
    502a:	0350                	add	a2,sp,388
    502c:	0b46                	sll	s6,s6,0x11
    502e:	0431                	add	s0,s0,12
    5030:	0f36017b          	.insn	4, 0x0f36017b
    5034:	0129                	add	sp,sp,10
    5036:	0202                	c.slli64	tp
    5038:	030a                	sll	t1,t1,0x2
    503a:	0431                	add	s0,s0,12
    503c:	0202                	c.slli64	tp
    503e:	033d0107          	.insn	4, 0x033d0107
    5042:	0524                	add	s1,sp,648
    5044:	0801                	add	a6,a6,0
    5046:	013e                	sll	sp,sp,0xf
    5048:	020c                	add	a1,sp,256
    504a:	0934                	add	a3,sp,152
    504c:	040a                	sll	s0,s0,0x2
    504e:	0102                	c.slli64	sp
    5050:	035f 0102 0201      	.insn	6, 0x02010102035f
    5056:	0106                	sll	sp,sp,0x1
    5058:	0102                	c.slli64	sp
    505a:	019d                	add	gp,gp,7
    505c:	02150803          	lb	a6,33(a0)
    5060:	0239                	add	tp,tp,14 # e <.Lline_table_start0+0xe>
    5062:	0101                	add	sp,sp,0
    5064:	0101                	add	sp,sp,0
    5066:	0116                	sll	sp,sp,0x5
    5068:	070e                	sll	a4,a4,0x3
    506a:	08c30503          	lb	a0,140(t1)
    506e:	0302                	c.slli64	t1
    5070:	0101                	add	sp,sp,0
    5072:	01510117          	auipc	sp,0x1510
    5076:	0602                	c.slli64	a2
    5078:	0101                	add	sp,sp,0 # 1515072 <end+0x14f706e>
    507a:	0102                	c.slli64	sp
    507c:	0201                	add	tp,tp,0 # 0 <.Lline_table_start0>
    507e:	0201                	add	tp,tp,0 # 0 <.Lline_table_start0>
    5080:	040201eb          	.insn	4, 0x040201eb
    5084:	0206                	sll	tp,tp,0x1
    5086:	0201                	add	tp,tp,0 # 0 <.Lline_table_start0>
    5088:	0855021b          	addw	tp,a0,133
    508c:	0102                	c.slli64	sp
    508e:	0201                	add	tp,tp,0 # 0 <.Lline_table_start0>
    5090:	016a                	sll	sp,sp,0x1a
    5092:	0101                	add	sp,sp,0
    5094:	0602                	c.slli64	a2
    5096:	0101                	add	sp,sp,0
    5098:	0365                	add	t1,t1,25
    509a:	0402                	c.slli64	s0
    509c:	0501                	add	a0,a0,0
    509e:	0900                	add	s0,sp,144
    50a0:	0201                	add	tp,tp,0 # 0 <.Lline_table_start0>
    50a2:	01f5                	add	gp,gp,29
    50a4:	020a                	sll	tp,tp,0x2
    50a6:	0101                	add	sp,sp,0
    50a8:	0104                	add	s1,sp,128
    50aa:	0490                	add	a2,sp,576
    50ac:	0202                	c.slli64	tp
    50ae:	0104                	add	s1,sp,128
    50b0:	0a20                	add	s0,sp,280
    50b2:	0628                	add	a0,sp,776
    50b4:	0402                	c.slli64	s0
    50b6:	0108                	add	a0,sp,128
    50b8:	0609                	add	a2,a2,2
    50ba:	0302                	c.slli64	t1
    50bc:	0d2e                	sll	s10,s10,0xb
    50be:	0201                	add	tp,tp,0 # 0 <.Lline_table_start0>
    50c0:	0700                	add	s0,sp,896
    50c2:	0601                	add	a2,a2,0
    50c4:	0101                	add	sp,sp,0
    50c6:	1652                	sll	a2,a2,0x34
    50c8:	0702                	c.slli64	a4
    50ca:	0201                	add	tp,tp,0 # 0 <.Lline_table_start0>
    50cc:	0201                	add	tp,tp,0 # 0 <.Lline_table_start0>
    50ce:	067a                	sll	a2,a2,0x1e
    50d0:	02010103          	lb	sp,32(sp)
    50d4:	0701                	add	a4,a4,0
    50d6:	0101                	add	sp,sp,0
    50d8:	0248                	add	a0,sp,260
    50da:	01010103          	lb	sp,16(sp)
    50de:	0200                	add	s0,sp,256
    50e0:	0534020b          	.insn	4, 0x0534020b
    50e4:	0105                	add	sp,sp,1
    50e6:	0101                	add	sp,sp,0
    50e8:	0100                	add	s0,sp,128
    50ea:	0f06                	sll	t5,t5,0x1
    50ec:	0500                	add	s0,sp,640
    50ee:	0100073b          	addw	a4,zero,a6
    50f2:	0151043f 2e000200 	.insn	8, 0x2e0002000151043f
    50fa:	1702                	sll	a4,a4,0x20
    50fc:	0100                	add	s0,sp,128
    50fe:	0301                	add	t1,t1,0
    5100:	0504                	add	s1,sp,640
    5102:	0808                	add	a0,sp,16
    5104:	0702                	c.slli64	a4
    5106:	041e                	sll	s0,s0,0x7
    5108:	0394                	add	a3,sp,448
    510a:	3700                	fld	fs0,40(a4)
    510c:	3204                	fld	fs1,32(a2)
    510e:	0108                	add	a0,sp,128
    5110:	010e                	sll	sp,sp,0x3
    5112:	0516                	sll	a0,a0,0x5
    5114:	0f01                	add	t5,t5,0
    5116:	0700                	add	s0,sp,896
    5118:	1101                	add	sp,sp,-32
    511a:	0702                	c.slli64	a4
    511c:	0201                	add	tp,tp,0 # 0 <.Lline_table_start0>
    511e:	0501                	add	a0,a0,0
    5120:	0164                	add	s1,sp,140
    5122:	07a0                	add	s0,sp,968
    5124:	0100                	add	s0,sp,128
    5126:	043d                	add	s0,s0,15
    5128:	0400                	add	s0,sp,512
    512a:	0700                	add	s0,sp,896
    512c:	076d                	add	a4,a4,27
    512e:	6000                	ld	s0,0(s0)
    5130:	f080                	sd	s0,32(s1)
	...

Disassembly of section .eh_frame:

0000000000005138 <.eh_frame>:
    5138:	0010                	.insn	2, 0x0010
    513a:	0000                	unimp
    513c:	0000                	unimp
    513e:	0000                	unimp
    5140:	7a01                	lui	s4,0xfffe0
    5142:	0052                	c.slli	zero,0x14
    5144:	7801                	lui	a6,0xfffe0
    5146:	0101                	add	sp,sp,0
    5148:	00020c1b          	sext.w	s8,tp
    514c:	0020                	add	s0,sp,8
    514e:	0000                	unimp
    5150:	0018                	.insn	2, 0x0018
    5152:	0000                	unimp
    5154:	c7ac                	sw	a1,72(a5)
    5156:	ffff                	.insn	2, 0xffff
    5158:	0054                	add	a3,sp,4
    515a:	0000                	unimp
    515c:	4200                	lw	s0,0(a2)
    515e:	200e                	fld	ft0,192(sp)
    5160:	8148                	.insn	2, 0x8148
    5162:	8801                	and	s0,s0,0
    5164:	8902                	jr	s2
    5166:	42049203          	lh	tp,1056(s1)
    516a:	080c                	add	a1,sp,16
    516c:	0000                	unimp
    516e:	0000                	unimp
    5170:	001c                	.insn	2, 0x001c
    5172:	0000                	unimp
    5174:	003c                	add	a5,sp,8
    5176:	0000                	unimp
    5178:	c7dc                	sw	a5,12(a5)
    517a:	ffff                	.insn	2, 0xffff
    517c:	001e                	c.slli	zero,0x7
    517e:	0000                	unimp
    5180:	4200                	lw	s0,0(a2)
    5182:	100e                	c.slli	zero,0x23
    5184:	8144                	.insn	2, 0x8144
    5186:	8801                	and	s0,s0,0
    5188:	4202                	lw	tp,0(sp)
    518a:	080c                	add	a1,sp,16
    518c:	0000                	unimp
    518e:	0000                	unimp
    5190:	001c                	.insn	2, 0x001c
    5192:	0000                	unimp
    5194:	005c                	add	a5,sp,4
    5196:	0000                	unimp
    5198:	c7da                	sw	s6,204(sp)
    519a:	ffff                	.insn	2, 0xffff
    519c:	001e                	c.slli	zero,0x7
    519e:	0000                	unimp
    51a0:	4200                	lw	s0,0(a2)
    51a2:	100e                	c.slli	zero,0x23
    51a4:	8144                	.insn	2, 0x8144
    51a6:	8801                	and	s0,s0,0
    51a8:	4202                	lw	tp,0(sp)
    51aa:	080c                	add	a1,sp,16
    51ac:	0000                	unimp
    51ae:	0000                	unimp
    51b0:	0024                	add	s1,sp,8
    51b2:	0000                	unimp
    51b4:	007c                	add	a5,sp,12
    51b6:	0000                	unimp
    51b8:	c7d8                	sw	a4,12(a5)
    51ba:	ffff                	.insn	2, 0xffff
    51bc:	0100                	add	s0,sp,128
    51be:	0000                	unimp
    51c0:	4200                	lw	s0,0(a2)
    51c2:	a00e                	fsd	ft3,0(sp)
    51c4:	4e01                	li	t3,0
    51c6:	0181                	add	gp,gp,0
    51c8:	0288                	add	a0,sp,320
    51ca:	0389                	add	t2,t2,2
    51cc:	0492                	sll	s1,s1,0x4
    51ce:	06940593          	add	a1,s0,105
    51d2:	0795                	add	a5,a5,5
    51d4:	0c42                	sll	s8,s8,0x10
    51d6:	0008                	.insn	2, 0x0008
    51d8:	001c                	.insn	2, 0x001c
    51da:	0000                	unimp
    51dc:	00a4                	add	s1,sp,72
    51de:	0000                	unimp
    51e0:	c8b0                	sw	a2,80(s1)
    51e2:	ffff                	.insn	2, 0xffff
    51e4:	0042                	c.slli	zero,0x10
    51e6:	0000                	unimp
    51e8:	4200                	lw	s0,0(a2)
    51ea:	500e                	.insn	2, 0x500e
    51ec:	8144                	.insn	2, 0x8144
    51ee:	8801                	and	s0,s0,0
    51f0:	4202                	lw	tp,0(sp)
    51f2:	080c                	add	a1,sp,16
    51f4:	0000                	unimp
    51f6:	0000                	unimp
    51f8:	001c                	.insn	2, 0x001c
    51fa:	0000                	unimp
    51fc:	00c4                	add	s1,sp,68
    51fe:	0000                	unimp
    5200:	c8d2                	sw	s4,80(sp)
    5202:	ffff                	.insn	2, 0xffff
    5204:	003a                	c.slli	zero,0xe
    5206:	0000                	unimp
    5208:	4200                	lw	s0,0(a2)
    520a:	500e                	.insn	2, 0x500e
    520c:	8144                	.insn	2, 0x8144
    520e:	8801                	and	s0,s0,0
    5210:	4202                	lw	tp,0(sp)
    5212:	080c                	add	a1,sp,16
    5214:	0000                	unimp
    5216:	0000                	unimp
    5218:	001c                	.insn	2, 0x001c
    521a:	0000                	unimp
    521c:	00e4                	add	s1,sp,76
    521e:	0000                	unimp
    5220:	c8ec                	sw	a1,84(s1)
    5222:	ffff                	.insn	2, 0xffff
    5224:	0060                	add	s0,sp,12
    5226:	0000                	unimp
    5228:	4200                	lw	s0,0(a2)
    522a:	700e                	.insn	2, 0x700e
    522c:	8144                	.insn	2, 0x8144
    522e:	8801                	and	s0,s0,0
    5230:	4202                	lw	tp,0(sp)
    5232:	080c                	add	a1,sp,16
    5234:	0000                	unimp
    5236:	0000                	unimp
    5238:	001c                	.insn	2, 0x001c
    523a:	0000                	unimp
    523c:	0104                	add	s1,sp,128
    523e:	0000                	unimp
    5240:	c92c                	sw	a1,80(a0)
    5242:	ffff                	.insn	2, 0xffff
    5244:	0070                	add	a2,sp,12
    5246:	0000                	unimp
    5248:	4200                	lw	s0,0(a2)
    524a:	800e                	c.mv	zero,gp
    524c:	4401                	li	s0,0
    524e:	0181                	add	gp,gp,0
    5250:	0288                	add	a0,sp,320
    5252:	0c42                	sll	s8,s8,0x10
    5254:	0008                	.insn	2, 0x0008
    5256:	0000                	unimp
    5258:	002c                	add	a1,sp,8
    525a:	0000                	unimp
    525c:	0124                	add	s1,sp,136
    525e:	0000                	unimp
    5260:	c97c                	sw	a5,84(a0)
    5262:	ffff                	.insn	2, 0xffff
    5264:	01b4                	add	a3,sp,200
    5266:	0000                	unimp
    5268:	4200                	lw	s0,0(a2)
    526a:	900e                	c.add	zero,gp
    526c:	5401                	li	s0,-32
    526e:	0181                	add	gp,gp,0
    5270:	0288                	add	a0,sp,320
    5272:	0389                	add	t2,t2,2
    5274:	0492                	sll	s1,s1,0x4
    5276:	06940593          	add	a1,s0,105
    527a:	0795                	add	a5,a5,5
    527c:	0896                	sll	a7,a7,0x5
    527e:	0a980997          	auipc	s3,0xa980
    5282:	0c42                	sll	s8,s8,0x10
    5284:	0008                	.insn	2, 0x0008
    5286:	0000                	unimp
    5288:	0030                	add	a2,sp,8
    528a:	0000                	unimp
    528c:	0154                	add	a3,sp,132
    528e:	0000                	unimp
    5290:	cb00                	sw	s0,16(a4)
    5292:	ffff                	.insn	2, 0xffff
    5294:	0226                	sll	tp,tp,0x9
    5296:	0000                	unimp
    5298:	4200                	lw	s0,0(a2)
    529a:	700e                	.insn	2, 0x700e
    529c:	815a                	mv	sp,s6
    529e:	8801                	and	s0,s0,0
    52a0:	8902                	jr	s2
    52a2:	93049203          	lh	tp,-1744(s1)
    52a6:	9405                	sra	s0,s0,0x21
    52a8:	9506                	add	a0,a0,ra
    52aa:	97089607          	.insn	4, 0x97089607
    52ae:	9809                	and	s0,s0,-30
    52b0:	990a                	add	s2,s2,sp
    52b2:	9b0c9a0b          	.insn	4, 0x9b0c9a0b
    52b6:	420d                	li	tp,3
    52b8:	080c                	add	a1,sp,16
    52ba:	0000                	unimp
    52bc:	0024                	add	s1,sp,8
    52be:	0000                	unimp
    52c0:	0188                	add	a0,sp,192
    52c2:	0000                	unimp
    52c4:	ccf2                	sw	t3,88(sp)
    52c6:	ffff                	.insn	2, 0xffff
    52c8:	0064                	add	s1,sp,12
    52ca:	0000                	unimp
    52cc:	4200                	lw	s0,0(a2)
    52ce:	300e                	fld	ft0,224(sp)
    52d0:	814c                	.insn	2, 0x814c
    52d2:	8801                	and	s0,s0,0
    52d4:	8902                	jr	s2
    52d6:	93049203          	lh	tp,-1744(s1)
    52da:	9405                	sra	s0,s0,0x21
    52dc:	4206                	lw	tp,64(sp)
    52de:	080c                	add	a1,sp,16
    52e0:	0000                	unimp
    52e2:	0000                	unimp
    52e4:	0028                	add	a0,sp,8
    52e6:	0000                	unimp
    52e8:	01b0                	add	a2,sp,200
    52ea:	0000                	unimp
    52ec:	cd2e                	sw	a1,152(sp)
    52ee:	ffff                	.insn	2, 0xffff
    52f0:	01bc                	add	a5,sp,200
    52f2:	0000                	unimp
    52f4:	4200                	lw	s0,0(a2)
    52f6:	500e                	.insn	2, 0x500e
    52f8:	8152                	mv	sp,s4
    52fa:	8801                	and	s0,s0,0
    52fc:	8902                	jr	s2
    52fe:	93049203          	lh	tp,-1744(s1)
    5302:	9405                	sra	s0,s0,0x21
    5304:	9506                	add	a0,a0,ra
    5306:	97089607          	.insn	4, 0x97089607
    530a:	4209                	li	tp,2
    530c:	080c                	add	a1,sp,16
    530e:	0000                	unimp
    5310:	001c                	.insn	2, 0x001c
    5312:	0000                	unimp
    5314:	01dc                	add	a5,sp,196
    5316:	0000                	unimp
    5318:	cebe                	sw	a5,92(sp)
    531a:	ffff                	.insn	2, 0xffff
    531c:	0016                	c.slli	zero,0x5
    531e:	0000                	unimp
    5320:	4200                	lw	s0,0(a2)
    5322:	100e                	c.slli	zero,0x23
    5324:	8144                	.insn	2, 0x8144
    5326:	8801                	and	s0,s0,0
    5328:	4202                	lw	tp,0(sp)
    532a:	080c                	add	a1,sp,16
    532c:	0000                	unimp
    532e:	0000                	unimp
    5330:	0028                	add	a0,sp,8
    5332:	0000                	unimp
    5334:	01fc                	add	a5,sp,204
    5336:	0000                	unimp
    5338:	ceb4                	sw	a3,88(a3)
    533a:	ffff                	.insn	2, 0xffff
    533c:	018a                	sll	gp,gp,0x2
    533e:	0000                	unimp
    5340:	4200                	lw	s0,0(a2)
    5342:	600e                	.insn	2, 0x600e
    5344:	8150                	.insn	2, 0x8150
    5346:	8801                	and	s0,s0,0
    5348:	8902                	jr	s2
    534a:	93049203          	lh	tp,-1744(s1)
    534e:	9405                	sra	s0,s0,0x21
    5350:	9506                	add	a0,a0,ra
    5352:	42089607          	.insn	4, 0x42089607
    5356:	080c                	add	a1,sp,16
    5358:	0000                	unimp
    535a:	0000                	unimp
    535c:	001c                	.insn	2, 0x001c
    535e:	0000                	unimp
    5360:	0228                	add	a0,sp,264
    5362:	0000                	unimp
    5364:	d012                	sw	tp,32(sp)
    5366:	ffff                	.insn	2, 0xffff
    5368:	0060                	add	s0,sp,12
    536a:	0000                	unimp
    536c:	4200                	lw	s0,0(a2)
    536e:	700e                	.insn	2, 0x700e
    5370:	8144                	.insn	2, 0x8144
    5372:	8801                	and	s0,s0,0
    5374:	4202                	lw	tp,0(sp)
    5376:	080c                	add	a1,sp,16
    5378:	0000                	unimp
    537a:	0000                	unimp
    537c:	001c                	.insn	2, 0x001c
    537e:	0000                	unimp
    5380:	0248                	add	a0,sp,260
    5382:	0000                	unimp
    5384:	d052                	sw	s4,32(sp)
    5386:	ffff                	.insn	2, 0xffff
    5388:	0060                	add	s0,sp,12
    538a:	0000                	unimp
    538c:	4200                	lw	s0,0(a2)
    538e:	700e                	.insn	2, 0x700e
    5390:	8144                	.insn	2, 0x8144
    5392:	8801                	and	s0,s0,0
    5394:	4202                	lw	tp,0(sp)
    5396:	080c                	add	a1,sp,16
    5398:	0000                	unimp
    539a:	0000                	unimp
    539c:	001c                	.insn	2, 0x001c
    539e:	0000                	unimp
    53a0:	0268                	add	a0,sp,268
    53a2:	0000                	unimp
    53a4:	d092                	sw	tp,96(sp)
    53a6:	ffff                	.insn	2, 0xffff
    53a8:	0060                	add	s0,sp,12
    53aa:	0000                	unimp
    53ac:	4200                	lw	s0,0(a2)
    53ae:	700e                	.insn	2, 0x700e
    53b0:	8144                	.insn	2, 0x8144
    53b2:	8801                	and	s0,s0,0
    53b4:	4202                	lw	tp,0(sp)
    53b6:	080c                	add	a1,sp,16
    53b8:	0000                	unimp
    53ba:	0000                	unimp
    53bc:	001c                	.insn	2, 0x001c
    53be:	0000                	unimp
    53c0:	0288                	add	a0,sp,320
    53c2:	0000                	unimp
    53c4:	d0d2                	sw	s4,96(sp)
    53c6:	ffff                	.insn	2, 0xffff
    53c8:	01a8                	add	a0,sp,200
    53ca:	0000                	unimp
    53cc:	4200                	lw	s0,0(a2)
    53ce:	100e                	c.slli	zero,0x23
    53d0:	8144                	.insn	2, 0x8144
    53d2:	8801                	and	s0,s0,0
    53d4:	4202                	lw	tp,0(sp)
    53d6:	080c                	add	a1,sp,16
    53d8:	0000                	unimp
    53da:	0000                	unimp
    53dc:	001c                	.insn	2, 0x001c
    53de:	0000                	unimp
    53e0:	02a8                	add	a0,sp,328
    53e2:	0000                	unimp
    53e4:	d25a                	sw	s6,36(sp)
    53e6:	ffff                	.insn	2, 0xffff
    53e8:	0010                	.insn	2, 0x0010
    53ea:	0000                	unimp
    53ec:	4200                	lw	s0,0(a2)
    53ee:	100e                	c.slli	zero,0x23
    53f0:	8144                	.insn	2, 0x8144
    53f2:	8801                	and	s0,s0,0
    53f4:	4202                	lw	tp,0(sp)
    53f6:	080c                	add	a1,sp,16
    53f8:	0000                	unimp
    53fa:	0000                	unimp
    53fc:	001c                	.insn	2, 0x001c
    53fe:	0000                	unimp
    5400:	02c8                	add	a0,sp,324
    5402:	0000                	unimp
    5404:	d24a                	sw	s2,36(sp)
    5406:	ffff                	.insn	2, 0xffff
    5408:	02f2                	sll	t0,t0,0x1c
    540a:	0000                	unimp
    540c:	4200                	lw	s0,0(a2)
    540e:	e00e                	sd	gp,0(sp)
    5410:	4401                	li	s0,0
    5412:	0181                	add	gp,gp,0
    5414:	0288                	add	a0,sp,320
    5416:	0c42                	sll	s8,s8,0x10
    5418:	0008                	.insn	2, 0x0008
    541a:	0000                	unimp
    541c:	001c                	.insn	2, 0x001c
    541e:	0000                	unimp
    5420:	02e8                	add	a0,sp,332
    5422:	0000                	unimp
    5424:	d51c                	sw	a5,40(a0)
    5426:	ffff                	.insn	2, 0xffff
    5428:	00e4                	add	s1,sp,76
    542a:	0000                	unimp
    542c:	4200                	lw	s0,0(a2)
    542e:	100e                	c.slli	zero,0x23
    5430:	8144                	.insn	2, 0x8144
    5432:	8801                	and	s0,s0,0
    5434:	4202                	lw	tp,0(sp)
    5436:	080c                	add	a1,sp,16
    5438:	0000                	unimp
    543a:	0000                	unimp
    543c:	001c                	.insn	2, 0x001c
    543e:	0000                	unimp
    5440:	0308                	add	a0,sp,384
    5442:	0000                	unimp
    5444:	d5e0                	sw	s0,108(a1)
    5446:	ffff                	.insn	2, 0xffff
    5448:	0150                	add	a2,sp,132
    544a:	0000                	unimp
    544c:	4200                	lw	s0,0(a2)
    544e:	100e                	c.slli	zero,0x23
    5450:	8144                	.insn	2, 0x8144
    5452:	8801                	and	s0,s0,0
    5454:	4202                	lw	tp,0(sp)
    5456:	080c                	add	a1,sp,16
    5458:	0000                	unimp
    545a:	0000                	unimp
    545c:	0020                	add	s0,sp,8
    545e:	0000                	unimp
    5460:	0328                	add	a0,sp,392
    5462:	0000                	unimp
    5464:	d710                	sw	a2,40(a4)
    5466:	ffff                	.insn	2, 0xffff
    5468:	015c                	add	a5,sp,132
    546a:	0000                	unimp
    546c:	4200                	lw	s0,0(a2)
    546e:	400e                	.insn	2, 0x400e
    5470:	814a                	mv	sp,s2
    5472:	8801                	and	s0,s0,0
    5474:	8902                	jr	s2
    5476:	93049203          	lh	tp,-1744(s1)
    547a:	4205                	li	tp,1
    547c:	080c                	add	a1,sp,16
    547e:	0000                	unimp
    5480:	001c                	.insn	2, 0x001c
    5482:	0000                	unimp
    5484:	034c                	add	a1,sp,388
    5486:	0000                	unimp
    5488:	d848                	sw	a0,52(s0)
    548a:	ffff                	.insn	2, 0xffff
    548c:	00f2                	sll	ra,ra,0x1c
    548e:	0000                	unimp
    5490:	4200                	lw	s0,0(a2)
    5492:	900e                	c.add	zero,gp
    5494:	4401                	li	s0,0
    5496:	0181                	add	gp,gp,0
    5498:	0288                	add	a0,sp,320
    549a:	0c42                	sll	s8,s8,0x10
    549c:	0008                	.insn	2, 0x0008
    549e:	0000                	unimp
    54a0:	0020                	add	s0,sp,8
    54a2:	0000                	unimp
    54a4:	036c                	add	a1,sp,396
    54a6:	0000                	unimp
    54a8:	d91a                	sw	t1,176(sp)
    54aa:	ffff                	.insn	2, 0xffff
    54ac:	0164                	add	s1,sp,140
    54ae:	0000                	unimp
    54b0:	4200                	lw	s0,0(a2)
    54b2:	500e                	.insn	2, 0x500e
    54b4:	8148                	.insn	2, 0x8148
    54b6:	8801                	and	s0,s0,0
    54b8:	8902                	jr	s2
    54ba:	42049203          	lh	tp,1056(s1)
    54be:	080c                	add	a1,sp,16
    54c0:	0000                	unimp
    54c2:	0000                	unimp
    54c4:	001c                	.insn	2, 0x001c
    54c6:	0000                	unimp
    54c8:	0390                	add	a2,sp,448
    54ca:	0000                	unimp
    54cc:	da5a                	sw	s6,52(sp)
    54ce:	ffff                	.insn	2, 0xffff
    54d0:	001e                	c.slli	zero,0x7
    54d2:	0000                	unimp
    54d4:	4200                	lw	s0,0(a2)
    54d6:	100e                	c.slli	zero,0x23
    54d8:	8144                	.insn	2, 0x8144
    54da:	8801                	and	s0,s0,0
    54dc:	4202                	lw	tp,0(sp)
    54de:	080c                	add	a1,sp,16
    54e0:	0000                	unimp
    54e2:	0000                	unimp
    54e4:	001c                	.insn	2, 0x001c
    54e6:	0000                	unimp
    54e8:	03b0                	add	a2,sp,456
    54ea:	0000                	unimp
    54ec:	da58                	sw	a4,52(a2)
    54ee:	ffff                	.insn	2, 0xffff
    54f0:	001e                	c.slli	zero,0x7
    54f2:	0000                	unimp
    54f4:	4200                	lw	s0,0(a2)
    54f6:	100e                	c.slli	zero,0x23
    54f8:	8144                	.insn	2, 0x8144
    54fa:	8801                	and	s0,s0,0
    54fc:	4202                	lw	tp,0(sp)
    54fe:	080c                	add	a1,sp,16
    5500:	0000                	unimp
    5502:	0000                	unimp
    5504:	001c                	.insn	2, 0x001c
    5506:	0000                	unimp
    5508:	03d0                	add	a2,sp,452
    550a:	0000                	unimp
    550c:	da56                	sw	s5,52(sp)
    550e:	ffff                	.insn	2, 0xffff
    5510:	001c                	.insn	2, 0x001c
    5512:	0000                	unimp
    5514:	4200                	lw	s0,0(a2)
    5516:	100e                	c.slli	zero,0x23
    5518:	8144                	.insn	2, 0x8144
    551a:	8801                	and	s0,s0,0
    551c:	4202                	lw	tp,0(sp)
    551e:	080c                	add	a1,sp,16
    5520:	0000                	unimp
    5522:	0000                	unimp
    5524:	001c                	.insn	2, 0x001c
    5526:	0000                	unimp
    5528:	03f0                	add	a2,sp,460
    552a:	0000                	unimp
    552c:	da52                	sw	s4,52(sp)
    552e:	ffff                	.insn	2, 0xffff
    5530:	0016                	c.slli	zero,0x5
    5532:	0000                	unimp
    5534:	4200                	lw	s0,0(a2)
    5536:	100e                	c.slli	zero,0x23
    5538:	8144                	.insn	2, 0x8144
    553a:	8801                	and	s0,s0,0
    553c:	4202                	lw	tp,0(sp)
    553e:	080c                	add	a1,sp,16
    5540:	0000                	unimp
    5542:	0000                	unimp
    5544:	001c                	.insn	2, 0x001c
    5546:	0000                	unimp
    5548:	0410                	add	a2,sp,512
    554a:	0000                	unimp
    554c:	da48                	sw	a0,52(a2)
    554e:	ffff                	.insn	2, 0xffff
    5550:	001e                	c.slli	zero,0x7
    5552:	0000                	unimp
    5554:	4200                	lw	s0,0(a2)
    5556:	100e                	c.slli	zero,0x23
    5558:	8144                	.insn	2, 0x8144
    555a:	8801                	and	s0,s0,0
    555c:	4202                	lw	tp,0(sp)
    555e:	080c                	add	a1,sp,16
    5560:	0000                	unimp
    5562:	0000                	unimp
    5564:	001c                	.insn	2, 0x001c
    5566:	0000                	unimp
    5568:	0430                	add	a2,sp,520
    556a:	0000                	unimp
    556c:	da46                	sw	a7,52(sp)
    556e:	ffff                	.insn	2, 0xffff
    5570:	010e                	sll	sp,sp,0x3
    5572:	0000                	unimp
    5574:	4200                	lw	s0,0(a2)
    5576:	100e                	c.slli	zero,0x23
    5578:	8144                	.insn	2, 0x8144
    557a:	8801                	and	s0,s0,0
    557c:	4202                	lw	tp,0(sp)
    557e:	080c                	add	a1,sp,16
    5580:	0000                	unimp
    5582:	0000                	unimp
    5584:	001c                	.insn	2, 0x001c
    5586:	0000                	unimp
    5588:	0450                	add	a2,sp,516
    558a:	0000                	unimp
    558c:	db34                	sw	a3,112(a4)
    558e:	ffff                	.insn	2, 0xffff
    5590:	00be                	sll	ra,ra,0xf
    5592:	0000                	unimp
    5594:	4200                	lw	s0,0(a2)
    5596:	100e                	c.slli	zero,0x23
    5598:	8144                	.insn	2, 0x8144
    559a:	8801                	and	s0,s0,0
    559c:	4202                	lw	tp,0(sp)
    559e:	080c                	add	a1,sp,16
    55a0:	0000                	unimp
    55a2:	0000                	unimp
    55a4:	0020                	add	s0,sp,8
    55a6:	0000                	unimp
    55a8:	0470                	add	a2,sp,524
    55aa:	0000                	unimp
    55ac:	dbd2                	sw	s4,244(sp)
    55ae:	ffff                	.insn	2, 0xffff
    55b0:	0016                	c.slli	zero,0x5
    55b2:	0000                	unimp
    55b4:	4200                	lw	s0,0(a2)
    55b6:	100e                	c.slli	zero,0x23
    55b8:	8144                	.insn	2, 0x8144
    55ba:	8801                	and	s0,s0,0
    55bc:	4202                	lw	tp,0(sp)
    55be:	080c                	add	a1,sp,16
	...

Disassembly of section .data._ZN6kernel4uart4UART17h64e456053680aa82E:

00000000000055d0 <_ZN6kernel4uart4UART17h64e456053680aa82E>:
	...
    55d8:	0000                	unimp
    55da:	1000                	add	s0,sp,32
    55dc:	0000                	unimp
	...

Disassembly of section .data._ZN6kernel7console7CONSOLE17hf1f49ad43aab6abcE:

00000000000055e0 <_ZN6kernel7console7CONSOLE17hf1f49ad43aab6abcE>:
    55e0:	0000                	unimp
    55e2:	3f3f3f3f 3f3f3f3f 	.insn	8, 0x3f3f3f3f3f3f3f3f
    55ea:	3f3f3f3f 3f3f3f3f 	.insn	8, 0x3f3f3f3f3f3f3f3f
    55f2:	3f3f3f3f 3f3f3f3f 	.insn	8, 0x3f3f3f3f3f3f3f3f
    55fa:	3f3f3f3f 3f3f3f3f 	.insn	8, 0x3f3f3f3f3f3f3f3f
    5602:	3f3f3f3f 3f3f3f3f 	.insn	8, 0x3f3f3f3f3f3f3f3f
    560a:	3f3f3f3f 3f3f3f3f 	.insn	8, 0x3f3f3f3f3f3f3f3f
    5612:	3f3f3f3f 3f3f3f3f 	.insn	8, 0x3f3f3f3f3f3f3f3f
    561a:	3f3f3f3f 3f3f3f3f 	.insn	8, 0x3f3f3f3f3f3f3f3f
    5622:	3f3f3f3f 3f3f3f3f 	.insn	8, 0x3f3f3f3f3f3f3f3f
    562a:	3f3f3f3f 3f3f3f3f 	.insn	8, 0x3f3f3f3f3f3f3f3f
    5632:	3f3f3f3f 3f3f3f3f 	.insn	8, 0x3f3f3f3f3f3f3f3f
    563a:	3f3f3f3f 3f3f3f3f 	.insn	8, 0x3f3f3f3f3f3f3f3f
    5642:	3f3f3f3f 3f3f3f3f 	.insn	8, 0x3f3f3f3f3f3f3f3f
    564a:	3f3f3f3f 3f3f3f3f 	.insn	8, 0x3f3f3f3f3f3f3f3f
    5652:	3f3f3f3f 3f3f3f3f 	.insn	8, 0x3f3f3f3f3f3f3f3f
    565a:	3f3f3f3f 3f3f3f3f 	.insn	8, 0x3f3f3f3f3f3f3f3f
    5662:	3f3f3f3f 3f3f3f3f 	.insn	8, 0x3f3f3f3f3f3f3f3f
    566a:	3f3f3f3f 3f3f3f3f 	.insn	8, 0x3f3f3f3f3f3f3f3f
    5672:	3f3f3f3f 3f3f3f3f 	.insn	8, 0x3f3f3f3f3f3f3f3f
    567a:	3f3f3f3f 3f3f3f3f 	.insn	8, 0x3f3f3f3f3f3f3f3f
    5682:	3f3f3f3f 3f3f3f3f 	.insn	8, 0x3f3f3f3f3f3f3f3f
    568a:	3f3f3f3f 3f3f3f3f 	.insn	8, 0x3f3f3f3f3f3f3f3f
    5692:	3f3f3f3f 3f3f3f3f 	.insn	8, 0x3f3f3f3f3f3f3f3f
    569a:	3f3f3f3f 3f3f3f3f 	.insn	8, 0x3f3f3f3f3f3f3f3f
    56a2:	3f3f3f3f 3f3f3f3f 	.insn	8, 0x3f3f3f3f3f3f3f3f
    56aa:	3f3f3f3f 3f3f3f3f 	.insn	8, 0x3f3f3f3f3f3f3f3f
    56b2:	3f3f3f3f 3f3f3f3f 	.insn	8, 0x3f3f3f3f3f3f3f3f
    56ba:	3f3f3f3f 3f3f3f3f 	.insn	8, 0x3f3f3f3f3f3f3f3f
    56c2:	3f3f3f3f 3f3f3f3f 	.insn	8, 0x3f3f3f3f3f3f3f3f
    56ca:	3f3f3f3f 3f3f3f3f 	.insn	8, 0x3f3f3f3f3f3f3f3f
    56d2:	3f3f3f3f 3f3f3f3f 	.insn	8, 0x3f3f3f3f3f3f3f3f
    56da:	3f3f3f3f 3f3f3f3f 	.insn	8, 0x3f3f3f3f3f3f3f3f
    56e2:	3f3f3f3f 3f3f3f3f 	.insn	8, 0x3f3f3f3f3f3f3f3f
    56ea:	3f3f3f3f 3f3f3f3f 	.insn	8, 0x3f3f3f3f3f3f3f3f
    56f2:	3f3f3f3f 3f3f3f3f 	.insn	8, 0x3f3f3f3f3f3f3f3f
    56fa:	3f3f3f3f 3f3f3f3f 	.insn	8, 0x3f3f3f3f3f3f3f3f
    5702:	3f3f3f3f 3f3f3f3f 	.insn	8, 0x3f3f3f3f3f3f3f3f
    570a:	3f3f3f3f 3f3f3f3f 	.insn	8, 0x3f3f3f3f3f3f3f3f
    5712:	3f3f3f3f 3f3f3f3f 	.insn	8, 0x3f3f3f3f3f3f3f3f
    571a:	3f3f3f3f 3f3f3f3f 	.insn	8, 0x3f3f3f3f3f3f3f3f
    5722:	3f3f3f3f 3f3f3f3f 	.insn	8, 0x3f3f3f3f3f3f3f3f
    572a:	3f3f3f3f 3f3f3f3f 	.insn	8, 0x3f3f3f3f3f3f3f3f
    5732:	3f3f3f3f 3f3f3f3f 	.insn	8, 0x3f3f3f3f3f3f3f3f
    573a:	3f3f3f3f 3f3f3f3f 	.insn	8, 0x3f3f3f3f3f3f3f3f
    5742:	3f3f3f3f 3f3f3f3f 	.insn	8, 0x3f3f3f3f3f3f3f3f
    574a:	3f3f3f3f 3f3f3f3f 	.insn	8, 0x3f3f3f3f3f3f3f3f
    5752:	3f3f3f3f 3f3f3f3f 	.insn	8, 0x3f3f3f3f3f3f3f3f
    575a:	3f3f3f3f 3f3f3f3f 	.insn	8, 0x3f3f3f3f3f3f3f3f
    5762:	3f3f3f3f 3f3f3f3f 	.insn	8, 0x3f3f3f3f3f3f3f3f
    576a:	3f3f3f3f 3f3f3f3f 	.insn	8, 0x3f3f3f3f3f3f3f3f
    5772:	3f3f3f3f 3f3f3f3f 	.insn	8, 0x3f3f3f3f3f3f3f3f
    577a:	3f3f3f3f 3f3f3f3f 	.insn	8, 0x3f3f3f3f3f3f3f3f
    5782:	3f3f3f3f 3f3f3f3f 	.insn	8, 0x3f3f3f3f3f3f3f3f
    578a:	3f3f3f3f 3f3f3f3f 	.insn	8, 0x3f3f3f3f3f3f3f3f
    5792:	3f3f3f3f 3f3f3f3f 	.insn	8, 0x3f3f3f3f3f3f3f3f
    579a:	3f3f3f3f 3f3f3f3f 	.insn	8, 0x3f3f3f3f3f3f3f3f
    57a2:	3f3f3f3f 3f3f3f3f 	.insn	8, 0x3f3f3f3f3f3f3f3f
    57aa:	3f3f3f3f 3f3f3f3f 	.insn	8, 0x3f3f3f3f3f3f3f3f
    57b2:	3f3f3f3f 3f3f3f3f 	.insn	8, 0x3f3f3f3f3f3f3f3f
    57ba:	3f3f3f3f 3f3f3f3f 	.insn	8, 0x3f3f3f3f3f3f3f3f
    57c2:	3f3f3f3f 3f3f3f3f 	.insn	8, 0x3f3f3f3f3f3f3f3f
    57ca:	3f3f3f3f 3f3f3f3f 	.insn	8, 0x3f3f3f3f3f3f3f3f
    57d2:	3f3f3f3f 3f3f3f3f 	.insn	8, 0x3f3f3f3f3f3f3f3f
    57da:	3f3f3f3f 3f3f3f3f 	.insn	8, 0x3f3f3f3f3f3f3f3f
    57e2:	3f3f3f3f 3f3f3f3f 	.insn	8, 0x3f3f3f3f3f3f3f3f
    57ea:	3f3f3f3f 3f3f3f3f 	.insn	8, 0x3f3f3f3f3f3f3f3f
    57f2:	3f3f3f3f 3f3f3f3f 	.insn	8, 0x3f3f3f3f3f3f3f3f
    57fa:	3f3f3f3f 3f3f3f3f 	.insn	8, 0x3f3f3f3f3f3f3f3f
    5802:	3f3f3f3f 3f3f3f3f 	.insn	8, 0x3f3f3f3f3f3f3f3f
    580a:	3f3f3f3f 3f3f3f3f 	.insn	8, 0x3f3f3f3f3f3f3f3f
    5812:	3f3f3f3f 3f3f3f3f 	.insn	8, 0x3f3f3f3f3f3f3f3f
    581a:	3f3f3f3f 3f3f3f3f 	.insn	8, 0x3f3f3f3f3f3f3f3f
    5822:	3f3f3f3f 3f3f3f3f 	.insn	8, 0x3f3f3f3f3f3f3f3f
    582a:	3f3f3f3f 3f3f3f3f 	.insn	8, 0x3f3f3f3f3f3f3f3f
    5832:	3f3f3f3f 3f3f3f3f 	.insn	8, 0x3f3f3f3f3f3f3f3f
    583a:	3f3f3f3f 3f3f3f3f 	.insn	8, 0x3f3f3f3f3f3f3f3f
    5842:	3f3f3f3f 3f3f3f3f 	.insn	8, 0x3f3f3f3f3f3f3f3f
    584a:	3f3f3f3f 3f3f3f3f 	.insn	8, 0x3f3f3f3f3f3f3f3f
    5852:	3f3f3f3f 3f3f3f3f 	.insn	8, 0x3f3f3f3f3f3f3f3f
    585a:	3f3f3f3f 3f3f3f3f 	.insn	8, 0x3f3f3f3f3f3f3f3f
    5862:	3f3f3f3f 3f3f3f3f 	.insn	8, 0x3f3f3f3f3f3f3f3f
    586a:	3f3f3f3f 3f3f3f3f 	.insn	8, 0x3f3f3f3f3f3f3f3f
    5872:	3f3f3f3f 3f3f3f3f 	.insn	8, 0x3f3f3f3f3f3f3f3f
    587a:	3f3f3f3f 3f3f3f3f 	.insn	8, 0x3f3f3f3f3f3f3f3f
    5882:	3f3f3f3f 3f3f3f3f 	.insn	8, 0x3f3f3f3f3f3f3f3f
    588a:	3f3f3f3f 3f3f3f3f 	.insn	8, 0x3f3f3f3f3f3f3f3f
    5892:	3f3f3f3f 3f3f3f3f 	.insn	8, 0x3f3f3f3f3f3f3f3f
    589a:	3f3f3f3f 3f3f3f3f 	.insn	8, 0x3f3f3f3f3f3f3f3f
    58a2:	3f3f3f3f 3f3f3f3f 	.insn	8, 0x3f3f3f3f3f3f3f3f
    58aa:	3f3f3f3f 3f3f3f3f 	.insn	8, 0x3f3f3f3f3f3f3f3f
    58b2:	3f3f3f3f 3f3f3f3f 	.insn	8, 0x3f3f3f3f3f3f3f3f
    58ba:	3f3f3f3f 3f3f3f3f 	.insn	8, 0x3f3f3f3f3f3f3f3f
    58c2:	3f3f3f3f 3f3f3f3f 	.insn	8, 0x3f3f3f3f3f3f3f3f
    58ca:	3f3f3f3f 3f3f3f3f 	.insn	8, 0x3f3f3f3f3f3f3f3f
    58d2:	3f3f3f3f 3f3f3f3f 	.insn	8, 0x3f3f3f3f3f3f3f3f
    58da:	3f3f3f3f 3f3f3f3f 	.insn	8, 0x3f3f3f3f3f3f3f3f
    58e2:	3f3f3f3f 3f3f3f3f 	.insn	8, 0x3f3f3f3f3f3f3f3f
    58ea:	3f3f3f3f 3f3f3f3f 	.insn	8, 0x3f3f3f3f3f3f3f3f
    58f2:	3f3f3f3f 3f3f3f3f 	.insn	8, 0x3f3f3f3f3f3f3f3f
    58fa:	3f3f3f3f 3f3f3f3f 	.insn	8, 0x3f3f3f3f3f3f3f3f
    5902:	3f3f3f3f 3f3f3f3f 	.insn	8, 0x3f3f3f3f3f3f3f3f
    590a:	3f3f3f3f 3f3f3f3f 	.insn	8, 0x3f3f3f3f3f3f3f3f
    5912:	3f3f3f3f 3f3f3f3f 	.insn	8, 0x3f3f3f3f3f3f3f3f
    591a:	3f3f3f3f 3f3f3f3f 	.insn	8, 0x3f3f3f3f3f3f3f3f
    5922:	3f3f3f3f 3f3f3f3f 	.insn	8, 0x3f3f3f3f3f3f3f3f
    592a:	3f3f3f3f 3f3f3f3f 	.insn	8, 0x3f3f3f3f3f3f3f3f
    5932:	3f3f3f3f 3f3f3f3f 	.insn	8, 0x3f3f3f3f3f3f3f3f
    593a:	3f3f3f3f 3f3f3f3f 	.insn	8, 0x3f3f3f3f3f3f3f3f
    5942:	3f3f3f3f 3f3f3f3f 	.insn	8, 0x3f3f3f3f3f3f3f3f
    594a:	3f3f3f3f 3f3f3f3f 	.insn	8, 0x3f3f3f3f3f3f3f3f
    5952:	3f3f3f3f 3f3f3f3f 	.insn	8, 0x3f3f3f3f3f3f3f3f
    595a:	3f3f3f3f 3f3f3f3f 	.insn	8, 0x3f3f3f3f3f3f3f3f
    5962:	3f3f3f3f 3f3f3f3f 	.insn	8, 0x3f3f3f3f3f3f3f3f
    596a:	3f3f3f3f 3f3f3f3f 	.insn	8, 0x3f3f3f3f3f3f3f3f
    5972:	3f3f3f3f 3f3f3f3f 	.insn	8, 0x3f3f3f3f3f3f3f3f
    597a:	3f3f3f3f 3f3f3f3f 	.insn	8, 0x3f3f3f3f3f3f3f3f
    5982:	3f3f3f3f 3f3f3f3f 	.insn	8, 0x3f3f3f3f3f3f3f3f
    598a:	3f3f3f3f 3f3f3f3f 	.insn	8, 0x3f3f3f3f3f3f3f3f
    5992:	3f3f3f3f 3f3f3f3f 	.insn	8, 0x3f3f3f3f3f3f3f3f
    599a:	3f3f3f3f 3f3f3f3f 	.insn	8, 0x3f3f3f3f3f3f3f3f
    59a2:	3f3f3f3f 3f3f3f3f 	.insn	8, 0x3f3f3f3f3f3f3f3f
    59aa:	3f3f3f3f 3f3f3f3f 	.insn	8, 0x3f3f3f3f3f3f3f3f
    59b2:	3f3f3f3f 3f3f3f3f 	.insn	8, 0x3f3f3f3f3f3f3f3f
    59ba:	3f3f3f3f 3f3f3f3f 	.insn	8, 0x3f3f3f3f3f3f3f3f
    59c2:	3f3f3f3f 3f3f3f3f 	.insn	8, 0x3f3f3f3f3f3f3f3f
    59ca:	3f3f3f3f 3f3f3f3f 	.insn	8, 0x3f3f3f3f3f3f3f3f
    59d2:	3f3f3f3f 3f3f3f3f 	.insn	8, 0x3f3f3f3f3f3f3f3f
    59da:	3f3f3f3f 3f3f3f3f 	.insn	8, 0x3f3f3f3f3f3f3f3f
    59e2:	3f3f3f3f 3f3f3f3f 	.insn	8, 0x3f3f3f3f3f3f3f3f
    59ea:	3f3f3f3f 3f3f3f3f 	.insn	8, 0x3f3f3f3f3f3f3f3f
    59f2:	3f3f3f3f 3f3f3f3f 	.insn	8, 0x3f3f3f3f3f3f3f3f
    59fa:	3f3f3f3f 3f3f3f3f 	.insn	8, 0x3f3f3f3f3f3f3f3f
    5a02:	3f3f3f3f 3f3f3f3f 	.insn	8, 0x3f3f3f3f3f3f3f3f
    5a0a:	3f3f3f3f 3f3f3f3f 	.insn	8, 0x3f3f3f3f3f3f3f3f
    5a12:	3f3f3f3f 3f3f3f3f 	.insn	8, 0x3f3f3f3f3f3f3f3f
    5a1a:	3f3f3f3f 3f3f3f3f 	.insn	8, 0x3f3f3f3f3f3f3f3f
    5a22:	3f3f3f3f 3f3f3f3f 	.insn	8, 0x3f3f3f3f3f3f3f3f
    5a2a:	3f3f3f3f 3f3f3f3f 	.insn	8, 0x3f3f3f3f3f3f3f3f
    5a32:	3f3f3f3f 3f3f3f3f 	.insn	8, 0x3f3f3f3f3f3f3f3f
    5a3a:	3f3f3f3f 3f3f3f3f 	.insn	8, 0x3f3f3f3f3f3f3f3f
    5a42:	3f3f3f3f 3f3f3f3f 	.insn	8, 0x3f3f3f3f3f3f3f3f
    5a4a:	3f3f3f3f 3f3f3f3f 	.insn	8, 0x3f3f3f3f3f3f3f3f
    5a52:	3f3f3f3f 3f3f3f3f 	.insn	8, 0x3f3f3f3f3f3f3f3f
    5a5a:	3f3f3f3f 3f3f3f3f 	.insn	8, 0x3f3f3f3f3f3f3f3f
    5a62:	3f3f3f3f 3f3f3f3f 	.insn	8, 0x3f3f3f3f3f3f3f3f
    5a6a:	3f3f3f3f 3f3f3f3f 	.insn	8, 0x3f3f3f3f3f3f3f3f
    5a72:	3f3f3f3f 3f3f3f3f 	.insn	8, 0x3f3f3f3f3f3f3f3f
    5a7a:	3f3f3f3f 3f3f3f3f 	.insn	8, 0x3f3f3f3f3f3f3f3f
    5a82:	3f3f3f3f 3f3f3f3f 	.insn	8, 0x3f3f3f3f3f3f3f3f
    5a8a:	3f3f3f3f 3f3f3f3f 	.insn	8, 0x3f3f3f3f3f3f3f3f
    5a92:	3f3f3f3f 3f3f3f3f 	.insn	8, 0x3f3f3f3f3f3f3f3f
    5a9a:	3f3f3f3f 3f3f3f3f 	.insn	8, 0x3f3f3f3f3f3f3f3f
    5aa2:	3f3f3f3f 3f3f3f3f 	.insn	8, 0x3f3f3f3f3f3f3f3f
    5aaa:	3f3f3f3f 3f3f3f3f 	.insn	8, 0x3f3f3f3f3f3f3f3f
    5ab2:	3f3f3f3f 3f3f3f3f 	.insn	8, 0x3f3f3f3f3f3f3f3f
    5aba:	3f3f3f3f 3f3f3f3f 	.insn	8, 0x3f3f3f3f3f3f3f3f
    5ac2:	3f3f3f3f 3f3f3f3f 	.insn	8, 0x3f3f3f3f3f3f3f3f
    5aca:	3f3f3f3f 3f3f3f3f 	.insn	8, 0x3f3f3f3f3f3f3f3f
    5ad2:	3f3f3f3f 3f3f3f3f 	.insn	8, 0x3f3f3f3f3f3f3f3f
    5ada:	3f3f3f3f 3f3f3f3f 	.insn	8, 0x3f3f3f3f3f3f3f3f
    5ae2:	3f3f3f3f 3f3f3f3f 	.insn	8, 0x3f3f3f3f3f3f3f3f
    5aea:	3f3f3f3f 3f3f3f3f 	.insn	8, 0x3f3f3f3f3f3f3f3f
    5af2:	3f3f3f3f 3f3f3f3f 	.insn	8, 0x3f3f3f3f3f3f3f3f
    5afa:	3f3f3f3f 3f3f3f3f 	.insn	8, 0x3f3f3f3f3f3f3f3f
    5b02:	3f3f3f3f 3f3f3f3f 	.insn	8, 0x3f3f3f3f3f3f3f3f
    5b0a:	3f3f3f3f 3f3f3f3f 	.insn	8, 0x3f3f3f3f3f3f3f3f
    5b12:	3f3f3f3f 3f3f3f3f 	.insn	8, 0x3f3f3f3f3f3f3f3f
    5b1a:	3f3f3f3f 3f3f3f3f 	.insn	8, 0x3f3f3f3f3f3f3f3f
    5b22:	3f3f3f3f 3f3f3f3f 	.insn	8, 0x3f3f3f3f3f3f3f3f
    5b2a:	3f3f3f3f 3f3f3f3f 	.insn	8, 0x3f3f3f3f3f3f3f3f
    5b32:	3f3f3f3f 3f3f3f3f 	.insn	8, 0x3f3f3f3f3f3f3f3f
    5b3a:	3f3f3f3f 3f3f3f3f 	.insn	8, 0x3f3f3f3f3f3f3f3f
    5b42:	3f3f3f3f 3f3f3f3f 	.insn	8, 0x3f3f3f3f3f3f3f3f
    5b4a:	3f3f3f3f 3f3f3f3f 	.insn	8, 0x3f3f3f3f3f3f3f3f
    5b52:	3f3f3f3f 3f3f3f3f 	.insn	8, 0x3f3f3f3f3f3f3f3f
    5b5a:	3f3f3f3f 3f3f3f3f 	.insn	8, 0x3f3f3f3f3f3f3f3f
    5b62:	3f3f3f3f 3f3f3f3f 	.insn	8, 0x3f3f3f3f3f3f3f3f
    5b6a:	3f3f3f3f 3f3f3f3f 	.insn	8, 0x3f3f3f3f3f3f3f3f
    5b72:	3f3f3f3f 3f3f3f3f 	.insn	8, 0x3f3f3f3f3f3f3f3f
    5b7a:	3f3f3f3f 3f3f3f3f 	.insn	8, 0x3f3f3f3f3f3f3f3f
    5b82:	3f3f3f3f 3f3f3f3f 	.insn	8, 0x3f3f3f3f3f3f3f3f
    5b8a:	3f3f3f3f 3f3f3f3f 	.insn	8, 0x3f3f3f3f3f3f3f3f
    5b92:	3f3f3f3f 3f3f3f3f 	.insn	8, 0x3f3f3f3f3f3f3f3f
    5b9a:	3f3f3f3f 3f3f3f3f 	.insn	8, 0x3f3f3f3f3f3f3f3f
    5ba2:	3f3f3f3f 3f3f3f3f 	.insn	8, 0x3f3f3f3f3f3f3f3f
    5baa:	3f3f3f3f 3f3f3f3f 	.insn	8, 0x3f3f3f3f3f3f3f3f
    5bb2:	3f3f3f3f 3f3f3f3f 	.insn	8, 0x3f3f3f3f3f3f3f3f
    5bba:	3f3f3f3f 3f3f3f3f 	.insn	8, 0x3f3f3f3f3f3f3f3f
    5bc2:	3f3f3f3f 3f3f3f3f 	.insn	8, 0x3f3f3f3f3f3f3f3f
    5bca:	3f3f3f3f 3f3f3f3f 	.insn	8, 0x3f3f3f3f3f3f3f3f
    5bd2:	3f3f3f3f 3f3f3f3f 	.insn	8, 0x3f3f3f3f3f3f3f3f
    5bda:	3f3f3f3f 3f3f3f3f 	.insn	8, 0x3f3f3f3f3f3f3f3f
    5be2:	3f3f3f3f 3f3f3f3f 	.insn	8, 0x3f3f3f3f3f3f3f3f
    5bea:	3f3f3f3f 3f3f3f3f 	.insn	8, 0x3f3f3f3f3f3f3f3f
    5bf2:	3f3f3f3f 3f3f3f3f 	.insn	8, 0x3f3f3f3f3f3f3f3f
    5bfa:	3f3f3f3f 3f3f3f3f 	.insn	8, 0x3f3f3f3f3f3f3f3f
    5c02:	3f3f3f3f 3f3f3f3f 	.insn	8, 0x3f3f3f3f3f3f3f3f
    5c0a:	3f3f3f3f 3f3f3f3f 	.insn	8, 0x3f3f3f3f3f3f3f3f
    5c12:	3f3f3f3f 3f3f3f3f 	.insn	8, 0x3f3f3f3f3f3f3f3f
    5c1a:	3f3f3f3f 3f3f3f3f 	.insn	8, 0x3f3f3f3f3f3f3f3f
    5c22:	3f3f3f3f 3f3f3f3f 	.insn	8, 0x3f3f3f3f3f3f3f3f
    5c2a:	3f3f3f3f 3f3f3f3f 	.insn	8, 0x3f3f3f3f3f3f3f3f
    5c32:	3f3f3f3f 3f3f3f3f 	.insn	8, 0x3f3f3f3f3f3f3f3f
    5c3a:	3f3f3f3f 3f3f3f3f 	.insn	8, 0x3f3f3f3f3f3f3f3f
    5c42:	3f3f3f3f 3f3f3f3f 	.insn	8, 0x3f3f3f3f3f3f3f3f
    5c4a:	3f3f3f3f 3f3f3f3f 	.insn	8, 0x3f3f3f3f3f3f3f3f
    5c52:	3f3f3f3f 3f3f3f3f 	.insn	8, 0x3f3f3f3f3f3f3f3f
    5c5a:	3f3f3f3f 3f3f3f3f 	.insn	8, 0x3f3f3f3f3f3f3f3f
    5c62:	3f3f3f3f 3f3f3f3f 	.insn	8, 0x3f3f3f3f3f3f3f3f
    5c6a:	3f3f3f3f 3f3f3f3f 	.insn	8, 0x3f3f3f3f3f3f3f3f
    5c72:	3f3f3f3f 3f3f3f3f 	.insn	8, 0x3f3f3f3f3f3f3f3f
    5c7a:	3f3f3f3f 3f3f3f3f 	.insn	8, 0x3f3f3f3f3f3f3f3f
    5c82:	3f3f3f3f 3f3f3f3f 	.insn	8, 0x3f3f3f3f3f3f3f3f
    5c8a:	3f3f3f3f 3f3f3f3f 	.insn	8, 0x3f3f3f3f3f3f3f3f
    5c92:	3f3f3f3f 3f3f3f3f 	.insn	8, 0x3f3f3f3f3f3f3f3f
    5c9a:	3f3f3f3f 3f3f3f3f 	.insn	8, 0x3f3f3f3f3f3f3f3f
    5ca2:	3f3f3f3f 3f3f3f3f 	.insn	8, 0x3f3f3f3f3f3f3f3f
    5caa:	3f3f3f3f 3f3f3f3f 	.insn	8, 0x3f3f3f3f3f3f3f3f
    5cb2:	3f3f3f3f 3f3f3f3f 	.insn	8, 0x3f3f3f3f3f3f3f3f
    5cba:	3f3f3f3f 3f3f3f3f 	.insn	8, 0x3f3f3f3f3f3f3f3f
    5cc2:	3f3f3f3f 3f3f3f3f 	.insn	8, 0x3f3f3f3f3f3f3f3f
    5cca:	3f3f3f3f 3f3f3f3f 	.insn	8, 0x3f3f3f3f3f3f3f3f
    5cd2:	3f3f3f3f 3f3f3f3f 	.insn	8, 0x3f3f3f3f3f3f3f3f
    5cda:	3f3f3f3f 3f3f3f3f 	.insn	8, 0x3f3f3f3f3f3f3f3f
    5ce2:	3f3f3f3f 3f3f3f3f 	.insn	8, 0x3f3f3f3f3f3f3f3f
    5cea:	3f3f3f3f 3f3f3f3f 	.insn	8, 0x3f3f3f3f3f3f3f3f
    5cf2:	3f3f3f3f 3f3f3f3f 	.insn	8, 0x3f3f3f3f3f3f3f3f
    5cfa:	3f3f3f3f 3f3f3f3f 	.insn	8, 0x3f3f3f3f3f3f3f3f
    5d02:	3f3f3f3f 3f3f3f3f 	.insn	8, 0x3f3f3f3f3f3f3f3f
    5d0a:	3f3f3f3f 3f3f3f3f 	.insn	8, 0x3f3f3f3f3f3f3f3f
    5d12:	3f3f3f3f 3f3f3f3f 	.insn	8, 0x3f3f3f3f3f3f3f3f
    5d1a:	3f3f3f3f 3f3f3f3f 	.insn	8, 0x3f3f3f3f3f3f3f3f
    5d22:	3f3f3f3f 3f3f3f3f 	.insn	8, 0x3f3f3f3f3f3f3f3f
    5d2a:	3f3f3f3f 3f3f3f3f 	.insn	8, 0x3f3f3f3f3f3f3f3f
    5d32:	3f3f3f3f 3f3f3f3f 	.insn	8, 0x3f3f3f3f3f3f3f3f
    5d3a:	3f3f3f3f 3f3f3f3f 	.insn	8, 0x3f3f3f3f3f3f3f3f
    5d42:	3f3f3f3f 3f3f3f3f 	.insn	8, 0x3f3f3f3f3f3f3f3f
    5d4a:	3f3f3f3f 3f3f3f3f 	.insn	8, 0x3f3f3f3f3f3f3f3f
    5d52:	3f3f3f3f 3f3f3f3f 	.insn	8, 0x3f3f3f3f3f3f3f3f
    5d5a:	3f3f3f3f 3f3f3f3f 	.insn	8, 0x3f3f3f3f3f3f3f3f
    5d62:	3f3f3f3f 3f3f3f3f 	.insn	8, 0x3f3f3f3f3f3f3f3f
    5d6a:	3f3f3f3f 3f3f3f3f 	.insn	8, 0x3f3f3f3f3f3f3f3f
    5d72:	3f3f3f3f 3f3f3f3f 	.insn	8, 0x3f3f3f3f3f3f3f3f
    5d7a:	3f3f3f3f 3f3f3f3f 	.insn	8, 0x3f3f3f3f3f3f3f3f
    5d82:	3f3f3f3f 3f3f3f3f 	.insn	8, 0x3f3f3f3f3f3f3f3f
    5d8a:	3f3f3f3f 3f3f3f3f 	.insn	8, 0x3f3f3f3f3f3f3f3f
    5d92:	3f3f3f3f 3f3f3f3f 	.insn	8, 0x3f3f3f3f3f3f3f3f
    5d9a:	3f3f3f3f 3f3f3f3f 	.insn	8, 0x3f3f3f3f3f3f3f3f
    5da2:	3f3f3f3f 3f3f3f3f 	.insn	8, 0x3f3f3f3f3f3f3f3f
    5daa:	3f3f3f3f 3f3f3f3f 	.insn	8, 0x3f3f3f3f3f3f3f3f
    5db2:	3f3f3f3f 3f3f3f3f 	.insn	8, 0x3f3f3f3f3f3f3f3f
    5dba:	3f3f3f3f 3f3f3f3f 	.insn	8, 0x3f3f3f3f3f3f3f3f
    5dc2:	3f3f3f3f 3f3f3f3f 	.insn	8, 0x3f3f3f3f3f3f3f3f
    5dca:	3f3f3f3f 3f3f3f3f 	.insn	8, 0x3f3f3f3f3f3f3f3f
    5dd2:	3f3f3f3f 3f3f3f3f 	.insn	8, 0x3f3f3f3f3f3f3f3f
    5dda:	3f3f3f3f 3f3f3f3f 	.insn	8, 0x3f3f3f3f3f3f3f3f
    5de2:	3f3f3f3f 3f3f3f3f 	.insn	8, 0x3f3f3f3f3f3f3f3f
    5dea:	3f3f3f3f 3f3f3f3f 	.insn	8, 0x3f3f3f3f3f3f3f3f
    5df2:	3f3f3f3f 3f3f3f3f 	.insn	8, 0x3f3f3f3f3f3f3f3f
    5dfa:	3f3f3f3f 3f3f3f3f 	.insn	8, 0x3f3f3f3f3f3f3f3f
    5e02:	3f3f3f3f 3f3f3f3f 	.insn	8, 0x3f3f3f3f3f3f3f3f
    5e0a:	3f3f3f3f 3f3f3f3f 	.insn	8, 0x3f3f3f3f3f3f3f3f
    5e12:	3f3f3f3f 3f3f3f3f 	.insn	8, 0x3f3f3f3f3f3f3f3f
    5e1a:	3f3f3f3f 3f3f3f3f 	.insn	8, 0x3f3f3f3f3f3f3f3f
    5e22:	3f3f3f3f 3f3f3f3f 	.insn	8, 0x3f3f3f3f3f3f3f3f
    5e2a:	3f3f3f3f 3f3f3f3f 	.insn	8, 0x3f3f3f3f3f3f3f3f
    5e32:	3f3f3f3f 3f3f3f3f 	.insn	8, 0x3f3f3f3f3f3f3f3f
    5e3a:	3f3f3f3f 3f3f3f3f 	.insn	8, 0x3f3f3f3f3f3f3f3f
    5e42:	3f3f3f3f 3f3f3f3f 	.insn	8, 0x3f3f3f3f3f3f3f3f
    5e4a:	3f3f3f3f 3f3f3f3f 	.insn	8, 0x3f3f3f3f3f3f3f3f
    5e52:	3f3f3f3f 3f3f3f3f 	.insn	8, 0x3f3f3f3f3f3f3f3f
    5e5a:	3f3f3f3f 3f3f3f3f 	.insn	8, 0x3f3f3f3f3f3f3f3f
    5e62:	3f3f3f3f 3f3f3f3f 	.insn	8, 0x3f3f3f3f3f3f3f3f
    5e6a:	3f3f3f3f 3f3f3f3f 	.insn	8, 0x3f3f3f3f3f3f3f3f
    5e72:	3f3f3f3f 3f3f3f3f 	.insn	8, 0x3f3f3f3f3f3f3f3f
    5e7a:	3f3f3f3f 3f3f3f3f 	.insn	8, 0x3f3f3f3f3f3f3f3f
    5e82:	3f3f3f3f 3f3f3f3f 	.insn	8, 0x3f3f3f3f3f3f3f3f
    5e8a:	3f3f3f3f 3f3f3f3f 	.insn	8, 0x3f3f3f3f3f3f3f3f
    5e92:	3f3f3f3f 3f3f3f3f 	.insn	8, 0x3f3f3f3f3f3f3f3f
    5e9a:	3f3f3f3f 3f3f3f3f 	.insn	8, 0x3f3f3f3f3f3f3f3f
    5ea2:	3f3f3f3f 3f3f3f3f 	.insn	8, 0x3f3f3f3f3f3f3f3f
    5eaa:	3f3f3f3f 3f3f3f3f 	.insn	8, 0x3f3f3f3f3f3f3f3f
    5eb2:	3f3f3f3f 3f3f3f3f 	.insn	8, 0x3f3f3f3f3f3f3f3f
    5eba:	3f3f3f3f 3f3f3f3f 	.insn	8, 0x3f3f3f3f3f3f3f3f
    5ec2:	3f3f3f3f 3f3f3f3f 	.insn	8, 0x3f3f3f3f3f3f3f3f
    5eca:	3f3f3f3f 3f3f3f3f 	.insn	8, 0x3f3f3f3f3f3f3f3f
    5ed2:	3f3f3f3f 3f3f3f3f 	.insn	8, 0x3f3f3f3f3f3f3f3f
    5eda:	3f3f3f3f 3f3f3f3f 	.insn	8, 0x3f3f3f3f3f3f3f3f
    5ee2:	3f3f3f3f 3f3f3f3f 	.insn	8, 0x3f3f3f3f3f3f3f3f
    5eea:	3f3f3f3f 3f3f3f3f 	.insn	8, 0x3f3f3f3f3f3f3f3f
    5ef2:	3f3f3f3f 3f3f3f3f 	.insn	8, 0x3f3f3f3f3f3f3f3f
    5efa:	3f3f3f3f 3f3f3f3f 	.insn	8, 0x3f3f3f3f3f3f3f3f
    5f02:	3f3f3f3f 3f3f3f3f 	.insn	8, 0x3f3f3f3f3f3f3f3f
    5f0a:	3f3f3f3f 3f3f3f3f 	.insn	8, 0x3f3f3f3f3f3f3f3f
    5f12:	3f3f3f3f 3f3f3f3f 	.insn	8, 0x3f3f3f3f3f3f3f3f
    5f1a:	3f3f3f3f 3f3f3f3f 	.insn	8, 0x3f3f3f3f3f3f3f3f
    5f22:	3f3f3f3f 3f3f3f3f 	.insn	8, 0x3f3f3f3f3f3f3f3f
    5f2a:	3f3f3f3f 3f3f3f3f 	.insn	8, 0x3f3f3f3f3f3f3f3f
    5f32:	3f3f3f3f 3f3f3f3f 	.insn	8, 0x3f3f3f3f3f3f3f3f
    5f3a:	3f3f3f3f 3f3f3f3f 	.insn	8, 0x3f3f3f3f3f3f3f3f
    5f42:	3f3f3f3f 3f3f3f3f 	.insn	8, 0x3f3f3f3f3f3f3f3f
    5f4a:	3f3f3f3f 3f3f3f3f 	.insn	8, 0x3f3f3f3f3f3f3f3f
    5f52:	3f3f3f3f 3f3f3f3f 	.insn	8, 0x3f3f3f3f3f3f3f3f
    5f5a:	3f3f3f3f 3f3f3f3f 	.insn	8, 0x3f3f3f3f3f3f3f3f
    5f62:	3f3f3f3f 3f3f3f3f 	.insn	8, 0x3f3f3f3f3f3f3f3f
    5f6a:	3f3f3f3f 3f3f3f3f 	.insn	8, 0x3f3f3f3f3f3f3f3f
    5f72:	3f3f3f3f 3f3f3f3f 	.insn	8, 0x3f3f3f3f3f3f3f3f
    5f7a:	3f3f3f3f 3f3f3f3f 	.insn	8, 0x3f3f3f3f3f3f3f3f
    5f82:	3f3f3f3f 3f3f3f3f 	.insn	8, 0x3f3f3f3f3f3f3f3f
    5f8a:	3f3f3f3f 3f3f3f3f 	.insn	8, 0x3f3f3f3f3f3f3f3f
    5f92:	3f3f3f3f 3f3f3f3f 	.insn	8, 0x3f3f3f3f3f3f3f3f
    5f9a:	3f3f3f3f 3f3f3f3f 	.insn	8, 0x3f3f3f3f3f3f3f3f
    5fa2:	3f3f3f3f 3f3f3f3f 	.insn	8, 0x3f3f3f3f3f3f3f3f
    5faa:	3f3f3f3f 3f3f3f3f 	.insn	8, 0x3f3f3f3f3f3f3f3f
    5fb2:	3f3f3f3f 3f3f3f3f 	.insn	8, 0x3f3f3f3f3f3f3f3f
    5fba:	3f3f3f3f 3f3f3f3f 	.insn	8, 0x3f3f3f3f3f3f3f3f
    5fc2:	3f3f3f3f 3f3f3f3f 	.insn	8, 0x3f3f3f3f3f3f3f3f
    5fca:	3f3f3f3f 3f3f3f3f 	.insn	8, 0x3f3f3f3f3f3f3f3f
    5fd2:	3f3f3f3f 3f3f3f3f 	.insn	8, 0x3f3f3f3f3f3f3f3f
    5fda:	3f3f3f3f 3f3f3f3f 	.insn	8, 0x3f3f3f3f3f3f3f3f
    5fe2:	3f3f3f3f 3f3f3f3f 	.insn	8, 0x3f3f3f3f3f3f3f3f
    5fea:	3f3f3f3f 3f3f3f3f 	.insn	8, 0x3f3f3f3f3f3f3f3f
    5ff2:	3f3f3f3f 3f3f3f3f 	.insn	8, 0x3f3f3f3f3f3f3f3f
    5ffa:	3f3f3f3f 3f3f3f3f 	.insn	8, 0x3f3f3f3f3f3f3f3f
    6002:	3f3f3f3f 3f3f3f3f 	.insn	8, 0x3f3f3f3f3f3f3f3f
    600a:	3f3f3f3f 3f3f3f3f 	.insn	8, 0x3f3f3f3f3f3f3f3f
    6012:	3f3f3f3f 3f3f3f3f 	.insn	8, 0x3f3f3f3f3f3f3f3f
    601a:	3f3f3f3f 3f3f3f3f 	.insn	8, 0x3f3f3f3f3f3f3f3f
    6022:	3f3f3f3f 3f3f3f3f 	.insn	8, 0x3f3f3f3f3f3f3f3f
    602a:	3f3f3f3f 3f3f3f3f 	.insn	8, 0x3f3f3f3f3f3f3f3f
    6032:	3f3f3f3f 3f3f3f3f 	.insn	8, 0x3f3f3f3f3f3f3f3f
    603a:	3f3f3f3f 3f3f3f3f 	.insn	8, 0x3f3f3f3f3f3f3f3f
    6042:	3f3f3f3f 3f3f3f3f 	.insn	8, 0x3f3f3f3f3f3f3f3f
    604a:	3f3f3f3f 3f3f3f3f 	.insn	8, 0x3f3f3f3f3f3f3f3f
    6052:	3f3f3f3f 3f3f3f3f 	.insn	8, 0x3f3f3f3f3f3f3f3f
    605a:	3f3f3f3f 3f3f3f3f 	.insn	8, 0x3f3f3f3f3f3f3f3f
    6062:	3f3f3f3f 3f3f3f3f 	.insn	8, 0x3f3f3f3f3f3f3f3f
    606a:	3f3f3f3f 3f3f3f3f 	.insn	8, 0x3f3f3f3f3f3f3f3f
    6072:	3f3f3f3f 3f3f3f3f 	.insn	8, 0x3f3f3f3f3f3f3f3f
    607a:	3f3f3f3f 3f3f3f3f 	.insn	8, 0x3f3f3f3f3f3f3f3f
    6082:	3f3f3f3f 3f3f3f3f 	.insn	8, 0x3f3f3f3f3f3f3f3f
    608a:	3f3f3f3f 3f3f3f3f 	.insn	8, 0x3f3f3f3f3f3f3f3f
    6092:	3f3f3f3f 3f3f3f3f 	.insn	8, 0x3f3f3f3f3f3f3f3f
    609a:	3f3f3f3f 3f3f3f3f 	.insn	8, 0x3f3f3f3f3f3f3f3f
    60a2:	3f3f3f3f 3f3f3f3f 	.insn	8, 0x3f3f3f3f3f3f3f3f
    60aa:	3f3f3f3f 3f3f3f3f 	.insn	8, 0x3f3f3f3f3f3f3f3f
    60b2:	3f3f3f3f 3f3f3f3f 	.insn	8, 0x3f3f3f3f3f3f3f3f
    60ba:	3f3f3f3f 3f3f3f3f 	.insn	8, 0x3f3f3f3f3f3f3f3f
    60c2:	3f3f3f3f 3f3f3f3f 	.insn	8, 0x3f3f3f3f3f3f3f3f
    60ca:	3f3f3f3f 3f3f3f3f 	.insn	8, 0x3f3f3f3f3f3f3f3f
    60d2:	3f3f3f3f 3f3f3f3f 	.insn	8, 0x3f3f3f3f3f3f3f3f
    60da:	3f3f3f3f 3f3f3f3f 	.insn	8, 0x3f3f3f3f3f3f3f3f
    60e2:	3f3f3f3f 3f3f3f3f 	.insn	8, 0x3f3f3f3f3f3f3f3f
    60ea:	3f3f3f3f 3f3f3f3f 	.insn	8, 0x3f3f3f3f3f3f3f3f
    60f2:	3f3f3f3f 3f3f3f3f 	.insn	8, 0x3f3f3f3f3f3f3f3f
    60fa:	3f3f3f3f 3f3f3f3f 	.insn	8, 0x3f3f3f3f3f3f3f3f
    6102:	3f3f3f3f 3f3f3f3f 	.insn	8, 0x3f3f3f3f3f3f3f3f
    610a:	3f3f3f3f 3f3f3f3f 	.insn	8, 0x3f3f3f3f3f3f3f3f
    6112:	3f3f3f3f 3f3f3f3f 	.insn	8, 0x3f3f3f3f3f3f3f3f
    611a:	3f3f3f3f 3f3f3f3f 	.insn	8, 0x3f3f3f3f3f3f3f3f
    6122:	3f3f3f3f 3f3f3f3f 	.insn	8, 0x3f3f3f3f3f3f3f3f
    612a:	3f3f3f3f 3f3f3f3f 	.insn	8, 0x3f3f3f3f3f3f3f3f
    6132:	3f3f3f3f 3f3f3f3f 	.insn	8, 0x3f3f3f3f3f3f3f3f
    613a:	3f3f3f3f 3f3f3f3f 	.insn	8, 0x3f3f3f3f3f3f3f3f
    6142:	3f3f3f3f 3f3f3f3f 	.insn	8, 0x3f3f3f3f3f3f3f3f
    614a:	3f3f3f3f 3f3f3f3f 	.insn	8, 0x3f3f3f3f3f3f3f3f
    6152:	3f3f3f3f 3f3f3f3f 	.insn	8, 0x3f3f3f3f3f3f3f3f
    615a:	3f3f3f3f 3f3f3f3f 	.insn	8, 0x3f3f3f3f3f3f3f3f
    6162:	3f3f3f3f 3f3f3f3f 	.insn	8, 0x3f3f3f3f3f3f3f3f
    616a:	3f3f3f3f 3f3f3f3f 	.insn	8, 0x3f3f3f3f3f3f3f3f
    6172:	3f3f3f3f 3f3f3f3f 	.insn	8, 0x3f3f3f3f3f3f3f3f
    617a:	3f3f3f3f 3f3f3f3f 	.insn	8, 0x3f3f3f3f3f3f3f3f
    6182:	3f3f3f3f 3f3f3f3f 	.insn	8, 0x3f3f3f3f3f3f3f3f
    618a:	3f3f3f3f 3f3f3f3f 	.insn	8, 0x3f3f3f3f3f3f3f3f
    6192:	3f3f3f3f 3f3f3f3f 	.insn	8, 0x3f3f3f3f3f3f3f3f
    619a:	3f3f3f3f 3f3f3f3f 	.insn	8, 0x3f3f3f3f3f3f3f3f
    61a2:	3f3f3f3f 3f3f3f3f 	.insn	8, 0x3f3f3f3f3f3f3f3f
    61aa:	3f3f3f3f 3f3f3f3f 	.insn	8, 0x3f3f3f3f3f3f3f3f
    61b2:	3f3f3f3f 3f3f3f3f 	.insn	8, 0x3f3f3f3f3f3f3f3f
    61ba:	3f3f3f3f 3f3f3f3f 	.insn	8, 0x3f3f3f3f3f3f3f3f
    61c2:	3f3f3f3f 3f3f3f3f 	.insn	8, 0x3f3f3f3f3f3f3f3f
    61ca:	3f3f3f3f 3f3f3f3f 	.insn	8, 0x3f3f3f3f3f3f3f3f
    61d2:	3f3f3f3f 3f3f3f3f 	.insn	8, 0x3f3f3f3f3f3f3f3f
    61da:	3f3f3f3f 3f3f3f3f 	.insn	8, 0x3f3f3f3f3f3f3f3f
    61e2:	3f3f3f3f 3f3f3f3f 	.insn	8, 0x3f3f3f3f3f3f3f3f
    61ea:	3f3f3f3f 3f3f3f3f 	.insn	8, 0x3f3f3f3f3f3f3f3f
    61f2:	3f3f3f3f 3f3f3f3f 	.insn	8, 0x3f3f3f3f3f3f3f3f
    61fa:	3f3f3f3f 3f3f3f3f 	.insn	8, 0x3f3f3f3f3f3f3f3f
    6202:	3f3f3f3f 3f3f3f3f 	.insn	8, 0x3f3f3f3f3f3f3f3f
    620a:	3f3f3f3f 3f3f3f3f 	.insn	8, 0x3f3f3f3f3f3f3f3f
    6212:	3f3f3f3f 3f3f3f3f 	.insn	8, 0x3f3f3f3f3f3f3f3f
    621a:	3f3f3f3f 3f3f3f3f 	.insn	8, 0x3f3f3f3f3f3f3f3f
    6222:	3f3f3f3f 3f3f3f3f 	.insn	8, 0x3f3f3f3f3f3f3f3f
    622a:	3f3f3f3f 3f3f3f3f 	.insn	8, 0x3f3f3f3f3f3f3f3f
    6232:	3f3f3f3f 3f3f3f3f 	.insn	8, 0x3f3f3f3f3f3f3f3f
    623a:	3f3f3f3f 3f3f3f3f 	.insn	8, 0x3f3f3f3f3f3f3f3f
    6242:	3f3f3f3f 3f3f3f3f 	.insn	8, 0x3f3f3f3f3f3f3f3f
    624a:	3f3f3f3f 3f3f3f3f 	.insn	8, 0x3f3f3f3f3f3f3f3f
    6252:	3f3f3f3f 3f3f3f3f 	.insn	8, 0x3f3f3f3f3f3f3f3f
    625a:	3f3f3f3f 3f3f3f3f 	.insn	8, 0x3f3f3f3f3f3f3f3f
    6262:	3f3f3f3f 3f3f3f3f 	.insn	8, 0x3f3f3f3f3f3f3f3f
    626a:	3f3f3f3f 3f3f3f3f 	.insn	8, 0x3f3f3f3f3f3f3f3f
    6272:	3f3f3f3f 3f3f3f3f 	.insn	8, 0x3f3f3f3f3f3f3f3f
    627a:	3f3f3f3f 3f3f3f3f 	.insn	8, 0x3f3f3f3f3f3f3f3f
    6282:	3f3f3f3f 3f3f3f3f 	.insn	8, 0x3f3f3f3f3f3f3f3f
    628a:	3f3f3f3f 3f3f3f3f 	.insn	8, 0x3f3f3f3f3f3f3f3f
    6292:	3f3f3f3f 3f3f3f3f 	.insn	8, 0x3f3f3f3f3f3f3f3f
    629a:	3f3f3f3f 3f3f3f3f 	.insn	8, 0x3f3f3f3f3f3f3f3f
    62a2:	3f3f3f3f 3f3f3f3f 	.insn	8, 0x3f3f3f3f3f3f3f3f
    62aa:	3f3f3f3f 3f3f3f3f 	.insn	8, 0x3f3f3f3f3f3f3f3f
    62b2:	3f3f3f3f 3f3f3f3f 	.insn	8, 0x3f3f3f3f3f3f3f3f
    62ba:	3f3f3f3f 3f3f3f3f 	.insn	8, 0x3f3f3f3f3f3f3f3f
    62c2:	3f3f3f3f 3f3f3f3f 	.insn	8, 0x3f3f3f3f3f3f3f3f
    62ca:	3f3f3f3f 3f3f3f3f 	.insn	8, 0x3f3f3f3f3f3f3f3f
    62d2:	3f3f3f3f 3f3f3f3f 	.insn	8, 0x3f3f3f3f3f3f3f3f
    62da:	3f3f3f3f 3f3f3f3f 	.insn	8, 0x3f3f3f3f3f3f3f3f
    62e2:	3f3f3f3f 3f3f3f3f 	.insn	8, 0x3f3f3f3f3f3f3f3f
    62ea:	3f3f3f3f 3f3f3f3f 	.insn	8, 0x3f3f3f3f3f3f3f3f
    62f2:	3f3f3f3f 3f3f3f3f 	.insn	8, 0x3f3f3f3f3f3f3f3f
    62fa:	3f3f3f3f 3f3f3f3f 	.insn	8, 0x3f3f3f3f3f3f3f3f
    6302:	3f3f3f3f 3f3f3f3f 	.insn	8, 0x3f3f3f3f3f3f3f3f
    630a:	3f3f3f3f 3f3f3f3f 	.insn	8, 0x3f3f3f3f3f3f3f3f
    6312:	3f3f3f3f 3f3f3f3f 	.insn	8, 0x3f3f3f3f3f3f3f3f
    631a:	3f3f3f3f 3f3f3f3f 	.insn	8, 0x3f3f3f3f3f3f3f3f
    6322:	3f3f3f3f 3f3f3f3f 	.insn	8, 0x3f3f3f3f3f3f3f3f
    632a:	3f3f3f3f 3f3f3f3f 	.insn	8, 0x3f3f3f3f3f3f3f3f
    6332:	3f3f3f3f 3f3f3f3f 	.insn	8, 0x3f3f3f3f3f3f3f3f
    633a:	3f3f3f3f 3f3f3f3f 	.insn	8, 0x3f3f3f3f3f3f3f3f
    6342:	3f3f3f3f 3f3f3f3f 	.insn	8, 0x3f3f3f3f3f3f3f3f
    634a:	3f3f3f3f 3f3f3f3f 	.insn	8, 0x3f3f3f3f3f3f3f3f
    6352:	3f3f3f3f 3f3f3f3f 	.insn	8, 0x3f3f3f3f3f3f3f3f
    635a:	3f3f3f3f 3f3f3f3f 	.insn	8, 0x3f3f3f3f3f3f3f3f
    6362:	3f3f3f3f 3f3f3f3f 	.insn	8, 0x3f3f3f3f3f3f3f3f
    636a:	3f3f3f3f 3f3f3f3f 	.insn	8, 0x3f3f3f3f3f3f3f3f
    6372:	3f3f3f3f 3f3f3f3f 	.insn	8, 0x3f3f3f3f3f3f3f3f
    637a:	3f3f3f3f 3f3f3f3f 	.insn	8, 0x3f3f3f3f3f3f3f3f
    6382:	3f3f3f3f 3f3f3f3f 	.insn	8, 0x3f3f3f3f3f3f3f3f
    638a:	3f3f3f3f 3f3f3f3f 	.insn	8, 0x3f3f3f3f3f3f3f3f
    6392:	3f3f3f3f 3f3f3f3f 	.insn	8, 0x3f3f3f3f3f3f3f3f
    639a:	3f3f3f3f 3f3f3f3f 	.insn	8, 0x3f3f3f3f3f3f3f3f
    63a2:	3f3f3f3f 3f3f3f3f 	.insn	8, 0x3f3f3f3f3f3f3f3f
    63aa:	3f3f3f3f 3f3f3f3f 	.insn	8, 0x3f3f3f3f3f3f3f3f
    63b2:	3f3f3f3f 3f3f3f3f 	.insn	8, 0x3f3f3f3f3f3f3f3f
    63ba:	3f3f3f3f 3f3f3f3f 	.insn	8, 0x3f3f3f3f3f3f3f3f
    63c2:	3f3f3f3f 3f3f3f3f 	.insn	8, 0x3f3f3f3f3f3f3f3f
    63ca:	3f3f3f3f 3f3f3f3f 	.insn	8, 0x3f3f3f3f3f3f3f3f
    63d2:	3f3f3f3f 3f3f3f3f 	.insn	8, 0x3f3f3f3f3f3f3f3f
    63da:	3f3f3f3f 3f3f3f3f 	.insn	8, 0x3f3f3f3f3f3f3f3f
    63e2:	3f3f3f3f 3f3f3f3f 	.insn	8, 0x3f3f3f3f3f3f3f3f
    63ea:	3f3f3f3f 3f3f3f3f 	.insn	8, 0x3f3f3f3f3f3f3f3f
    63f2:	3f3f3f3f 3f3f3f3f 	.insn	8, 0x3f3f3f3f3f3f3f3f
    63fa:	3f3f3f3f 3f3f3f3f 	.insn	8, 0x3f3f3f3f3f3f3f3f
    6402:	3f3f3f3f 3f3f3f3f 	.insn	8, 0x3f3f3f3f3f3f3f3f
    640a:	3f3f3f3f 3f3f3f3f 	.insn	8, 0x3f3f3f3f3f3f3f3f
    6412:	3f3f3f3f 3f3f3f3f 	.insn	8, 0x3f3f3f3f3f3f3f3f
    641a:	3f3f3f3f 3f3f3f3f 	.insn	8, 0x3f3f3f3f3f3f3f3f
    6422:	3f3f3f3f 3f3f3f3f 	.insn	8, 0x3f3f3f3f3f3f3f3f
    642a:	3f3f3f3f 3f3f3f3f 	.insn	8, 0x3f3f3f3f3f3f3f3f
    6432:	3f3f3f3f 3f3f3f3f 	.insn	8, 0x3f3f3f3f3f3f3f3f
    643a:	3f3f3f3f 3f3f3f3f 	.insn	8, 0x3f3f3f3f3f3f3f3f
    6442:	3f3f3f3f 3f3f3f3f 	.insn	8, 0x3f3f3f3f3f3f3f3f
    644a:	3f3f3f3f 3f3f3f3f 	.insn	8, 0x3f3f3f3f3f3f3f3f
    6452:	3f3f3f3f 3f3f3f3f 	.insn	8, 0x3f3f3f3f3f3f3f3f
    645a:	3f3f3f3f 3f3f3f3f 	.insn	8, 0x3f3f3f3f3f3f3f3f
    6462:	3f3f3f3f 3f3f3f3f 	.insn	8, 0x3f3f3f3f3f3f3f3f
    646a:	3f3f3f3f 3f3f3f3f 	.insn	8, 0x3f3f3f3f3f3f3f3f
    6472:	3f3f3f3f 3f3f3f3f 	.insn	8, 0x3f3f3f3f3f3f3f3f
    647a:	3f3f3f3f 3f3f3f3f 	.insn	8, 0x3f3f3f3f3f3f3f3f
    6482:	3f3f3f3f 3f3f3f3f 	.insn	8, 0x3f3f3f3f3f3f3f3f
    648a:	3f3f3f3f 3f3f3f3f 	.insn	8, 0x3f3f3f3f3f3f3f3f
    6492:	3f3f3f3f 3f3f3f3f 	.insn	8, 0x3f3f3f3f3f3f3f3f
    649a:	3f3f3f3f 3f3f3f3f 	.insn	8, 0x3f3f3f3f3f3f3f3f
    64a2:	3f3f3f3f 3f3f3f3f 	.insn	8, 0x3f3f3f3f3f3f3f3f
    64aa:	3f3f3f3f 3f3f3f3f 	.insn	8, 0x3f3f3f3f3f3f3f3f
    64b2:	3f3f3f3f 3f3f3f3f 	.insn	8, 0x3f3f3f3f3f3f3f3f
    64ba:	3f3f3f3f 3f3f3f3f 	.insn	8, 0x3f3f3f3f3f3f3f3f
    64c2:	3f3f3f3f 3f3f3f3f 	.insn	8, 0x3f3f3f3f3f3f3f3f
    64ca:	3f3f3f3f 3f3f3f3f 	.insn	8, 0x3f3f3f3f3f3f3f3f
    64d2:	3f3f3f3f 3f3f3f3f 	.insn	8, 0x3f3f3f3f3f3f3f3f
    64da:	3f3f3f3f 3f3f3f3f 	.insn	8, 0x3f3f3f3f3f3f3f3f
    64e2:	3f3f3f3f 3f3f3f3f 	.insn	8, 0x3f3f3f3f3f3f3f3f
    64ea:	3f3f3f3f 3f3f3f3f 	.insn	8, 0x3f3f3f3f3f3f3f3f
    64f2:	3f3f3f3f 3f3f3f3f 	.insn	8, 0x3f3f3f3f3f3f3f3f
    64fa:	3f3f3f3f 3f3f3f3f 	.insn	8, 0x3f3f3f3f3f3f3f3f
    6502:	3f3f3f3f 3f3f3f3f 	.insn	8, 0x3f3f3f3f3f3f3f3f
    650a:	3f3f3f3f 3f3f3f3f 	.insn	8, 0x3f3f3f3f3f3f3f3f
    6512:	3f3f3f3f 3f3f3f3f 	.insn	8, 0x3f3f3f3f3f3f3f3f
    651a:	3f3f3f3f 3f3f3f3f 	.insn	8, 0x3f3f3f3f3f3f3f3f
    6522:	3f3f3f3f 3f3f3f3f 	.insn	8, 0x3f3f3f3f3f3f3f3f
    652a:	3f3f3f3f 3f3f3f3f 	.insn	8, 0x3f3f3f3f3f3f3f3f
    6532:	3f3f3f3f 3f3f3f3f 	.insn	8, 0x3f3f3f3f3f3f3f3f
    653a:	3f3f3f3f 3f3f3f3f 	.insn	8, 0x3f3f3f3f3f3f3f3f
    6542:	3f3f3f3f 3f3f3f3f 	.insn	8, 0x3f3f3f3f3f3f3f3f
    654a:	3f3f3f3f 3f3f3f3f 	.insn	8, 0x3f3f3f3f3f3f3f3f
    6552:	3f3f3f3f 3f3f3f3f 	.insn	8, 0x3f3f3f3f3f3f3f3f
    655a:	3f3f3f3f 3f3f3f3f 	.insn	8, 0x3f3f3f3f3f3f3f3f
    6562:	3f3f3f3f 3f3f3f3f 	.insn	8, 0x3f3f3f3f3f3f3f3f
    656a:	3f3f3f3f 3f3f3f3f 	.insn	8, 0x3f3f3f3f3f3f3f3f
    6572:	3f3f3f3f 3f3f3f3f 	.insn	8, 0x3f3f3f3f3f3f3f3f
    657a:	3f3f3f3f 3f3f3f3f 	.insn	8, 0x3f3f3f3f3f3f3f3f
    6582:	3f3f3f3f 3f3f3f3f 	.insn	8, 0x3f3f3f3f3f3f3f3f
    658a:	3f3f3f3f 3f3f3f3f 	.insn	8, 0x3f3f3f3f3f3f3f3f
    6592:	3f3f3f3f 3f3f3f3f 	.insn	8, 0x3f3f3f3f3f3f3f3f
    659a:	3f3f3f3f 3f3f3f3f 	.insn	8, 0x3f3f3f3f3f3f3f3f
    65a2:	3f3f3f3f 3f3f3f3f 	.insn	8, 0x3f3f3f3f3f3f3f3f
    65aa:	3f3f3f3f 3f3f3f3f 	.insn	8, 0x3f3f3f3f3f3f3f3f
    65b2:	3f3f3f3f 3f3f3f3f 	.insn	8, 0x3f3f3f3f3f3f3f3f
    65ba:	3f3f3f3f 3f3f3f3f 	.insn	8, 0x3f3f3f3f3f3f3f3f
    65c2:	3f3f3f3f 3f3f3f3f 	.insn	8, 0x3f3f3f3f3f3f3f3f
    65ca:	3f3f3f3f 3f3f3f3f 	.insn	8, 0x3f3f3f3f3f3f3f3f
    65d2:	3f3f3f3f 3f3f3f3f 	.insn	8, 0x3f3f3f3f3f3f3f3f
    65da:	3f3f3f3f 3f3f3f3f 	.insn	8, 0x3f3f3f3f3f3f3f3f
    65e2:	3f3f3f3f 3f3f3f3f 	.insn	8, 0x3f3f3f3f3f3f3f3f
    65ea:	3f3f3f3f 3f3f3f3f 	.insn	8, 0x3f3f3f3f3f3f3f3f
    65f2:	3f3f3f3f 3f3f3f3f 	.insn	8, 0x3f3f3f3f3f3f3f3f
    65fa:	3f3f3f3f 3f3f3f3f 	.insn	8, 0x3f3f3f3f3f3f3f3f
    6602:	3f3f3f3f 3f3f3f3f 	.insn	8, 0x3f3f3f3f3f3f3f3f
    660a:	3f3f3f3f 3f3f3f3f 	.insn	8, 0x3f3f3f3f3f3f3f3f
    6612:	3f3f3f3f 3f3f3f3f 	.insn	8, 0x3f3f3f3f3f3f3f3f
    661a:	3f3f3f3f 3f3f3f3f 	.insn	8, 0x3f3f3f3f3f3f3f3f
    6622:	3f3f3f3f 3f3f3f3f 	.insn	8, 0x3f3f3f3f3f3f3f3f
    662a:	3f3f3f3f 3f3f3f3f 	.insn	8, 0x3f3f3f3f3f3f3f3f
    6632:	3f3f3f3f 3f3f3f3f 	.insn	8, 0x3f3f3f3f3f3f3f3f
    663a:	3f3f3f3f 3f3f3f3f 	.insn	8, 0x3f3f3f3f3f3f3f3f
    6642:	3f3f3f3f 3f3f3f3f 	.insn	8, 0x3f3f3f3f3f3f3f3f
    664a:	3f3f3f3f 3f3f3f3f 	.insn	8, 0x3f3f3f3f3f3f3f3f
    6652:	3f3f3f3f 3f3f3f3f 	.insn	8, 0x3f3f3f3f3f3f3f3f
    665a:	3f3f3f3f 3f3f3f3f 	.insn	8, 0x3f3f3f3f3f3f3f3f
    6662:	3f3f3f3f 3f3f3f3f 	.insn	8, 0x3f3f3f3f3f3f3f3f
    666a:	3f3f3f3f 3f3f3f3f 	.insn	8, 0x3f3f3f3f3f3f3f3f
    6672:	3f3f3f3f 3f3f3f3f 	.insn	8, 0x3f3f3f3f3f3f3f3f
    667a:	3f3f3f3f 3f3f3f3f 	.insn	8, 0x3f3f3f3f3f3f3f3f
    6682:	3f3f3f3f 3f3f3f3f 	.insn	8, 0x3f3f3f3f3f3f3f3f
    668a:	3f3f3f3f 3f3f3f3f 	.insn	8, 0x3f3f3f3f3f3f3f3f
    6692:	3f3f3f3f 3f3f3f3f 	.insn	8, 0x3f3f3f3f3f3f3f3f
    669a:	3f3f3f3f 3f3f3f3f 	.insn	8, 0x3f3f3f3f3f3f3f3f
    66a2:	3f3f3f3f 3f3f3f3f 	.insn	8, 0x3f3f3f3f3f3f3f3f
    66aa:	3f3f3f3f 3f3f3f3f 	.insn	8, 0x3f3f3f3f3f3f3f3f
    66b2:	3f3f3f3f 3f3f3f3f 	.insn	8, 0x3f3f3f3f3f3f3f3f
    66ba:	3f3f3f3f 3f3f3f3f 	.insn	8, 0x3f3f3f3f3f3f3f3f
    66c2:	3f3f3f3f 3f3f3f3f 	.insn	8, 0x3f3f3f3f3f3f3f3f
    66ca:	3f3f3f3f 3f3f3f3f 	.insn	8, 0x3f3f3f3f3f3f3f3f
    66d2:	3f3f3f3f 3f3f3f3f 	.insn	8, 0x3f3f3f3f3f3f3f3f
    66da:	3f3f3f3f 3f3f3f3f 	.insn	8, 0x3f3f3f3f3f3f3f3f
    66e2:	3f3f3f3f 3f3f3f3f 	.insn	8, 0x3f3f3f3f3f3f3f3f
    66ea:	3f3f3f3f 3f3f3f3f 	.insn	8, 0x3f3f3f3f3f3f3f3f
    66f2:	3f3f3f3f 3f3f3f3f 	.insn	8, 0x3f3f3f3f3f3f3f3f
    66fa:	3f3f3f3f 3f3f3f3f 	.insn	8, 0x3f3f3f3f3f3f3f3f
    6702:	3f3f3f3f 3f3f3f3f 	.insn	8, 0x3f3f3f3f3f3f3f3f
    670a:	3f3f3f3f 3f3f3f3f 	.insn	8, 0x3f3f3f3f3f3f3f3f
    6712:	3f3f3f3f 3f3f3f3f 	.insn	8, 0x3f3f3f3f3f3f3f3f
    671a:	3f3f3f3f 3f3f3f3f 	.insn	8, 0x3f3f3f3f3f3f3f3f
    6722:	3f3f3f3f 3f3f3f3f 	.insn	8, 0x3f3f3f3f3f3f3f3f
    672a:	3f3f3f3f 3f3f3f3f 	.insn	8, 0x3f3f3f3f3f3f3f3f
    6732:	3f3f3f3f 3f3f3f3f 	.insn	8, 0x3f3f3f3f3f3f3f3f
    673a:	3f3f3f3f 3f3f3f3f 	.insn	8, 0x3f3f3f3f3f3f3f3f
    6742:	3f3f3f3f 3f3f3f3f 	.insn	8, 0x3f3f3f3f3f3f3f3f
    674a:	3f3f3f3f 3f3f3f3f 	.insn	8, 0x3f3f3f3f3f3f3f3f
    6752:	3f3f3f3f 3f3f3f3f 	.insn	8, 0x3f3f3f3f3f3f3f3f
    675a:	3f3f3f3f 3f3f3f3f 	.insn	8, 0x3f3f3f3f3f3f3f3f
    6762:	3f3f3f3f 3f3f3f3f 	.insn	8, 0x3f3f3f3f3f3f3f3f
    676a:	3f3f3f3f 3f3f3f3f 	.insn	8, 0x3f3f3f3f3f3f3f3f
    6772:	3f3f3f3f 3f3f3f3f 	.insn	8, 0x3f3f3f3f3f3f3f3f
    677a:	3f3f3f3f 3f3f3f3f 	.insn	8, 0x3f3f3f3f3f3f3f3f
    6782:	3f3f3f3f 3f3f3f3f 	.insn	8, 0x3f3f3f3f3f3f3f3f
    678a:	3f3f3f3f 3f3f3f3f 	.insn	8, 0x3f3f3f3f3f3f3f3f
    6792:	3f3f3f3f 3f3f3f3f 	.insn	8, 0x3f3f3f3f3f3f3f3f
    679a:	3f3f3f3f 3f3f3f3f 	.insn	8, 0x3f3f3f3f3f3f3f3f
    67a2:	3f3f3f3f 3f3f3f3f 	.insn	8, 0x3f3f3f3f3f3f3f3f
    67aa:	3f3f3f3f 3f3f3f3f 	.insn	8, 0x3f3f3f3f3f3f3f3f
    67b2:	3f3f3f3f 3f3f3f3f 	.insn	8, 0x3f3f3f3f3f3f3f3f
    67ba:	3f3f3f3f 3f3f3f3f 	.insn	8, 0x3f3f3f3f3f3f3f3f
    67c2:	3f3f3f3f 3f3f3f3f 	.insn	8, 0x3f3f3f3f3f3f3f3f
    67ca:	3f3f3f3f 3f3f3f3f 	.insn	8, 0x3f3f3f3f3f3f3f3f
    67d2:	3f3f3f3f 3f3f3f3f 	.insn	8, 0x3f3f3f3f3f3f3f3f
    67da:	3f3f3f3f 3f3f3f3f 	.insn	8, 0x3f3f3f3f3f3f3f3f
    67e2:	3f3f3f3f 3f3f3f3f 	.insn	8, 0x3f3f3f3f3f3f3f3f
    67ea:	3f3f3f3f 3f3f3f3f 	.insn	8, 0x3f3f3f3f3f3f3f3f
    67f2:	3f3f3f3f 3f3f3f3f 	.insn	8, 0x3f3f3f3f3f3f3f3f
    67fa:	3f3f3f3f 3f3f3f3f 	.insn	8, 0x3f3f3f3f3f3f3f3f
    6802:	3f3f3f3f 3f3f3f3f 	.insn	8, 0x3f3f3f3f3f3f3f3f
    680a:	3f3f3f3f 3f3f3f3f 	.insn	8, 0x3f3f3f3f3f3f3f3f
    6812:	3f3f3f3f 3f3f3f3f 	.insn	8, 0x3f3f3f3f3f3f3f3f
    681a:	3f3f3f3f 3f3f3f3f 	.insn	8, 0x3f3f3f3f3f3f3f3f
    6822:	3f3f3f3f 3f3f3f3f 	.insn	8, 0x3f3f3f3f3f3f3f3f
    682a:	3f3f3f3f 3f3f3f3f 	.insn	8, 0x3f3f3f3f3f3f3f3f
    6832:	3f3f3f3f 3f3f3f3f 	.insn	8, 0x3f3f3f3f3f3f3f3f
    683a:	3f3f3f3f 3f3f3f3f 	.insn	8, 0x3f3f3f3f3f3f3f3f
    6842:	3f3f3f3f 3f3f3f3f 	.insn	8, 0x3f3f3f3f3f3f3f3f
    684a:	3f3f3f3f 3f3f3f3f 	.insn	8, 0x3f3f3f3f3f3f3f3f
    6852:	3f3f3f3f 3f3f3f3f 	.insn	8, 0x3f3f3f3f3f3f3f3f
    685a:	3f3f3f3f 3f3f3f3f 	.insn	8, 0x3f3f3f3f3f3f3f3f
    6862:	3f3f3f3f 3f3f3f3f 	.insn	8, 0x3f3f3f3f3f3f3f3f
    686a:	3f3f3f3f 3f3f3f3f 	.insn	8, 0x3f3f3f3f3f3f3f3f
    6872:	3f3f3f3f 3f3f3f3f 	.insn	8, 0x3f3f3f3f3f3f3f3f
    687a:	3f3f3f3f 3f3f3f3f 	.insn	8, 0x3f3f3f3f3f3f3f3f
    6882:	3f3f3f3f 3f3f3f3f 	.insn	8, 0x3f3f3f3f3f3f3f3f
    688a:	3f3f3f3f 3f3f3f3f 	.insn	8, 0x3f3f3f3f3f3f3f3f
    6892:	3f3f3f3f 3f3f3f3f 	.insn	8, 0x3f3f3f3f3f3f3f3f
    689a:	3f3f3f3f 3f3f3f3f 	.insn	8, 0x3f3f3f3f3f3f3f3f
    68a2:	3f3f3f3f 3f3f3f3f 	.insn	8, 0x3f3f3f3f3f3f3f3f
    68aa:	3f3f3f3f 3f3f3f3f 	.insn	8, 0x3f3f3f3f3f3f3f3f
    68b2:	3f3f3f3f 3f3f3f3f 	.insn	8, 0x3f3f3f3f3f3f3f3f
    68ba:	3f3f3f3f 3f3f3f3f 	.insn	8, 0x3f3f3f3f3f3f3f3f
    68c2:	3f3f3f3f 3f3f3f3f 	.insn	8, 0x3f3f3f3f3f3f3f3f
    68ca:	3f3f3f3f 3f3f3f3f 	.insn	8, 0x3f3f3f3f3f3f3f3f
    68d2:	3f3f3f3f 3f3f3f3f 	.insn	8, 0x3f3f3f3f3f3f3f3f
    68da:	3f3f3f3f 3f3f3f3f 	.insn	8, 0x3f3f3f3f3f3f3f3f
    68e2:	3f3f3f3f 3f3f3f3f 	.insn	8, 0x3f3f3f3f3f3f3f3f
    68ea:	3f3f3f3f 3f3f3f3f 	.insn	8, 0x3f3f3f3f3f3f3f3f
    68f2:	3f3f3f3f 3f3f3f3f 	.insn	8, 0x3f3f3f3f3f3f3f3f
    68fa:	3f3f3f3f 3f3f3f3f 	.insn	8, 0x3f3f3f3f3f3f3f3f
    6902:	3f3f3f3f 3f3f3f3f 	.insn	8, 0x3f3f3f3f3f3f3f3f
    690a:	3f3f3f3f 3f3f3f3f 	.insn	8, 0x3f3f3f3f3f3f3f3f
    6912:	3f3f3f3f 3f3f3f3f 	.insn	8, 0x3f3f3f3f3f3f3f3f
    691a:	3f3f3f3f 3f3f3f3f 	.insn	8, 0x3f3f3f3f3f3f3f3f
    6922:	3f3f3f3f 3f3f3f3f 	.insn	8, 0x3f3f3f3f3f3f3f3f
    692a:	3f3f3f3f 3f3f3f3f 	.insn	8, 0x3f3f3f3f3f3f3f3f
    6932:	3f3f3f3f 3f3f3f3f 	.insn	8, 0x3f3f3f3f3f3f3f3f
    693a:	3f3f3f3f 3f3f3f3f 	.insn	8, 0x3f3f3f3f3f3f3f3f
    6942:	3f3f3f3f 3f3f3f3f 	.insn	8, 0x3f3f3f3f3f3f3f3f
    694a:	3f3f3f3f 3f3f3f3f 	.insn	8, 0x3f3f3f3f3f3f3f3f
    6952:	3f3f3f3f 3f3f3f3f 	.insn	8, 0x3f3f3f3f3f3f3f3f
    695a:	3f3f3f3f 3f3f3f3f 	.insn	8, 0x3f3f3f3f3f3f3f3f
    6962:	3f3f3f3f 3f3f3f3f 	.insn	8, 0x3f3f3f3f3f3f3f3f
    696a:	3f3f3f3f 3f3f3f3f 	.insn	8, 0x3f3f3f3f3f3f3f3f
    6972:	3f3f3f3f 3f3f3f3f 	.insn	8, 0x3f3f3f3f3f3f3f3f
    697a:	3f3f3f3f 3f3f3f3f 	.insn	8, 0x3f3f3f3f3f3f3f3f
    6982:	3f3f3f3f 3f3f3f3f 	.insn	8, 0x3f3f3f3f3f3f3f3f
    698a:	3f3f3f3f 3f3f3f3f 	.insn	8, 0x3f3f3f3f3f3f3f3f
    6992:	3f3f3f3f 3f3f3f3f 	.insn	8, 0x3f3f3f3f3f3f3f3f
    699a:	3f3f3f3f 3f3f3f3f 	.insn	8, 0x3f3f3f3f3f3f3f3f
    69a2:	3f3f3f3f 3f3f3f3f 	.insn	8, 0x3f3f3f3f3f3f3f3f
    69aa:	3f3f3f3f 3f3f3f3f 	.insn	8, 0x3f3f3f3f3f3f3f3f
    69b2:	3f3f3f3f 3f3f3f3f 	.insn	8, 0x3f3f3f3f3f3f3f3f
    69ba:	3f3f3f3f 3f3f3f3f 	.insn	8, 0x3f3f3f3f3f3f3f3f
    69c2:	3f3f3f3f 3f3f3f3f 	.insn	8, 0x3f3f3f3f3f3f3f3f
    69ca:	3f3f3f3f 3f3f3f3f 	.insn	8, 0x3f3f3f3f3f3f3f3f
    69d2:	3f3f3f3f 3f3f3f3f 	.insn	8, 0x3f3f3f3f3f3f3f3f
    69da:	3f3f3f3f 3f3f3f3f 	.insn	8, 0x3f3f3f3f3f3f3f3f
    69e2:	3f3f3f3f 3f3f3f3f 	.insn	8, 0x3f3f3f3f3f3f3f3f
    69ea:	3f3f3f3f 3f3f3f3f 	.insn	8, 0x3f3f3f3f3f3f3f3f
    69f2:	3f3f3f3f 3f3f3f3f 	.insn	8, 0x3f3f3f3f3f3f3f3f
    69fa:	3f3f3f3f 3f3f3f3f 	.insn	8, 0x3f3f3f3f3f3f3f3f
    6a02:	3f3f3f3f 3f3f3f3f 	.insn	8, 0x3f3f3f3f3f3f3f3f
    6a0a:	3f3f3f3f 3f3f3f3f 	.insn	8, 0x3f3f3f3f3f3f3f3f
    6a12:	3f3f3f3f 3f3f3f3f 	.insn	8, 0x3f3f3f3f3f3f3f3f
    6a1a:	3f3f3f3f 3f3f3f3f 	.insn	8, 0x3f3f3f3f3f3f3f3f
    6a22:	3f3f3f3f 3f3f3f3f 	.insn	8, 0x3f3f3f3f3f3f3f3f
    6a2a:	3f3f3f3f 3f3f3f3f 	.insn	8, 0x3f3f3f3f3f3f3f3f
    6a32:	3f3f3f3f 3f3f3f3f 	.insn	8, 0x3f3f3f3f3f3f3f3f
    6a3a:	3f3f3f3f 3f3f3f3f 	.insn	8, 0x3f3f3f3f3f3f3f3f
    6a42:	3f3f3f3f 3f3f3f3f 	.insn	8, 0x3f3f3f3f3f3f3f3f
    6a4a:	3f3f3f3f 3f3f3f3f 	.insn	8, 0x3f3f3f3f3f3f3f3f
    6a52:	3f3f3f3f 3f3f3f3f 	.insn	8, 0x3f3f3f3f3f3f3f3f
    6a5a:	3f3f3f3f 3f3f3f3f 	.insn	8, 0x3f3f3f3f3f3f3f3f
    6a62:	3f3f3f3f 3f3f3f3f 	.insn	8, 0x3f3f3f3f3f3f3f3f
    6a6a:	3f3f3f3f 3f3f3f3f 	.insn	8, 0x3f3f3f3f3f3f3f3f
    6a72:	3f3f3f3f 3f3f3f3f 	.insn	8, 0x3f3f3f3f3f3f3f3f
    6a7a:	3f3f3f3f 3f3f3f3f 	.insn	8, 0x3f3f3f3f3f3f3f3f
    6a82:	3f3f3f3f 3f3f3f3f 	.insn	8, 0x3f3f3f3f3f3f3f3f
    6a8a:	3f3f3f3f 3f3f3f3f 	.insn	8, 0x3f3f3f3f3f3f3f3f
    6a92:	3f3f3f3f 3f3f3f3f 	.insn	8, 0x3f3f3f3f3f3f3f3f
    6a9a:	3f3f3f3f 3f3f3f3f 	.insn	8, 0x3f3f3f3f3f3f3f3f
    6aa2:	3f3f3f3f 3f3f3f3f 	.insn	8, 0x3f3f3f3f3f3f3f3f
    6aaa:	3f3f3f3f 3f3f3f3f 	.insn	8, 0x3f3f3f3f3f3f3f3f
    6ab2:	3f3f3f3f 3f3f3f3f 	.insn	8, 0x3f3f3f3f3f3f3f3f
    6aba:	3f3f3f3f 3f3f3f3f 	.insn	8, 0x3f3f3f3f3f3f3f3f
    6ac2:	3f3f3f3f 3f3f3f3f 	.insn	8, 0x3f3f3f3f3f3f3f3f
    6aca:	3f3f3f3f 3f3f3f3f 	.insn	8, 0x3f3f3f3f3f3f3f3f
    6ad2:	3f3f3f3f 3f3f3f3f 	.insn	8, 0x3f3f3f3f3f3f3f3f
    6ada:	3f3f3f3f 3f3f3f3f 	.insn	8, 0x3f3f3f3f3f3f3f3f
    6ae2:	3f3f3f3f 3f3f3f3f 	.insn	8, 0x3f3f3f3f3f3f3f3f
    6aea:	3f3f3f3f 3f3f3f3f 	.insn	8, 0x3f3f3f3f3f3f3f3f
    6af2:	3f3f3f3f 3f3f3f3f 	.insn	8, 0x3f3f3f3f3f3f3f3f
    6afa:	3f3f3f3f 3f3f3f3f 	.insn	8, 0x3f3f3f3f3f3f3f3f
    6b02:	3f3f3f3f 3f3f3f3f 	.insn	8, 0x3f3f3f3f3f3f3f3f
    6b0a:	3f3f3f3f 3f3f3f3f 	.insn	8, 0x3f3f3f3f3f3f3f3f
    6b12:	3f3f3f3f 3f3f3f3f 	.insn	8, 0x3f3f3f3f3f3f3f3f
    6b1a:	3f3f3f3f 3f3f3f3f 	.insn	8, 0x3f3f3f3f3f3f3f3f
    6b22:	3f3f3f3f 3f3f3f3f 	.insn	8, 0x3f3f3f3f3f3f3f3f
    6b2a:	3f3f3f3f 3f3f3f3f 	.insn	8, 0x3f3f3f3f3f3f3f3f
    6b32:	3f3f3f3f 3f3f3f3f 	.insn	8, 0x3f3f3f3f3f3f3f3f
    6b3a:	3f3f3f3f 3f3f3f3f 	.insn	8, 0x3f3f3f3f3f3f3f3f
    6b42:	3f3f3f3f 3f3f3f3f 	.insn	8, 0x3f3f3f3f3f3f3f3f
    6b4a:	3f3f3f3f 3f3f3f3f 	.insn	8, 0x3f3f3f3f3f3f3f3f
    6b52:	3f3f3f3f 3f3f3f3f 	.insn	8, 0x3f3f3f3f3f3f3f3f
    6b5a:	3f3f3f3f 3f3f3f3f 	.insn	8, 0x3f3f3f3f3f3f3f3f
    6b62:	3f3f3f3f 3f3f3f3f 	.insn	8, 0x3f3f3f3f3f3f3f3f
    6b6a:	3f3f3f3f 3f3f3f3f 	.insn	8, 0x3f3f3f3f3f3f3f3f
    6b72:	3f3f3f3f 3f3f3f3f 	.insn	8, 0x3f3f3f3f3f3f3f3f
    6b7a:	3f3f3f3f 3f3f3f3f 	.insn	8, 0x3f3f3f3f3f3f3f3f
    6b82:	3f3f3f3f 3f3f3f3f 	.insn	8, 0x3f3f3f3f3f3f3f3f
    6b8a:	3f3f3f3f 3f3f3f3f 	.insn	8, 0x3f3f3f3f3f3f3f3f
    6b92:	3f3f3f3f 3f3f3f3f 	.insn	8, 0x3f3f3f3f3f3f3f3f
    6b9a:	3f3f3f3f 3f3f3f3f 	.insn	8, 0x3f3f3f3f3f3f3f3f
    6ba2:	3f3f3f3f 3f3f3f3f 	.insn	8, 0x3f3f3f3f3f3f3f3f
    6baa:	3f3f3f3f 3f3f3f3f 	.insn	8, 0x3f3f3f3f3f3f3f3f
    6bb2:	3f3f3f3f 3f3f3f3f 	.insn	8, 0x3f3f3f3f3f3f3f3f
    6bba:	3f3f3f3f 3f3f3f3f 	.insn	8, 0x3f3f3f3f3f3f3f3f
    6bc2:	3f3f3f3f 3f3f3f3f 	.insn	8, 0x3f3f3f3f3f3f3f3f
    6bca:	3f3f3f3f 3f3f3f3f 	.insn	8, 0x3f3f3f3f3f3f3f3f
    6bd2:	3f3f3f3f 3f3f3f3f 	.insn	8, 0x3f3f3f3f3f3f3f3f
    6bda:	3f3f3f3f 3f3f3f3f 	.insn	8, 0x3f3f3f3f3f3f3f3f
    6be2:	3f3f3f3f 3f3f3f3f 	.insn	8, 0x3f3f3f3f3f3f3f3f
    6bea:	3f3f3f3f 3f3f3f3f 	.insn	8, 0x3f3f3f3f3f3f3f3f
    6bf2:	3f3f3f3f 3f3f3f3f 	.insn	8, 0x3f3f3f3f3f3f3f3f
    6bfa:	3f3f3f3f 3f3f3f3f 	.insn	8, 0x3f3f3f3f3f3f3f3f
    6c02:	3f3f3f3f 3f3f3f3f 	.insn	8, 0x3f3f3f3f3f3f3f3f
    6c0a:	3f3f3f3f 3f3f3f3f 	.insn	8, 0x3f3f3f3f3f3f3f3f
    6c12:	3f3f3f3f 3f3f3f3f 	.insn	8, 0x3f3f3f3f3f3f3f3f
    6c1a:	3f3f3f3f 3f3f3f3f 	.insn	8, 0x3f3f3f3f3f3f3f3f
    6c22:	3f3f3f3f 3f3f3f3f 	.insn	8, 0x3f3f3f3f3f3f3f3f
    6c2a:	3f3f3f3f 3f3f3f3f 	.insn	8, 0x3f3f3f3f3f3f3f3f
    6c32:	3f3f3f3f 3f3f3f3f 	.insn	8, 0x3f3f3f3f3f3f3f3f
    6c3a:	3f3f3f3f 3f3f3f3f 	.insn	8, 0x3f3f3f3f3f3f3f3f
    6c42:	3f3f3f3f 3f3f3f3f 	.insn	8, 0x3f3f3f3f3f3f3f3f
    6c4a:	3f3f3f3f 3f3f3f3f 	.insn	8, 0x3f3f3f3f3f3f3f3f
    6c52:	3f3f3f3f 3f3f3f3f 	.insn	8, 0x3f3f3f3f3f3f3f3f
    6c5a:	3f3f3f3f 3f3f3f3f 	.insn	8, 0x3f3f3f3f3f3f3f3f
    6c62:	3f3f3f3f 3f3f3f3f 	.insn	8, 0x3f3f3f3f3f3f3f3f
    6c6a:	3f3f3f3f 3f3f3f3f 	.insn	8, 0x3f3f3f3f3f3f3f3f
    6c72:	3f3f3f3f 3f3f3f3f 	.insn	8, 0x3f3f3f3f3f3f3f3f
    6c7a:	3f3f3f3f 3f3f3f3f 	.insn	8, 0x3f3f3f3f3f3f3f3f
    6c82:	3f3f3f3f 3f3f3f3f 	.insn	8, 0x3f3f3f3f3f3f3f3f
    6c8a:	3f3f3f3f 3f3f3f3f 	.insn	8, 0x3f3f3f3f3f3f3f3f
    6c92:	3f3f3f3f 3f3f3f3f 	.insn	8, 0x3f3f3f3f3f3f3f3f
    6c9a:	3f3f3f3f 3f3f3f3f 	.insn	8, 0x3f3f3f3f3f3f3f3f
    6ca2:	3f3f3f3f 3f3f3f3f 	.insn	8, 0x3f3f3f3f3f3f3f3f
    6caa:	3f3f3f3f 3f3f3f3f 	.insn	8, 0x3f3f3f3f3f3f3f3f
    6cb2:	3f3f3f3f 3f3f3f3f 	.insn	8, 0x3f3f3f3f3f3f3f3f
    6cba:	3f3f3f3f 3f3f3f3f 	.insn	8, 0x3f3f3f3f3f3f3f3f
    6cc2:	3f3f3f3f 3f3f3f3f 	.insn	8, 0x3f3f3f3f3f3f3f3f
    6cca:	3f3f3f3f 3f3f3f3f 	.insn	8, 0x3f3f3f3f3f3f3f3f
    6cd2:	3f3f3f3f 3f3f3f3f 	.insn	8, 0x3f3f3f3f3f3f3f3f
    6cda:	3f3f3f3f 3f3f3f3f 	.insn	8, 0x3f3f3f3f3f3f3f3f
    6ce2:	3f3f3f3f 3f3f3f3f 	.insn	8, 0x3f3f3f3f3f3f3f3f
    6cea:	3f3f3f3f 3f3f3f3f 	.insn	8, 0x3f3f3f3f3f3f3f3f
    6cf2:	3f3f3f3f 3f3f3f3f 	.insn	8, 0x3f3f3f3f3f3f3f3f
    6cfa:	3f3f3f3f 3f3f3f3f 	.insn	8, 0x3f3f3f3f3f3f3f3f
    6d02:	3f3f3f3f 3f3f3f3f 	.insn	8, 0x3f3f3f3f3f3f3f3f
    6d0a:	3f3f3f3f 3f3f3f3f 	.insn	8, 0x3f3f3f3f3f3f3f3f
    6d12:	3f3f3f3f 3f3f3f3f 	.insn	8, 0x3f3f3f3f3f3f3f3f
    6d1a:	3f3f3f3f 3f3f3f3f 	.insn	8, 0x3f3f3f3f3f3f3f3f
    6d22:	3f3f3f3f 3f3f3f3f 	.insn	8, 0x3f3f3f3f3f3f3f3f
    6d2a:	3f3f3f3f 3f3f3f3f 	.insn	8, 0x3f3f3f3f3f3f3f3f
    6d32:	3f3f3f3f 3f3f3f3f 	.insn	8, 0x3f3f3f3f3f3f3f3f
    6d3a:	3f3f3f3f 3f3f3f3f 	.insn	8, 0x3f3f3f3f3f3f3f3f
    6d42:	3f3f3f3f 3f3f3f3f 	.insn	8, 0x3f3f3f3f3f3f3f3f
    6d4a:	3f3f3f3f 3f3f3f3f 	.insn	8, 0x3f3f3f3f3f3f3f3f
    6d52:	3f3f3f3f 3f3f3f3f 	.insn	8, 0x3f3f3f3f3f3f3f3f
    6d5a:	3f3f3f3f 3f3f3f3f 	.insn	8, 0x3f3f3f3f3f3f3f3f
    6d62:	3f3f3f3f 3f3f3f3f 	.insn	8, 0x3f3f3f3f3f3f3f3f
    6d6a:	3f3f3f3f 3f3f3f3f 	.insn	8, 0x3f3f3f3f3f3f3f3f
    6d72:	3f3f3f3f 3f3f3f3f 	.insn	8, 0x3f3f3f3f3f3f3f3f
    6d7a:	3f3f3f3f 3f3f3f3f 	.insn	8, 0x3f3f3f3f3f3f3f3f
    6d82:	3f3f3f3f 3f3f3f3f 	.insn	8, 0x3f3f3f3f3f3f3f3f
    6d8a:	3f3f3f3f 3f3f3f3f 	.insn	8, 0x3f3f3f3f3f3f3f3f
    6d92:	3f3f3f3f 3f3f3f3f 	.insn	8, 0x3f3f3f3f3f3f3f3f
    6d9a:	3f3f3f3f 3f3f3f3f 	.insn	8, 0x3f3f3f3f3f3f3f3f
    6da2:	3f3f3f3f 3f3f3f3f 	.insn	8, 0x3f3f3f3f3f3f3f3f
    6daa:	3f3f3f3f 3f3f3f3f 	.insn	8, 0x3f3f3f3f3f3f3f3f
    6db2:	3f3f3f3f 3f3f3f3f 	.insn	8, 0x3f3f3f3f3f3f3f3f
    6dba:	3f3f3f3f 3f3f3f3f 	.insn	8, 0x3f3f3f3f3f3f3f3f
    6dc2:	3f3f3f3f 3f3f3f3f 	.insn	8, 0x3f3f3f3f3f3f3f3f
    6dca:	3f3f3f3f 3f3f3f3f 	.insn	8, 0x3f3f3f3f3f3f3f3f
    6dd2:	3f3f3f3f 3f3f3f3f 	.insn	8, 0x3f3f3f3f3f3f3f3f
    6dda:	3f3f3f3f 3f3f3f3f 	.insn	8, 0x3f3f3f3f3f3f3f3f
    6de2:	3f3f3f3f 3f3f3f3f 	.insn	8, 0x3f3f3f3f3f3f3f3f
    6dea:	3f3f3f3f 3f3f3f3f 	.insn	8, 0x3f3f3f3f3f3f3f3f
    6df2:	3f3f3f3f 3f3f3f3f 	.insn	8, 0x3f3f3f3f3f3f3f3f
    6dfa:	3f3f3f3f 3f3f3f3f 	.insn	8, 0x3f3f3f3f3f3f3f3f
    6e02:	3f3f3f3f 3f3f3f3f 	.insn	8, 0x3f3f3f3f3f3f3f3f
    6e0a:	3f3f3f3f 3f3f3f3f 	.insn	8, 0x3f3f3f3f3f3f3f3f
    6e12:	3f3f3f3f 3f3f3f3f 	.insn	8, 0x3f3f3f3f3f3f3f3f
    6e1a:	3f3f3f3f 3f3f3f3f 	.insn	8, 0x3f3f3f3f3f3f3f3f
    6e22:	3f3f3f3f 3f3f3f3f 	.insn	8, 0x3f3f3f3f3f3f3f3f
    6e2a:	3f3f3f3f 3f3f3f3f 	.insn	8, 0x3f3f3f3f3f3f3f3f
    6e32:	3f3f3f3f 3f3f3f3f 	.insn	8, 0x3f3f3f3f3f3f3f3f
    6e3a:	3f3f3f3f 3f3f3f3f 	.insn	8, 0x3f3f3f3f3f3f3f3f
    6e42:	3f3f3f3f 3f3f3f3f 	.insn	8, 0x3f3f3f3f3f3f3f3f
    6e4a:	3f3f3f3f 3f3f3f3f 	.insn	8, 0x3f3f3f3f3f3f3f3f
    6e52:	3f3f3f3f 3f3f3f3f 	.insn	8, 0x3f3f3f3f3f3f3f3f
    6e5a:	3f3f3f3f 3f3f3f3f 	.insn	8, 0x3f3f3f3f3f3f3f3f
    6e62:	3f3f3f3f 3f3f3f3f 	.insn	8, 0x3f3f3f3f3f3f3f3f
    6e6a:	3f3f3f3f 3f3f3f3f 	.insn	8, 0x3f3f3f3f3f3f3f3f
    6e72:	3f3f3f3f 3f3f3f3f 	.insn	8, 0x3f3f3f3f3f3f3f3f
    6e7a:	3f3f3f3f 3f3f3f3f 	.insn	8, 0x3f3f3f3f3f3f3f3f
    6e82:	3f3f3f3f 3f3f3f3f 	.insn	8, 0x3f3f3f3f3f3f3f3f
    6e8a:	3f3f3f3f 3f3f3f3f 	.insn	8, 0x3f3f3f3f3f3f3f3f
    6e92:	3f3f3f3f 3f3f3f3f 	.insn	8, 0x3f3f3f3f3f3f3f3f
    6e9a:	3f3f3f3f 3f3f3f3f 	.insn	8, 0x3f3f3f3f3f3f3f3f
    6ea2:	3f3f3f3f 3f3f3f3f 	.insn	8, 0x3f3f3f3f3f3f3f3f
    6eaa:	3f3f3f3f 3f3f3f3f 	.insn	8, 0x3f3f3f3f3f3f3f3f
    6eb2:	3f3f3f3f 3f3f3f3f 	.insn	8, 0x3f3f3f3f3f3f3f3f
    6eba:	3f3f3f3f 3f3f3f3f 	.insn	8, 0x3f3f3f3f3f3f3f3f
    6ec2:	3f3f3f3f 3f3f3f3f 	.insn	8, 0x3f3f3f3f3f3f3f3f
    6eca:	3f3f3f3f 3f3f3f3f 	.insn	8, 0x3f3f3f3f3f3f3f3f
    6ed2:	3f3f3f3f 3f3f3f3f 	.insn	8, 0x3f3f3f3f3f3f3f3f
    6eda:	3f3f3f3f 3f3f3f3f 	.insn	8, 0x3f3f3f3f3f3f3f3f
    6ee2:	3f3f3f3f 3f3f3f3f 	.insn	8, 0x3f3f3f3f3f3f3f3f
    6eea:	3f3f3f3f 3f3f3f3f 	.insn	8, 0x3f3f3f3f3f3f3f3f
    6ef2:	3f3f3f3f 3f3f3f3f 	.insn	8, 0x3f3f3f3f3f3f3f3f
    6efa:	3f3f3f3f 3f3f3f3f 	.insn	8, 0x3f3f3f3f3f3f3f3f
    6f02:	3f3f3f3f 3f3f3f3f 	.insn	8, 0x3f3f3f3f3f3f3f3f
    6f0a:	3f3f3f3f 3f3f3f3f 	.insn	8, 0x3f3f3f3f3f3f3f3f
    6f12:	3f3f3f3f 3f3f3f3f 	.insn	8, 0x3f3f3f3f3f3f3f3f
    6f1a:	3f3f3f3f 3f3f3f3f 	.insn	8, 0x3f3f3f3f3f3f3f3f
    6f22:	3f3f3f3f 3f3f3f3f 	.insn	8, 0x3f3f3f3f3f3f3f3f
    6f2a:	3f3f3f3f 3f3f3f3f 	.insn	8, 0x3f3f3f3f3f3f3f3f
    6f32:	3f3f3f3f 3f3f3f3f 	.insn	8, 0x3f3f3f3f3f3f3f3f
    6f3a:	3f3f3f3f 3f3f3f3f 	.insn	8, 0x3f3f3f3f3f3f3f3f
    6f42:	3f3f3f3f 3f3f3f3f 	.insn	8, 0x3f3f3f3f3f3f3f3f
    6f4a:	3f3f3f3f 3f3f3f3f 	.insn	8, 0x3f3f3f3f3f3f3f3f
    6f52:	3f3f3f3f 3f3f3f3f 	.insn	8, 0x3f3f3f3f3f3f3f3f
    6f5a:	3f3f3f3f 3f3f3f3f 	.insn	8, 0x3f3f3f3f3f3f3f3f
    6f62:	3f3f3f3f 3f3f3f3f 	.insn	8, 0x3f3f3f3f3f3f3f3f
    6f6a:	3f3f3f3f 3f3f3f3f 	.insn	8, 0x3f3f3f3f3f3f3f3f
    6f72:	3f3f3f3f 3f3f3f3f 	.insn	8, 0x3f3f3f3f3f3f3f3f
    6f7a:	3f3f3f3f 3f3f3f3f 	.insn	8, 0x3f3f3f3f3f3f3f3f
    6f82:	3f3f3f3f 3f3f3f3f 	.insn	8, 0x3f3f3f3f3f3f3f3f
    6f8a:	3f3f3f3f 3f3f3f3f 	.insn	8, 0x3f3f3f3f3f3f3f3f
    6f92:	3f3f3f3f 3f3f3f3f 	.insn	8, 0x3f3f3f3f3f3f3f3f
    6f9a:	3f3f3f3f 3f3f3f3f 	.insn	8, 0x3f3f3f3f3f3f3f3f
    6fa2:	3f3f3f3f 3f3f3f3f 	.insn	8, 0x3f3f3f3f3f3f3f3f
    6faa:	3f3f3f3f 3f3f3f3f 	.insn	8, 0x3f3f3f3f3f3f3f3f
    6fb2:	3f3f3f3f 3f3f3f3f 	.insn	8, 0x3f3f3f3f3f3f3f3f
    6fba:	3f3f3f3f 3f3f3f3f 	.insn	8, 0x3f3f3f3f3f3f3f3f
    6fc2:	3f3f3f3f 3f3f3f3f 	.insn	8, 0x3f3f3f3f3f3f3f3f
    6fca:	3f3f3f3f 3f3f3f3f 	.insn	8, 0x3f3f3f3f3f3f3f3f
    6fd2:	3f3f3f3f 3f3f3f3f 	.insn	8, 0x3f3f3f3f3f3f3f3f
    6fda:	3f3f3f3f 3f3f3f3f 	.insn	8, 0x3f3f3f3f3f3f3f3f
    6fe2:	3f3f3f3f 3f3f3f3f 	.insn	8, 0x3f3f3f3f3f3f3f3f
    6fea:	3f3f3f3f 3f3f3f3f 	.insn	8, 0x3f3f3f3f3f3f3f3f
    6ff2:	3f3f3f3f 3f3f3f3f 	.insn	8, 0x3f3f3f3f3f3f3f3f
    6ffa:	3f3f3f3f 3f3f3f3f 	.insn	8, 0x3f3f3f3f3f3f3f3f
    7002:	3f3f3f3f 3f3f3f3f 	.insn	8, 0x3f3f3f3f3f3f3f3f
    700a:	3f3f3f3f 3f3f3f3f 	.insn	8, 0x3f3f3f3f3f3f3f3f
    7012:	3f3f3f3f 3f3f3f3f 	.insn	8, 0x3f3f3f3f3f3f3f3f
    701a:	3f3f3f3f 3f3f3f3f 	.insn	8, 0x3f3f3f3f3f3f3f3f
    7022:	3f3f3f3f 3f3f3f3f 	.insn	8, 0x3f3f3f3f3f3f3f3f
    702a:	3f3f3f3f 3f3f3f3f 	.insn	8, 0x3f3f3f3f3f3f3f3f
    7032:	3f3f3f3f 3f3f3f3f 	.insn	8, 0x3f3f3f3f3f3f3f3f
    703a:	3f3f3f3f 3f3f3f3f 	.insn	8, 0x3f3f3f3f3f3f3f3f
    7042:	3f3f3f3f 3f3f3f3f 	.insn	8, 0x3f3f3f3f3f3f3f3f
    704a:	3f3f3f3f 3f3f3f3f 	.insn	8, 0x3f3f3f3f3f3f3f3f
    7052:	3f3f3f3f 3f3f3f3f 	.insn	8, 0x3f3f3f3f3f3f3f3f
    705a:	3f3f3f3f 3f3f3f3f 	.insn	8, 0x3f3f3f3f3f3f3f3f
    7062:	3f3f3f3f 3f3f3f3f 	.insn	8, 0x3f3f3f3f3f3f3f3f
    706a:	3f3f3f3f 3f3f3f3f 	.insn	8, 0x3f3f3f3f3f3f3f3f
    7072:	3f3f3f3f 3f3f3f3f 	.insn	8, 0x3f3f3f3f3f3f3f3f
    707a:	3f3f3f3f 3f3f3f3f 	.insn	8, 0x3f3f3f3f3f3f3f3f
    7082:	3f3f3f3f 3f3f3f3f 	.insn	8, 0x3f3f3f3f3f3f3f3f
    708a:	3f3f3f3f 3f3f3f3f 	.insn	8, 0x3f3f3f3f3f3f3f3f
    7092:	3f3f3f3f 3f3f3f3f 	.insn	8, 0x3f3f3f3f3f3f3f3f
    709a:	3f3f3f3f 3f3f3f3f 	.insn	8, 0x3f3f3f3f3f3f3f3f
    70a2:	3f3f3f3f 3f3f3f3f 	.insn	8, 0x3f3f3f3f3f3f3f3f
    70aa:	3f3f3f3f 3f3f3f3f 	.insn	8, 0x3f3f3f3f3f3f3f3f
    70b2:	3f3f3f3f 3f3f3f3f 	.insn	8, 0x3f3f3f3f3f3f3f3f
    70ba:	3f3f3f3f 3f3f3f3f 	.insn	8, 0x3f3f3f3f3f3f3f3f
    70c2:	3f3f3f3f 3f3f3f3f 	.insn	8, 0x3f3f3f3f3f3f3f3f
    70ca:	3f3f3f3f 3f3f3f3f 	.insn	8, 0x3f3f3f3f3f3f3f3f
    70d2:	3f3f3f3f 3f3f3f3f 	.insn	8, 0x3f3f3f3f3f3f3f3f
    70da:	3f3f3f3f 3f3f3f3f 	.insn	8, 0x3f3f3f3f3f3f3f3f
    70e2:	3f3f3f3f 3f3f3f3f 	.insn	8, 0x3f3f3f3f3f3f3f3f
    70ea:	3f3f3f3f 3f3f3f3f 	.insn	8, 0x3f3f3f3f3f3f3f3f
    70f2:	3f3f3f3f 3f3f3f3f 	.insn	8, 0x3f3f3f3f3f3f3f3f
    70fa:	3f3f3f3f 3f3f3f3f 	.insn	8, 0x3f3f3f3f3f3f3f3f
    7102:	3f3f3f3f 3f3f3f3f 	.insn	8, 0x3f3f3f3f3f3f3f3f
    710a:	3f3f3f3f 3f3f3f3f 	.insn	8, 0x3f3f3f3f3f3f3f3f
    7112:	3f3f3f3f 3f3f3f3f 	.insn	8, 0x3f3f3f3f3f3f3f3f
    711a:	3f3f3f3f 3f3f3f3f 	.insn	8, 0x3f3f3f3f3f3f3f3f
    7122:	3f3f3f3f 3f3f3f3f 	.insn	8, 0x3f3f3f3f3f3f3f3f
    712a:	3f3f3f3f 3f3f3f3f 	.insn	8, 0x3f3f3f3f3f3f3f3f
    7132:	3f3f3f3f 3f3f3f3f 	.insn	8, 0x3f3f3f3f3f3f3f3f
    713a:	3f3f3f3f 3f3f3f3f 	.insn	8, 0x3f3f3f3f3f3f3f3f
    7142:	3f3f3f3f 3f3f3f3f 	.insn	8, 0x3f3f3f3f3f3f3f3f
    714a:	3f3f3f3f 3f3f3f3f 	.insn	8, 0x3f3f3f3f3f3f3f3f
    7152:	3f3f3f3f 3f3f3f3f 	.insn	8, 0x3f3f3f3f3f3f3f3f
    715a:	3f3f3f3f 3f3f3f3f 	.insn	8, 0x3f3f3f3f3f3f3f3f
    7162:	3f3f3f3f 3f3f3f3f 	.insn	8, 0x3f3f3f3f3f3f3f3f
    716a:	3f3f3f3f 3f3f3f3f 	.insn	8, 0x3f3f3f3f3f3f3f3f
    7172:	3f3f3f3f 3f3f3f3f 	.insn	8, 0x3f3f3f3f3f3f3f3f
    717a:	3f3f3f3f 3f3f3f3f 	.insn	8, 0x3f3f3f3f3f3f3f3f
    7182:	3f3f3f3f 3f3f3f3f 	.insn	8, 0x3f3f3f3f3f3f3f3f
    718a:	3f3f3f3f 3f3f3f3f 	.insn	8, 0x3f3f3f3f3f3f3f3f
    7192:	3f3f3f3f 3f3f3f3f 	.insn	8, 0x3f3f3f3f3f3f3f3f
    719a:	3f3f3f3f 3f3f3f3f 	.insn	8, 0x3f3f3f3f3f3f3f3f
    71a2:	3f3f3f3f 3f3f3f3f 	.insn	8, 0x3f3f3f3f3f3f3f3f
    71aa:	3f3f3f3f 3f3f3f3f 	.insn	8, 0x3f3f3f3f3f3f3f3f
    71b2:	3f3f3f3f 3f3f3f3f 	.insn	8, 0x3f3f3f3f3f3f3f3f
    71ba:	3f3f3f3f 3f3f3f3f 	.insn	8, 0x3f3f3f3f3f3f3f3f
    71c2:	3f3f3f3f 3f3f3f3f 	.insn	8, 0x3f3f3f3f3f3f3f3f
    71ca:	3f3f3f3f 3f3f3f3f 	.insn	8, 0x3f3f3f3f3f3f3f3f
    71d2:	3f3f3f3f 3f3f3f3f 	.insn	8, 0x3f3f3f3f3f3f3f3f
    71da:	3f3f3f3f 3f3f3f3f 	.insn	8, 0x3f3f3f3f3f3f3f3f
    71e2:	3f3f3f3f 3f3f3f3f 	.insn	8, 0x3f3f3f3f3f3f3f3f
    71ea:	3f3f3f3f 3f3f3f3f 	.insn	8, 0x3f3f3f3f3f3f3f3f
    71f2:	3f3f3f3f 3f3f3f3f 	.insn	8, 0x3f3f3f3f3f3f3f3f
    71fa:	3f3f3f3f 3f3f3f3f 	.insn	8, 0x3f3f3f3f3f3f3f3f
    7202:	3f3f3f3f 3f3f3f3f 	.insn	8, 0x3f3f3f3f3f3f3f3f
    720a:	3f3f3f3f 3f3f3f3f 	.insn	8, 0x3f3f3f3f3f3f3f3f
    7212:	3f3f3f3f 3f3f3f3f 	.insn	8, 0x3f3f3f3f3f3f3f3f
    721a:	3f3f3f3f 3f3f3f3f 	.insn	8, 0x3f3f3f3f3f3f3f3f
    7222:	3f3f3f3f 3f3f3f3f 	.insn	8, 0x3f3f3f3f3f3f3f3f
    722a:	3f3f3f3f 3f3f3f3f 	.insn	8, 0x3f3f3f3f3f3f3f3f
    7232:	3f3f3f3f 3f3f3f3f 	.insn	8, 0x3f3f3f3f3f3f3f3f
    723a:	3f3f3f3f 3f3f3f3f 	.insn	8, 0x3f3f3f3f3f3f3f3f
    7242:	3f3f3f3f 3f3f3f3f 	.insn	8, 0x3f3f3f3f3f3f3f3f
    724a:	3f3f3f3f 3f3f3f3f 	.insn	8, 0x3f3f3f3f3f3f3f3f
    7252:	3f3f3f3f 3f3f3f3f 	.insn	8, 0x3f3f3f3f3f3f3f3f
    725a:	3f3f3f3f 3f3f3f3f 	.insn	8, 0x3f3f3f3f3f3f3f3f
    7262:	3f3f3f3f 3f3f3f3f 	.insn	8, 0x3f3f3f3f3f3f3f3f
    726a:	3f3f3f3f 3f3f3f3f 	.insn	8, 0x3f3f3f3f3f3f3f3f
    7272:	3f3f3f3f 3f3f3f3f 	.insn	8, 0x3f3f3f3f3f3f3f3f
    727a:	3f3f3f3f 3f3f3f3f 	.insn	8, 0x3f3f3f3f3f3f3f3f
    7282:	3f3f3f3f 3f3f3f3f 	.insn	8, 0x3f3f3f3f3f3f3f3f
    728a:	3f3f3f3f 3f3f3f3f 	.insn	8, 0x3f3f3f3f3f3f3f3f
    7292:	3f3f3f3f 3f3f3f3f 	.insn	8, 0x3f3f3f3f3f3f3f3f
    729a:	3f3f3f3f 3f3f3f3f 	.insn	8, 0x3f3f3f3f3f3f3f3f
    72a2:	3f3f3f3f 3f3f3f3f 	.insn	8, 0x3f3f3f3f3f3f3f3f
    72aa:	3f3f3f3f 3f3f3f3f 	.insn	8, 0x3f3f3f3f3f3f3f3f
    72b2:	3f3f3f3f 3f3f3f3f 	.insn	8, 0x3f3f3f3f3f3f3f3f
    72ba:	3f3f3f3f 3f3f3f3f 	.insn	8, 0x3f3f3f3f3f3f3f3f
    72c2:	3f3f3f3f 3f3f3f3f 	.insn	8, 0x3f3f3f3f3f3f3f3f
    72ca:	3f3f3f3f 3f3f3f3f 	.insn	8, 0x3f3f3f3f3f3f3f3f
    72d2:	3f3f3f3f 3f3f3f3f 	.insn	8, 0x3f3f3f3f3f3f3f3f
    72da:	3f3f3f3f 3f3f3f3f 	.insn	8, 0x3f3f3f3f3f3f3f3f
    72e2:	3f3f3f3f 3f3f3f3f 	.insn	8, 0x3f3f3f3f3f3f3f3f
    72ea:	3f3f3f3f 3f3f3f3f 	.insn	8, 0x3f3f3f3f3f3f3f3f
    72f2:	3f3f3f3f 3f3f3f3f 	.insn	8, 0x3f3f3f3f3f3f3f3f
    72fa:	3f3f3f3f 3f3f3f3f 	.insn	8, 0x3f3f3f3f3f3f3f3f
    7302:	3f3f3f3f 3f3f3f3f 	.insn	8, 0x3f3f3f3f3f3f3f3f
    730a:	3f3f3f3f 3f3f3f3f 	.insn	8, 0x3f3f3f3f3f3f3f3f
    7312:	3f3f3f3f 3f3f3f3f 	.insn	8, 0x3f3f3f3f3f3f3f3f
    731a:	3f3f3f3f 3f3f3f3f 	.insn	8, 0x3f3f3f3f3f3f3f3f
    7322:	3f3f3f3f 3f3f3f3f 	.insn	8, 0x3f3f3f3f3f3f3f3f
    732a:	3f3f3f3f 3f3f3f3f 	.insn	8, 0x3f3f3f3f3f3f3f3f
    7332:	3f3f3f3f 3f3f3f3f 	.insn	8, 0x3f3f3f3f3f3f3f3f
    733a:	3f3f3f3f 3f3f3f3f 	.insn	8, 0x3f3f3f3f3f3f3f3f
    7342:	3f3f3f3f 3f3f3f3f 	.insn	8, 0x3f3f3f3f3f3f3f3f
    734a:	3f3f3f3f 3f3f3f3f 	.insn	8, 0x3f3f3f3f3f3f3f3f
    7352:	3f3f3f3f 3f3f3f3f 	.insn	8, 0x3f3f3f3f3f3f3f3f
    735a:	3f3f3f3f 3f3f3f3f 	.insn	8, 0x3f3f3f3f3f3f3f3f
    7362:	3f3f3f3f 3f3f3f3f 	.insn	8, 0x3f3f3f3f3f3f3f3f
    736a:	3f3f3f3f 3f3f3f3f 	.insn	8, 0x3f3f3f3f3f3f3f3f
    7372:	3f3f3f3f 3f3f3f3f 	.insn	8, 0x3f3f3f3f3f3f3f3f
    737a:	3f3f3f3f 3f3f3f3f 	.insn	8, 0x3f3f3f3f3f3f3f3f
    7382:	3f3f3f3f 3f3f3f3f 	.insn	8, 0x3f3f3f3f3f3f3f3f
    738a:	3f3f3f3f 3f3f3f3f 	.insn	8, 0x3f3f3f3f3f3f3f3f
    7392:	3f3f3f3f 3f3f3f3f 	.insn	8, 0x3f3f3f3f3f3f3f3f
    739a:	3f3f3f3f 3f3f3f3f 	.insn	8, 0x3f3f3f3f3f3f3f3f
    73a2:	3f3f3f3f 3f3f3f3f 	.insn	8, 0x3f3f3f3f3f3f3f3f
    73aa:	3f3f3f3f 3f3f3f3f 	.insn	8, 0x3f3f3f3f3f3f3f3f
    73b2:	3f3f3f3f 3f3f3f3f 	.insn	8, 0x3f3f3f3f3f3f3f3f
    73ba:	3f3f3f3f 3f3f3f3f 	.insn	8, 0x3f3f3f3f3f3f3f3f
    73c2:	3f3f3f3f 3f3f3f3f 	.insn	8, 0x3f3f3f3f3f3f3f3f
    73ca:	3f3f3f3f 3f3f3f3f 	.insn	8, 0x3f3f3f3f3f3f3f3f
    73d2:	3f3f3f3f 3f3f3f3f 	.insn	8, 0x3f3f3f3f3f3f3f3f
    73da:	3f3f3f3f 3f3f3f3f 	.insn	8, 0x3f3f3f3f3f3f3f3f
    73e2:	3f3f3f3f 3f3f3f3f 	.insn	8, 0x3f3f3f3f3f3f3f3f
    73ea:	3f3f3f3f 3f3f3f3f 	.insn	8, 0x3f3f3f3f3f3f3f3f
    73f2:	3f3f3f3f 3f3f3f3f 	.insn	8, 0x3f3f3f3f3f3f3f3f
    73fa:	3f3f3f3f 3f3f3f3f 	.insn	8, 0x3f3f3f3f3f3f3f3f
    7402:	3f3f3f3f 3f3f3f3f 	.insn	8, 0x3f3f3f3f3f3f3f3f
    740a:	3f3f3f3f 3f3f3f3f 	.insn	8, 0x3f3f3f3f3f3f3f3f
    7412:	3f3f3f3f 3f3f3f3f 	.insn	8, 0x3f3f3f3f3f3f3f3f
    741a:	3f3f3f3f 3f3f3f3f 	.insn	8, 0x3f3f3f3f3f3f3f3f
    7422:	3f3f3f3f 3f3f3f3f 	.insn	8, 0x3f3f3f3f3f3f3f3f
    742a:	3f3f3f3f 3f3f3f3f 	.insn	8, 0x3f3f3f3f3f3f3f3f
    7432:	3f3f3f3f 3f3f3f3f 	.insn	8, 0x3f3f3f3f3f3f3f3f
    743a:	3f3f3f3f 3f3f3f3f 	.insn	8, 0x3f3f3f3f3f3f3f3f
    7442:	3f3f3f3f 3f3f3f3f 	.insn	8, 0x3f3f3f3f3f3f3f3f
    744a:	3f3f3f3f 3f3f3f3f 	.insn	8, 0x3f3f3f3f3f3f3f3f
    7452:	3f3f3f3f 3f3f3f3f 	.insn	8, 0x3f3f3f3f3f3f3f3f
    745a:	3f3f3f3f 3f3f3f3f 	.insn	8, 0x3f3f3f3f3f3f3f3f
    7462:	3f3f3f3f 3f3f3f3f 	.insn	8, 0x3f3f3f3f3f3f3f3f
    746a:	3f3f3f3f 3f3f3f3f 	.insn	8, 0x3f3f3f3f3f3f3f3f
    7472:	3f3f3f3f 3f3f3f3f 	.insn	8, 0x3f3f3f3f3f3f3f3f
    747a:	3f3f3f3f 3f3f3f3f 	.insn	8, 0x3f3f3f3f3f3f3f3f
    7482:	3f3f3f3f 3f3f3f3f 	.insn	8, 0x3f3f3f3f3f3f3f3f
    748a:	3f3f3f3f 3f3f3f3f 	.insn	8, 0x3f3f3f3f3f3f3f3f
    7492:	3f3f3f3f 3f3f3f3f 	.insn	8, 0x3f3f3f3f3f3f3f3f
    749a:	3f3f3f3f 3f3f3f3f 	.insn	8, 0x3f3f3f3f3f3f3f3f
    74a2:	3f3f3f3f 3f3f3f3f 	.insn	8, 0x3f3f3f3f3f3f3f3f
    74aa:	3f3f3f3f 3f3f3f3f 	.insn	8, 0x3f3f3f3f3f3f3f3f
    74b2:	3f3f3f3f 3f3f3f3f 	.insn	8, 0x3f3f3f3f3f3f3f3f
    74ba:	3f3f3f3f 3f3f3f3f 	.insn	8, 0x3f3f3f3f3f3f3f3f
    74c2:	3f3f3f3f 3f3f3f3f 	.insn	8, 0x3f3f3f3f3f3f3f3f
    74ca:	3f3f3f3f 3f3f3f3f 	.insn	8, 0x3f3f3f3f3f3f3f3f
    74d2:	3f3f3f3f 3f3f3f3f 	.insn	8, 0x3f3f3f3f3f3f3f3f
    74da:	3f3f3f3f 3f3f3f3f 	.insn	8, 0x3f3f3f3f3f3f3f3f
    74e2:	3f3f3f3f 3f3f3f3f 	.insn	8, 0x3f3f3f3f3f3f3f3f
    74ea:	3f3f3f3f 3f3f3f3f 	.insn	8, 0x3f3f3f3f3f3f3f3f
    74f2:	3f3f3f3f 3f3f3f3f 	.insn	8, 0x3f3f3f3f3f3f3f3f
    74fa:	3f3f3f3f 3f3f3f3f 	.insn	8, 0x3f3f3f3f3f3f3f3f
    7502:	3f3f3f3f 3f3f3f3f 	.insn	8, 0x3f3f3f3f3f3f3f3f
    750a:	3f3f3f3f 3f3f3f3f 	.insn	8, 0x3f3f3f3f3f3f3f3f
    7512:	3f3f3f3f 3f3f3f3f 	.insn	8, 0x3f3f3f3f3f3f3f3f
    751a:	3f3f3f3f 3f3f3f3f 	.insn	8, 0x3f3f3f3f3f3f3f3f
    7522:	3f3f3f3f 3f3f3f3f 	.insn	8, 0x3f3f3f3f3f3f3f3f
    752a:	3f3f3f3f 3f3f3f3f 	.insn	8, 0x3f3f3f3f3f3f3f3f
    7532:	3f3f3f3f 3f3f3f3f 	.insn	8, 0x3f3f3f3f3f3f3f3f
    753a:	3f3f3f3f 3f3f3f3f 	.insn	8, 0x3f3f3f3f3f3f3f3f
    7542:	3f3f3f3f 3f3f3f3f 	.insn	8, 0x3f3f3f3f3f3f3f3f
    754a:	3f3f3f3f 3f3f3f3f 	.insn	8, 0x3f3f3f3f3f3f3f3f
    7552:	3f3f3f3f 3f3f3f3f 	.insn	8, 0x3f3f3f3f3f3f3f3f
    755a:	3f3f3f3f 3f3f3f3f 	.insn	8, 0x3f3f3f3f3f3f3f3f
    7562:	3f3f3f3f 3f3f3f3f 	.insn	8, 0x3f3f3f3f3f3f3f3f
    756a:	3f3f3f3f 3f3f3f3f 	.insn	8, 0x3f3f3f3f3f3f3f3f
    7572:	3f3f3f3f 3f3f3f3f 	.insn	8, 0x3f3f3f3f3f3f3f3f
    757a:	3f3f3f3f 3f3f3f3f 	.insn	8, 0x3f3f3f3f3f3f3f3f
    7582:	3f3f3f3f 3f3f3f3f 	.insn	8, 0x3f3f3f3f3f3f3f3f
    758a:	3f3f3f3f 3f3f3f3f 	.insn	8, 0x3f3f3f3f3f3f3f3f
    7592:	3f3f3f3f 3f3f3f3f 	.insn	8, 0x3f3f3f3f3f3f3f3f
    759a:	3f3f3f3f 3f3f3f3f 	.insn	8, 0x3f3f3f3f3f3f3f3f
    75a2:	3f3f3f3f 3f3f3f3f 	.insn	8, 0x3f3f3f3f3f3f3f3f
    75aa:	3f3f3f3f 3f3f3f3f 	.insn	8, 0x3f3f3f3f3f3f3f3f
    75b2:	3f3f3f3f 3f3f3f3f 	.insn	8, 0x3f3f3f3f3f3f3f3f
    75ba:	3f3f3f3f 3f3f3f3f 	.insn	8, 0x3f3f3f3f3f3f3f3f
    75c2:	3f3f3f3f 3f3f3f3f 	.insn	8, 0x3f3f3f3f3f3f3f3f
    75ca:	3f3f3f3f 3f3f3f3f 	.insn	8, 0x3f3f3f3f3f3f3f3f
    75d2:	3f3f3f3f 3f3f3f3f 	.insn	8, 0x3f3f3f3f3f3f3f3f
    75da:	3f3f3f3f 3f3f3f3f 	.insn	8, 0x3f3f3f3f3f3f3f3f
    75e2:	3f3f3f3f 3f3f3f3f 	.insn	8, 0x3f3f3f3f3f3f3f3f
    75ea:	3f3f3f3f 3f3f3f3f 	.insn	8, 0x3f3f3f3f3f3f3f3f
    75f2:	3f3f3f3f 3f3f3f3f 	.insn	8, 0x3f3f3f3f3f3f3f3f
    75fa:	3f3f3f3f 3f3f3f3f 	.insn	8, 0x3f3f3f3f3f3f3f3f
    7602:	3f3f3f3f 3f3f3f3f 	.insn	8, 0x3f3f3f3f3f3f3f3f
    760a:	3f3f3f3f 3f3f3f3f 	.insn	8, 0x3f3f3f3f3f3f3f3f
    7612:	3f3f3f3f 3f3f3f3f 	.insn	8, 0x3f3f3f3f3f3f3f3f
    761a:	3f3f3f3f 3f3f3f3f 	.insn	8, 0x3f3f3f3f3f3f3f3f
    7622:	3f3f3f3f 3f3f3f3f 	.insn	8, 0x3f3f3f3f3f3f3f3f
    762a:	3f3f3f3f 3f3f3f3f 	.insn	8, 0x3f3f3f3f3f3f3f3f
    7632:	3f3f3f3f 3f3f3f3f 	.insn	8, 0x3f3f3f3f3f3f3f3f
    763a:	3f3f3f3f 3f3f3f3f 	.insn	8, 0x3f3f3f3f3f3f3f3f
    7642:	3f3f3f3f 3f3f3f3f 	.insn	8, 0x3f3f3f3f3f3f3f3f
    764a:	3f3f3f3f 3f3f3f3f 	.insn	8, 0x3f3f3f3f3f3f3f3f
    7652:	3f3f3f3f 3f3f3f3f 	.insn	8, 0x3f3f3f3f3f3f3f3f
    765a:	3f3f3f3f 3f3f3f3f 	.insn	8, 0x3f3f3f3f3f3f3f3f
    7662:	3f3f3f3f 3f3f3f3f 	.insn	8, 0x3f3f3f3f3f3f3f3f
    766a:	3f3f3f3f 3f3f3f3f 	.insn	8, 0x3f3f3f3f3f3f3f3f
    7672:	3f3f3f3f 3f3f3f3f 	.insn	8, 0x3f3f3f3f3f3f3f3f
    767a:	3f3f3f3f 3f3f3f3f 	.insn	8, 0x3f3f3f3f3f3f3f3f
    7682:	3f3f3f3f 3f3f3f3f 	.insn	8, 0x3f3f3f3f3f3f3f3f
    768a:	3f3f3f3f 3f3f3f3f 	.insn	8, 0x3f3f3f3f3f3f3f3f
    7692:	3f3f3f3f 3f3f3f3f 	.insn	8, 0x3f3f3f3f3f3f3f3f
    769a:	3f3f3f3f 3f3f3f3f 	.insn	8, 0x3f3f3f3f3f3f3f3f
    76a2:	3f3f3f3f 3f3f3f3f 	.insn	8, 0x3f3f3f3f3f3f3f3f
    76aa:	3f3f3f3f 3f3f3f3f 	.insn	8, 0x3f3f3f3f3f3f3f3f
    76b2:	3f3f3f3f 3f3f3f3f 	.insn	8, 0x3f3f3f3f3f3f3f3f
    76ba:	3f3f3f3f 3f3f3f3f 	.insn	8, 0x3f3f3f3f3f3f3f3f
    76c2:	3f3f3f3f 3f3f3f3f 	.insn	8, 0x3f3f3f3f3f3f3f3f
    76ca:	3f3f3f3f 3f3f3f3f 	.insn	8, 0x3f3f3f3f3f3f3f3f
    76d2:	3f3f3f3f 3f3f3f3f 	.insn	8, 0x3f3f3f3f3f3f3f3f
    76da:	3f3f3f3f 3f3f3f3f 	.insn	8, 0x3f3f3f3f3f3f3f3f
    76e2:	3f3f3f3f 3f3f3f3f 	.insn	8, 0x3f3f3f3f3f3f3f3f
    76ea:	3f3f3f3f 3f3f3f3f 	.insn	8, 0x3f3f3f3f3f3f3f3f
    76f2:	3f3f3f3f 3f3f3f3f 	.insn	8, 0x3f3f3f3f3f3f3f3f
    76fa:	3f3f3f3f 3f3f3f3f 	.insn	8, 0x3f3f3f3f3f3f3f3f
    7702:	3f3f3f3f 3f3f3f3f 	.insn	8, 0x3f3f3f3f3f3f3f3f
    770a:	3f3f3f3f 3f3f3f3f 	.insn	8, 0x3f3f3f3f3f3f3f3f
    7712:	3f3f3f3f 3f3f3f3f 	.insn	8, 0x3f3f3f3f3f3f3f3f
    771a:	3f3f3f3f 3f3f3f3f 	.insn	8, 0x3f3f3f3f3f3f3f3f
    7722:	3f3f3f3f 3f3f3f3f 	.insn	8, 0x3f3f3f3f3f3f3f3f
    772a:	3f3f3f3f 3f3f3f3f 	.insn	8, 0x3f3f3f3f3f3f3f3f
    7732:	3f3f3f3f 3f3f3f3f 	.insn	8, 0x3f3f3f3f3f3f3f3f
    773a:	3f3f3f3f 3f3f3f3f 	.insn	8, 0x3f3f3f3f3f3f3f3f
    7742:	3f3f3f3f 3f3f3f3f 	.insn	8, 0x3f3f3f3f3f3f3f3f
    774a:	3f3f3f3f 3f3f3f3f 	.insn	8, 0x3f3f3f3f3f3f3f3f
    7752:	3f3f3f3f 3f3f3f3f 	.insn	8, 0x3f3f3f3f3f3f3f3f
    775a:	3f3f3f3f 3f3f3f3f 	.insn	8, 0x3f3f3f3f3f3f3f3f
    7762:	3f3f3f3f 3f3f3f3f 	.insn	8, 0x3f3f3f3f3f3f3f3f
    776a:	3f3f3f3f 3f3f3f3f 	.insn	8, 0x3f3f3f3f3f3f3f3f
    7772:	3f3f3f3f 3f3f3f3f 	.insn	8, 0x3f3f3f3f3f3f3f3f
    777a:	3f3f3f3f 3f3f3f3f 	.insn	8, 0x3f3f3f3f3f3f3f3f
    7782:	3f3f3f3f 3f3f3f3f 	.insn	8, 0x3f3f3f3f3f3f3f3f
    778a:	3f3f3f3f 3f3f3f3f 	.insn	8, 0x3f3f3f3f3f3f3f3f
    7792:	3f3f3f3f 3f3f3f3f 	.insn	8, 0x3f3f3f3f3f3f3f3f
    779a:	3f3f3f3f 3f3f3f3f 	.insn	8, 0x3f3f3f3f3f3f3f3f
    77a2:	3f3f3f3f 3f3f3f3f 	.insn	8, 0x3f3f3f3f3f3f3f3f
    77aa:	3f3f3f3f 3f3f3f3f 	.insn	8, 0x3f3f3f3f3f3f3f3f
    77b2:	3f3f3f3f 3f3f3f3f 	.insn	8, 0x3f3f3f3f3f3f3f3f
    77ba:	3f3f3f3f 3f3f3f3f 	.insn	8, 0x3f3f3f3f3f3f3f3f
    77c2:	3f3f3f3f 3f3f3f3f 	.insn	8, 0x3f3f3f3f3f3f3f3f
    77ca:	3f3f3f3f 3f3f3f3f 	.insn	8, 0x3f3f3f3f3f3f3f3f
    77d2:	3f3f3f3f 3f3f3f3f 	.insn	8, 0x3f3f3f3f3f3f3f3f
    77da:	3f3f3f3f 3f3f3f3f 	.insn	8, 0x3f3f3f3f3f3f3f3f
    77e2:	3f3f3f3f 3f3f3f3f 	.insn	8, 0x3f3f3f3f3f3f3f3f
    77ea:	3f3f3f3f 3f3f3f3f 	.insn	8, 0x3f3f3f3f3f3f3f3f
    77f2:	3f3f3f3f 3f3f3f3f 	.insn	8, 0x3f3f3f3f3f3f3f3f
    77fa:	3f3f3f3f 3f3f3f3f 	.insn	8, 0x3f3f3f3f3f3f3f3f
    7802:	3f3f3f3f 3f3f3f3f 	.insn	8, 0x3f3f3f3f3f3f3f3f
    780a:	3f3f3f3f 3f3f3f3f 	.insn	8, 0x3f3f3f3f3f3f3f3f
    7812:	3f3f3f3f 3f3f3f3f 	.insn	8, 0x3f3f3f3f3f3f3f3f
    781a:	3f3f3f3f 3f3f3f3f 	.insn	8, 0x3f3f3f3f3f3f3f3f
    7822:	3f3f3f3f 3f3f3f3f 	.insn	8, 0x3f3f3f3f3f3f3f3f
    782a:	3f3f3f3f 3f3f3f3f 	.insn	8, 0x3f3f3f3f3f3f3f3f
    7832:	3f3f3f3f 3f3f3f3f 	.insn	8, 0x3f3f3f3f3f3f3f3f
    783a:	3f3f3f3f 3f3f3f3f 	.insn	8, 0x3f3f3f3f3f3f3f3f
    7842:	3f3f3f3f 3f3f3f3f 	.insn	8, 0x3f3f3f3f3f3f3f3f
    784a:	3f3f3f3f 3f3f3f3f 	.insn	8, 0x3f3f3f3f3f3f3f3f
    7852:	3f3f3f3f 3f3f3f3f 	.insn	8, 0x3f3f3f3f3f3f3f3f
    785a:	3f3f3f3f 3f3f3f3f 	.insn	8, 0x3f3f3f3f3f3f3f3f
    7862:	3f3f3f3f 3f3f3f3f 	.insn	8, 0x3f3f3f3f3f3f3f3f
    786a:	3f3f3f3f 3f3f3f3f 	.insn	8, 0x3f3f3f3f3f3f3f3f
    7872:	3f3f3f3f 3f3f3f3f 	.insn	8, 0x3f3f3f3f3f3f3f3f
    787a:	3f3f3f3f 3f3f3f3f 	.insn	8, 0x3f3f3f3f3f3f3f3f
    7882:	3f3f3f3f 3f3f3f3f 	.insn	8, 0x3f3f3f3f3f3f3f3f
    788a:	3f3f3f3f 3f3f3f3f 	.insn	8, 0x3f3f3f3f3f3f3f3f
    7892:	3f3f3f3f 3f3f3f3f 	.insn	8, 0x3f3f3f3f3f3f3f3f
    789a:	3f3f3f3f 3f3f3f3f 	.insn	8, 0x3f3f3f3f3f3f3f3f
    78a2:	3f3f3f3f 3f3f3f3f 	.insn	8, 0x3f3f3f3f3f3f3f3f
    78aa:	3f3f3f3f 3f3f3f3f 	.insn	8, 0x3f3f3f3f3f3f3f3f
    78b2:	3f3f3f3f 3f3f3f3f 	.insn	8, 0x3f3f3f3f3f3f3f3f
    78ba:	3f3f3f3f 3f3f3f3f 	.insn	8, 0x3f3f3f3f3f3f3f3f
    78c2:	3f3f3f3f 3f3f3f3f 	.insn	8, 0x3f3f3f3f3f3f3f3f
    78ca:	3f3f3f3f 3f3f3f3f 	.insn	8, 0x3f3f3f3f3f3f3f3f
    78d2:	3f3f3f3f 3f3f3f3f 	.insn	8, 0x3f3f3f3f3f3f3f3f
    78da:	3f3f3f3f 3f3f3f3f 	.insn	8, 0x3f3f3f3f3f3f3f3f
    78e2:	3f3f3f3f 3f3f3f3f 	.insn	8, 0x3f3f3f3f3f3f3f3f
    78ea:	3f3f3f3f 3f3f3f3f 	.insn	8, 0x3f3f3f3f3f3f3f3f
    78f2:	3f3f3f3f 3f3f3f3f 	.insn	8, 0x3f3f3f3f3f3f3f3f
    78fa:	3f3f3f3f 3f3f3f3f 	.insn	8, 0x3f3f3f3f3f3f3f3f
    7902:	3f3f3f3f 3f3f3f3f 	.insn	8, 0x3f3f3f3f3f3f3f3f
    790a:	3f3f3f3f 3f3f3f3f 	.insn	8, 0x3f3f3f3f3f3f3f3f
    7912:	3f3f3f3f 3f3f3f3f 	.insn	8, 0x3f3f3f3f3f3f3f3f
    791a:	3f3f3f3f 3f3f3f3f 	.insn	8, 0x3f3f3f3f3f3f3f3f
    7922:	3f3f3f3f 3f3f3f3f 	.insn	8, 0x3f3f3f3f3f3f3f3f
    792a:	3f3f3f3f 3f3f3f3f 	.insn	8, 0x3f3f3f3f3f3f3f3f
    7932:	3f3f3f3f 3f3f3f3f 	.insn	8, 0x3f3f3f3f3f3f3f3f
    793a:	3f3f3f3f 3f3f3f3f 	.insn	8, 0x3f3f3f3f3f3f3f3f
    7942:	3f3f3f3f 3f3f3f3f 	.insn	8, 0x3f3f3f3f3f3f3f3f
    794a:	3f3f3f3f 3f3f3f3f 	.insn	8, 0x3f3f3f3f3f3f3f3f
    7952:	3f3f3f3f 3f3f3f3f 	.insn	8, 0x3f3f3f3f3f3f3f3f
    795a:	3f3f3f3f 3f3f3f3f 	.insn	8, 0x3f3f3f3f3f3f3f3f
    7962:	3f3f3f3f 3f3f3f3f 	.insn	8, 0x3f3f3f3f3f3f3f3f
    796a:	3f3f3f3f 3f3f3f3f 	.insn	8, 0x3f3f3f3f3f3f3f3f
    7972:	3f3f3f3f 3f3f3f3f 	.insn	8, 0x3f3f3f3f3f3f3f3f
    797a:	3f3f3f3f 3f3f3f3f 	.insn	8, 0x3f3f3f3f3f3f3f3f
    7982:	3f3f3f3f 3f3f3f3f 	.insn	8, 0x3f3f3f3f3f3f3f3f
    798a:	3f3f3f3f 3f3f3f3f 	.insn	8, 0x3f3f3f3f3f3f3f3f
    7992:	3f3f3f3f 3f3f3f3f 	.insn	8, 0x3f3f3f3f3f3f3f3f
    799a:	3f3f3f3f 3f3f3f3f 	.insn	8, 0x3f3f3f3f3f3f3f3f
    79a2:	3f3f3f3f 3f3f3f3f 	.insn	8, 0x3f3f3f3f3f3f3f3f
    79aa:	3f3f3f3f 3f3f3f3f 	.insn	8, 0x3f3f3f3f3f3f3f3f
    79b2:	3f3f3f3f 3f3f3f3f 	.insn	8, 0x3f3f3f3f3f3f3f3f
    79ba:	3f3f3f3f 3f3f3f3f 	.insn	8, 0x3f3f3f3f3f3f3f3f
    79c2:	3f3f3f3f 3f3f3f3f 	.insn	8, 0x3f3f3f3f3f3f3f3f
    79ca:	3f3f3f3f 3f3f3f3f 	.insn	8, 0x3f3f3f3f3f3f3f3f
    79d2:	3f3f3f3f 3f3f3f3f 	.insn	8, 0x3f3f3f3f3f3f3f3f
    79da:	3f3f3f3f 3f3f3f3f 	.insn	8, 0x3f3f3f3f3f3f3f3f
    79e2:	3f3f3f3f 3f3f3f3f 	.insn	8, 0x3f3f3f3f3f3f3f3f
    79ea:	3f3f3f3f 3f3f3f3f 	.insn	8, 0x3f3f3f3f3f3f3f3f
    79f2:	3f3f3f3f 3f3f3f3f 	.insn	8, 0x3f3f3f3f3f3f3f3f
    79fa:	3f3f3f3f 3f3f3f3f 	.insn	8, 0x3f3f3f3f3f3f3f3f
    7a02:	3f3f3f3f 3f3f3f3f 	.insn	8, 0x3f3f3f3f3f3f3f3f
    7a0a:	3f3f3f3f 3f3f3f3f 	.insn	8, 0x3f3f3f3f3f3f3f3f
    7a12:	3f3f3f3f 3f3f3f3f 	.insn	8, 0x3f3f3f3f3f3f3f3f
    7a1a:	3f3f3f3f 3f3f3f3f 	.insn	8, 0x3f3f3f3f3f3f3f3f
    7a22:	3f3f3f3f 3f3f3f3f 	.insn	8, 0x3f3f3f3f3f3f3f3f
    7a2a:	3f3f3f3f 3f3f3f3f 	.insn	8, 0x3f3f3f3f3f3f3f3f
    7a32:	3f3f3f3f 3f3f3f3f 	.insn	8, 0x3f3f3f3f3f3f3f3f
    7a3a:	3f3f3f3f 3f3f3f3f 	.insn	8, 0x3f3f3f3f3f3f3f3f
    7a42:	3f3f3f3f 3f3f3f3f 	.insn	8, 0x3f3f3f3f3f3f3f3f
    7a4a:	3f3f3f3f 3f3f3f3f 	.insn	8, 0x3f3f3f3f3f3f3f3f
    7a52:	3f3f3f3f 3f3f3f3f 	.insn	8, 0x3f3f3f3f3f3f3f3f
    7a5a:	3f3f3f3f 3f3f3f3f 	.insn	8, 0x3f3f3f3f3f3f3f3f
    7a62:	3f3f3f3f 3f3f3f3f 	.insn	8, 0x3f3f3f3f3f3f3f3f
    7a6a:	3f3f3f3f 3f3f3f3f 	.insn	8, 0x3f3f3f3f3f3f3f3f
    7a72:	3f3f3f3f 3f3f3f3f 	.insn	8, 0x3f3f3f3f3f3f3f3f
    7a7a:	3f3f3f3f 3f3f3f3f 	.insn	8, 0x3f3f3f3f3f3f3f3f
    7a82:	3f3f3f3f 3f3f3f3f 	.insn	8, 0x3f3f3f3f3f3f3f3f
    7a8a:	3f3f3f3f 3f3f3f3f 	.insn	8, 0x3f3f3f3f3f3f3f3f
    7a92:	3f3f3f3f 3f3f3f3f 	.insn	8, 0x3f3f3f3f3f3f3f3f
    7a9a:	3f3f3f3f 3f3f3f3f 	.insn	8, 0x3f3f3f3f3f3f3f3f
    7aa2:	3f3f3f3f 3f3f3f3f 	.insn	8, 0x3f3f3f3f3f3f3f3f
    7aaa:	3f3f3f3f 3f3f3f3f 	.insn	8, 0x3f3f3f3f3f3f3f3f
    7ab2:	3f3f3f3f 3f3f3f3f 	.insn	8, 0x3f3f3f3f3f3f3f3f
    7aba:	3f3f3f3f 3f3f3f3f 	.insn	8, 0x3f3f3f3f3f3f3f3f
    7ac2:	3f3f3f3f 3f3f3f3f 	.insn	8, 0x3f3f3f3f3f3f3f3f
    7aca:	3f3f3f3f 3f3f3f3f 	.insn	8, 0x3f3f3f3f3f3f3f3f
    7ad2:	3f3f3f3f 3f3f3f3f 	.insn	8, 0x3f3f3f3f3f3f3f3f
    7ada:	3f3f3f3f 3f3f3f3f 	.insn	8, 0x3f3f3f3f3f3f3f3f
    7ae2:	3f3f3f3f 3f3f3f3f 	.insn	8, 0x3f3f3f3f3f3f3f3f
    7aea:	3f3f3f3f 3f3f3f3f 	.insn	8, 0x3f3f3f3f3f3f3f3f
    7af2:	3f3f3f3f 3f3f3f3f 	.insn	8, 0x3f3f3f3f3f3f3f3f
    7afa:	3f3f3f3f 3f3f3f3f 	.insn	8, 0x3f3f3f3f3f3f3f3f
    7b02:	3f3f3f3f 3f3f3f3f 	.insn	8, 0x3f3f3f3f3f3f3f3f
    7b0a:	3f3f3f3f 3f3f3f3f 	.insn	8, 0x3f3f3f3f3f3f3f3f
    7b12:	3f3f3f3f 3f3f3f3f 	.insn	8, 0x3f3f3f3f3f3f3f3f
    7b1a:	3f3f3f3f 3f3f3f3f 	.insn	8, 0x3f3f3f3f3f3f3f3f
    7b22:	3f3f3f3f 3f3f3f3f 	.insn	8, 0x3f3f3f3f3f3f3f3f
    7b2a:	3f3f3f3f 3f3f3f3f 	.insn	8, 0x3f3f3f3f3f3f3f3f
    7b32:	3f3f3f3f 3f3f3f3f 	.insn	8, 0x3f3f3f3f3f3f3f3f
    7b3a:	3f3f3f3f 3f3f3f3f 	.insn	8, 0x3f3f3f3f3f3f3f3f
    7b42:	3f3f3f3f 3f3f3f3f 	.insn	8, 0x3f3f3f3f3f3f3f3f
    7b4a:	3f3f3f3f 3f3f3f3f 	.insn	8, 0x3f3f3f3f3f3f3f3f
    7b52:	3f3f3f3f 3f3f3f3f 	.insn	8, 0x3f3f3f3f3f3f3f3f
    7b5a:	3f3f3f3f 3f3f3f3f 	.insn	8, 0x3f3f3f3f3f3f3f3f
    7b62:	3f3f3f3f 3f3f3f3f 	.insn	8, 0x3f3f3f3f3f3f3f3f
    7b6a:	3f3f3f3f 3f3f3f3f 	.insn	8, 0x3f3f3f3f3f3f3f3f
    7b72:	3f3f3f3f 3f3f3f3f 	.insn	8, 0x3f3f3f3f3f3f3f3f
    7b7a:	3f3f3f3f 3f3f3f3f 	.insn	8, 0x3f3f3f3f3f3f3f3f
    7b82:	3f3f3f3f 3f3f3f3f 	.insn	8, 0x3f3f3f3f3f3f3f3f
    7b8a:	3f3f3f3f 3f3f3f3f 	.insn	8, 0x3f3f3f3f3f3f3f3f
    7b92:	3f3f3f3f 3f3f3f3f 	.insn	8, 0x3f3f3f3f3f3f3f3f
    7b9a:	3f3f3f3f 3f3f3f3f 	.insn	8, 0x3f3f3f3f3f3f3f3f
    7ba2:	3f3f3f3f 3f3f3f3f 	.insn	8, 0x3f3f3f3f3f3f3f3f
    7baa:	3f3f3f3f 3f3f3f3f 	.insn	8, 0x3f3f3f3f3f3f3f3f
    7bb2:	3f3f3f3f 3f3f3f3f 	.insn	8, 0x3f3f3f3f3f3f3f3f
    7bba:	3f3f3f3f 3f3f3f3f 	.insn	8, 0x3f3f3f3f3f3f3f3f
    7bc2:	3f3f3f3f 3f3f3f3f 	.insn	8, 0x3f3f3f3f3f3f3f3f
    7bca:	3f3f3f3f 3f3f3f3f 	.insn	8, 0x3f3f3f3f3f3f3f3f
    7bd2:	3f3f3f3f 3f3f3f3f 	.insn	8, 0x3f3f3f3f3f3f3f3f
    7bda:	3f3f3f3f 3f3f3f3f 	.insn	8, 0x3f3f3f3f3f3f3f3f
    7be2:	3f3f3f3f 3f3f3f3f 	.insn	8, 0x3f3f3f3f3f3f3f3f
    7bea:	3f3f3f3f 3f3f3f3f 	.insn	8, 0x3f3f3f3f3f3f3f3f
    7bf2:	3f3f3f3f 3f3f3f3f 	.insn	8, 0x3f3f3f3f3f3f3f3f
    7bfa:	3f3f3f3f 3f3f3f3f 	.insn	8, 0x3f3f3f3f3f3f3f3f
    7c02:	3f3f3f3f 3f3f3f3f 	.insn	8, 0x3f3f3f3f3f3f3f3f
    7c0a:	3f3f3f3f 3f3f3f3f 	.insn	8, 0x3f3f3f3f3f3f3f3f
    7c12:	3f3f3f3f 3f3f3f3f 	.insn	8, 0x3f3f3f3f3f3f3f3f
    7c1a:	3f3f3f3f 3f3f3f3f 	.insn	8, 0x3f3f3f3f3f3f3f3f
    7c22:	3f3f3f3f 3f3f3f3f 	.insn	8, 0x3f3f3f3f3f3f3f3f
    7c2a:	3f3f3f3f 3f3f3f3f 	.insn	8, 0x3f3f3f3f3f3f3f3f
    7c32:	3f3f3f3f 3f3f3f3f 	.insn	8, 0x3f3f3f3f3f3f3f3f
    7c3a:	3f3f3f3f 3f3f3f3f 	.insn	8, 0x3f3f3f3f3f3f3f3f
    7c42:	3f3f3f3f 3f3f3f3f 	.insn	8, 0x3f3f3f3f3f3f3f3f
    7c4a:	3f3f3f3f 3f3f3f3f 	.insn	8, 0x3f3f3f3f3f3f3f3f
    7c52:	3f3f3f3f 3f3f3f3f 	.insn	8, 0x3f3f3f3f3f3f3f3f
    7c5a:	3f3f3f3f 3f3f3f3f 	.insn	8, 0x3f3f3f3f3f3f3f3f
    7c62:	3f3f3f3f 3f3f3f3f 	.insn	8, 0x3f3f3f3f3f3f3f3f
    7c6a:	3f3f3f3f 3f3f3f3f 	.insn	8, 0x3f3f3f3f3f3f3f3f
    7c72:	3f3f3f3f 3f3f3f3f 	.insn	8, 0x3f3f3f3f3f3f3f3f
    7c7a:	3f3f3f3f 3f3f3f3f 	.insn	8, 0x3f3f3f3f3f3f3f3f
    7c82:	3f3f3f3f 3f3f3f3f 	.insn	8, 0x3f3f3f3f3f3f3f3f
    7c8a:	3f3f3f3f 3f3f3f3f 	.insn	8, 0x3f3f3f3f3f3f3f3f
    7c92:	3f3f3f3f 3f3f3f3f 	.insn	8, 0x3f3f3f3f3f3f3f3f
    7c9a:	3f3f3f3f 3f3f3f3f 	.insn	8, 0x3f3f3f3f3f3f3f3f
    7ca2:	3f3f3f3f 3f3f3f3f 	.insn	8, 0x3f3f3f3f3f3f3f3f
    7caa:	3f3f3f3f 3f3f3f3f 	.insn	8, 0x3f3f3f3f3f3f3f3f
    7cb2:	3f3f3f3f 3f3f3f3f 	.insn	8, 0x3f3f3f3f3f3f3f3f
    7cba:	3f3f3f3f 3f3f3f3f 	.insn	8, 0x3f3f3f3f3f3f3f3f
    7cc2:	3f3f3f3f 3f3f3f3f 	.insn	8, 0x3f3f3f3f3f3f3f3f
    7cca:	3f3f3f3f 3f3f3f3f 	.insn	8, 0x3f3f3f3f3f3f3f3f
    7cd2:	3f3f3f3f 3f3f3f3f 	.insn	8, 0x3f3f3f3f3f3f3f3f
    7cda:	3f3f3f3f 3f3f3f3f 	.insn	8, 0x3f3f3f3f3f3f3f3f
    7ce2:	3f3f3f3f 3f3f3f3f 	.insn	8, 0x3f3f3f3f3f3f3f3f
    7cea:	3f3f3f3f 3f3f3f3f 	.insn	8, 0x3f3f3f3f3f3f3f3f
    7cf2:	3f3f3f3f 3f3f3f3f 	.insn	8, 0x3f3f3f3f3f3f3f3f
    7cfa:	3f3f3f3f 3f3f3f3f 	.insn	8, 0x3f3f3f3f3f3f3f3f
    7d02:	3f3f3f3f 3f3f3f3f 	.insn	8, 0x3f3f3f3f3f3f3f3f
    7d0a:	3f3f3f3f 3f3f3f3f 	.insn	8, 0x3f3f3f3f3f3f3f3f
    7d12:	3f3f3f3f 3f3f3f3f 	.insn	8, 0x3f3f3f3f3f3f3f3f
    7d1a:	3f3f3f3f 3f3f3f3f 	.insn	8, 0x3f3f3f3f3f3f3f3f
    7d22:	3f3f3f3f 3f3f3f3f 	.insn	8, 0x3f3f3f3f3f3f3f3f
    7d2a:	3f3f3f3f 3f3f3f3f 	.insn	8, 0x3f3f3f3f3f3f3f3f
    7d32:	3f3f3f3f 3f3f3f3f 	.insn	8, 0x3f3f3f3f3f3f3f3f
    7d3a:	3f3f3f3f 3f3f3f3f 	.insn	8, 0x3f3f3f3f3f3f3f3f
    7d42:	3f3f3f3f 3f3f3f3f 	.insn	8, 0x3f3f3f3f3f3f3f3f
    7d4a:	3f3f3f3f 3f3f3f3f 	.insn	8, 0x3f3f3f3f3f3f3f3f
    7d52:	3f3f3f3f 3f3f3f3f 	.insn	8, 0x3f3f3f3f3f3f3f3f
    7d5a:	3f3f3f3f 3f3f3f3f 	.insn	8, 0x3f3f3f3f3f3f3f3f
    7d62:	3f3f3f3f 3f3f3f3f 	.insn	8, 0x3f3f3f3f3f3f3f3f
    7d6a:	3f3f3f3f 3f3f3f3f 	.insn	8, 0x3f3f3f3f3f3f3f3f
    7d72:	3f3f3f3f 3f3f3f3f 	.insn	8, 0x3f3f3f3f3f3f3f3f
    7d7a:	3f3f3f3f 3f3f3f3f 	.insn	8, 0x3f3f3f3f3f3f3f3f
    7d82:	3f3f3f3f 3f3f3f3f 	.insn	8, 0x3f3f3f3f3f3f3f3f
    7d8a:	3f3f3f3f 3f3f3f3f 	.insn	8, 0x3f3f3f3f3f3f3f3f
    7d92:	3f3f3f3f 3f3f3f3f 	.insn	8, 0x3f3f3f3f3f3f3f3f
    7d9a:	3f3f3f3f 3f3f3f3f 	.insn	8, 0x3f3f3f3f3f3f3f3f
    7da2:	3f3f3f3f 3f3f3f3f 	.insn	8, 0x3f3f3f3f3f3f3f3f
    7daa:	3f3f3f3f 3f3f3f3f 	.insn	8, 0x3f3f3f3f3f3f3f3f
    7db2:	3f3f3f3f 3f3f3f3f 	.insn	8, 0x3f3f3f3f3f3f3f3f
    7dba:	3f3f3f3f 3f3f3f3f 	.insn	8, 0x3f3f3f3f3f3f3f3f
    7dc2:	3f3f3f3f 3f3f3f3f 	.insn	8, 0x3f3f3f3f3f3f3f3f
    7dca:	3f3f3f3f 3f3f3f3f 	.insn	8, 0x3f3f3f3f3f3f3f3f
    7dd2:	3f3f3f3f 3f3f3f3f 	.insn	8, 0x3f3f3f3f3f3f3f3f
    7dda:	3f3f3f3f 3f3f3f3f 	.insn	8, 0x3f3f3f3f3f3f3f3f
    7de2:	3f3f3f3f 3f3f3f3f 	.insn	8, 0x3f3f3f3f3f3f3f3f
    7dea:	3f3f3f3f 3f3f3f3f 	.insn	8, 0x3f3f3f3f3f3f3f3f
    7df2:	3f3f3f3f 3f3f3f3f 	.insn	8, 0x3f3f3f3f3f3f3f3f
    7dfa:	3f3f3f3f 3f3f3f3f 	.insn	8, 0x3f3f3f3f3f3f3f3f
    7e02:	3f3f3f3f 3f3f3f3f 	.insn	8, 0x3f3f3f3f3f3f3f3f
    7e0a:	3f3f3f3f 3f3f3f3f 	.insn	8, 0x3f3f3f3f3f3f3f3f
    7e12:	3f3f3f3f 3f3f3f3f 	.insn	8, 0x3f3f3f3f3f3f3f3f
    7e1a:	3f3f3f3f 3f3f3f3f 	.insn	8, 0x3f3f3f3f3f3f3f3f
    7e22:	3f3f3f3f 3f3f3f3f 	.insn	8, 0x3f3f3f3f3f3f3f3f
    7e2a:	3f3f3f3f 3f3f3f3f 	.insn	8, 0x3f3f3f3f3f3f3f3f
    7e32:	3f3f3f3f 3f3f3f3f 	.insn	8, 0x3f3f3f3f3f3f3f3f
    7e3a:	3f3f3f3f 3f3f3f3f 	.insn	8, 0x3f3f3f3f3f3f3f3f
    7e42:	3f3f3f3f 3f3f3f3f 	.insn	8, 0x3f3f3f3f3f3f3f3f
    7e4a:	3f3f3f3f 3f3f3f3f 	.insn	8, 0x3f3f3f3f3f3f3f3f
    7e52:	3f3f3f3f 3f3f3f3f 	.insn	8, 0x3f3f3f3f3f3f3f3f
    7e5a:	3f3f3f3f 3f3f3f3f 	.insn	8, 0x3f3f3f3f3f3f3f3f
    7e62:	3f3f3f3f 3f3f3f3f 	.insn	8, 0x3f3f3f3f3f3f3f3f
    7e6a:	3f3f3f3f 3f3f3f3f 	.insn	8, 0x3f3f3f3f3f3f3f3f
    7e72:	3f3f3f3f 3f3f3f3f 	.insn	8, 0x3f3f3f3f3f3f3f3f
    7e7a:	3f3f3f3f 3f3f3f3f 	.insn	8, 0x3f3f3f3f3f3f3f3f
    7e82:	3f3f3f3f 3f3f3f3f 	.insn	8, 0x3f3f3f3f3f3f3f3f
    7e8a:	3f3f3f3f 3f3f3f3f 	.insn	8, 0x3f3f3f3f3f3f3f3f
    7e92:	3f3f3f3f 3f3f3f3f 	.insn	8, 0x3f3f3f3f3f3f3f3f
    7e9a:	3f3f3f3f 3f3f3f3f 	.insn	8, 0x3f3f3f3f3f3f3f3f
    7ea2:	3f3f3f3f 3f3f3f3f 	.insn	8, 0x3f3f3f3f3f3f3f3f
    7eaa:	3f3f3f3f 3f3f3f3f 	.insn	8, 0x3f3f3f3f3f3f3f3f
    7eb2:	3f3f3f3f 3f3f3f3f 	.insn	8, 0x3f3f3f3f3f3f3f3f
    7eba:	3f3f3f3f 3f3f3f3f 	.insn	8, 0x3f3f3f3f3f3f3f3f
    7ec2:	3f3f3f3f 3f3f3f3f 	.insn	8, 0x3f3f3f3f3f3f3f3f
    7eca:	3f3f3f3f 3f3f3f3f 	.insn	8, 0x3f3f3f3f3f3f3f3f
    7ed2:	3f3f3f3f 3f3f3f3f 	.insn	8, 0x3f3f3f3f3f3f3f3f
    7eda:	3f3f3f3f 3f3f3f3f 	.insn	8, 0x3f3f3f3f3f3f3f3f
    7ee2:	3f3f3f3f 3f3f3f3f 	.insn	8, 0x3f3f3f3f3f3f3f3f
    7eea:	3f3f3f3f 3f3f3f3f 	.insn	8, 0x3f3f3f3f3f3f3f3f
    7ef2:	3f3f3f3f 3f3f3f3f 	.insn	8, 0x3f3f3f3f3f3f3f3f
    7efa:	3f3f3f3f 3f3f3f3f 	.insn	8, 0x3f3f3f3f3f3f3f3f
    7f02:	3f3f3f3f 3f3f3f3f 	.insn	8, 0x3f3f3f3f3f3f3f3f
    7f0a:	3f3f3f3f 3f3f3f3f 	.insn	8, 0x3f3f3f3f3f3f3f3f
    7f12:	3f3f3f3f 3f3f3f3f 	.insn	8, 0x3f3f3f3f3f3f3f3f
    7f1a:	3f3f3f3f 3f3f3f3f 	.insn	8, 0x3f3f3f3f3f3f3f3f
    7f22:	3f3f3f3f 3f3f3f3f 	.insn	8, 0x3f3f3f3f3f3f3f3f
    7f2a:	3f3f3f3f 3f3f3f3f 	.insn	8, 0x3f3f3f3f3f3f3f3f
    7f32:	3f3f3f3f 3f3f3f3f 	.insn	8, 0x3f3f3f3f3f3f3f3f
    7f3a:	3f3f3f3f 3f3f3f3f 	.insn	8, 0x3f3f3f3f3f3f3f3f
    7f42:	3f3f3f3f 3f3f3f3f 	.insn	8, 0x3f3f3f3f3f3f3f3f
    7f4a:	3f3f3f3f 3f3f3f3f 	.insn	8, 0x3f3f3f3f3f3f3f3f
    7f52:	3f3f3f3f 3f3f3f3f 	.insn	8, 0x3f3f3f3f3f3f3f3f
    7f5a:	3f3f3f3f 3f3f3f3f 	.insn	8, 0x3f3f3f3f3f3f3f3f
    7f62:	3f3f3f3f 3f3f3f3f 	.insn	8, 0x3f3f3f3f3f3f3f3f
    7f6a:	3f3f3f3f 3f3f3f3f 	.insn	8, 0x3f3f3f3f3f3f3f3f
    7f72:	3f3f3f3f 3f3f3f3f 	.insn	8, 0x3f3f3f3f3f3f3f3f
    7f7a:	3f3f3f3f 3f3f3f3f 	.insn	8, 0x3f3f3f3f3f3f3f3f
    7f82:	3f3f3f3f 3f3f3f3f 	.insn	8, 0x3f3f3f3f3f3f3f3f
    7f8a:	3f3f3f3f 3f3f3f3f 	.insn	8, 0x3f3f3f3f3f3f3f3f
    7f92:	3f3f3f3f 3f3f3f3f 	.insn	8, 0x3f3f3f3f3f3f3f3f
    7f9a:	3f3f3f3f 3f3f3f3f 	.insn	8, 0x3f3f3f3f3f3f3f3f
    7fa2:	3f3f3f3f 3f3f3f3f 	.insn	8, 0x3f3f3f3f3f3f3f3f
    7faa:	3f3f3f3f 3f3f3f3f 	.insn	8, 0x3f3f3f3f3f3f3f3f
    7fb2:	3f3f3f3f 3f3f3f3f 	.insn	8, 0x3f3f3f3f3f3f3f3f
    7fba:	3f3f3f3f 3f3f3f3f 	.insn	8, 0x3f3f3f3f3f3f3f3f
    7fc2:	3f3f3f3f 3f3f3f3f 	.insn	8, 0x3f3f3f3f3f3f3f3f
    7fca:	3f3f3f3f 3f3f3f3f 	.insn	8, 0x3f3f3f3f3f3f3f3f
    7fd2:	3f3f3f3f 3f3f3f3f 	.insn	8, 0x3f3f3f3f3f3f3f3f
    7fda:	3f3f3f3f 3f3f3f3f 	.insn	8, 0x3f3f3f3f3f3f3f3f
    7fe2:	3f3f3f3f 3f3f3f3f 	.insn	8, 0x3f3f3f3f3f3f3f3f
    7fea:	3f3f3f3f 3f3f3f3f 	.insn	8, 0x3f3f3f3f3f3f3f3f
    7ff2:	3f3f3f3f 3f3f3f3f 	.insn	8, 0x3f3f3f3f3f3f3f3f
    7ffa:	3f3f3f3f 3f3f3f3f 	.insn	8, 0x3f3f3f3f3f3f3f3f
    8002:	3f3f3f3f 3f3f3f3f 	.insn	8, 0x3f3f3f3f3f3f3f3f
    800a:	3f3f3f3f 3f3f3f3f 	.insn	8, 0x3f3f3f3f3f3f3f3f
    8012:	3f3f3f3f 3f3f3f3f 	.insn	8, 0x3f3f3f3f3f3f3f3f
    801a:	3f3f3f3f 3f3f3f3f 	.insn	8, 0x3f3f3f3f3f3f3f3f
    8022:	3f3f3f3f 3f3f3f3f 	.insn	8, 0x3f3f3f3f3f3f3f3f
    802a:	3f3f3f3f 3f3f3f3f 	.insn	8, 0x3f3f3f3f3f3f3f3f
    8032:	3f3f3f3f 3f3f3f3f 	.insn	8, 0x3f3f3f3f3f3f3f3f
    803a:	3f3f3f3f 3f3f3f3f 	.insn	8, 0x3f3f3f3f3f3f3f3f
    8042:	3f3f3f3f 3f3f3f3f 	.insn	8, 0x3f3f3f3f3f3f3f3f
    804a:	3f3f3f3f 3f3f3f3f 	.insn	8, 0x3f3f3f3f3f3f3f3f
    8052:	3f3f3f3f 3f3f3f3f 	.insn	8, 0x3f3f3f3f3f3f3f3f
    805a:	3f3f3f3f 3f3f3f3f 	.insn	8, 0x3f3f3f3f3f3f3f3f
    8062:	3f3f3f3f 3f3f3f3f 	.insn	8, 0x3f3f3f3f3f3f3f3f
    806a:	3f3f3f3f 3f3f3f3f 	.insn	8, 0x3f3f3f3f3f3f3f3f
    8072:	3f3f3f3f 3f3f3f3f 	.insn	8, 0x3f3f3f3f3f3f3f3f
    807a:	3f3f3f3f 3f3f3f3f 	.insn	8, 0x3f3f3f3f3f3f3f3f
    8082:	3f3f3f3f 3f3f3f3f 	.insn	8, 0x3f3f3f3f3f3f3f3f
    808a:	3f3f3f3f 3f3f3f3f 	.insn	8, 0x3f3f3f3f3f3f3f3f
    8092:	3f3f3f3f 3f3f3f3f 	.insn	8, 0x3f3f3f3f3f3f3f3f
    809a:	3f3f3f3f 3f3f3f3f 	.insn	8, 0x3f3f3f3f3f3f3f3f
    80a2:	3f3f3f3f 3f3f3f3f 	.insn	8, 0x3f3f3f3f3f3f3f3f
    80aa:	3f3f3f3f 3f3f3f3f 	.insn	8, 0x3f3f3f3f3f3f3f3f
    80b2:	3f3f3f3f 3f3f3f3f 	.insn	8, 0x3f3f3f3f3f3f3f3f
    80ba:	3f3f3f3f 3f3f3f3f 	.insn	8, 0x3f3f3f3f3f3f3f3f
    80c2:	3f3f3f3f 3f3f3f3f 	.insn	8, 0x3f3f3f3f3f3f3f3f
    80ca:	3f3f3f3f 3f3f3f3f 	.insn	8, 0x3f3f3f3f3f3f3f3f
    80d2:	3f3f3f3f 3f3f3f3f 	.insn	8, 0x3f3f3f3f3f3f3f3f
    80da:	3f3f3f3f 3f3f3f3f 	.insn	8, 0x3f3f3f3f3f3f3f3f
    80e2:	3f3f3f3f 3f3f3f3f 	.insn	8, 0x3f3f3f3f3f3f3f3f
    80ea:	3f3f3f3f 3f3f3f3f 	.insn	8, 0x3f3f3f3f3f3f3f3f
    80f2:	3f3f3f3f 3f3f3f3f 	.insn	8, 0x3f3f3f3f3f3f3f3f
    80fa:	3f3f3f3f 3f3f3f3f 	.insn	8, 0x3f3f3f3f3f3f3f3f
    8102:	3f3f3f3f 3f3f3f3f 	.insn	8, 0x3f3f3f3f3f3f3f3f
    810a:	3f3f3f3f 3f3f3f3f 	.insn	8, 0x3f3f3f3f3f3f3f3f
    8112:	3f3f3f3f 3f3f3f3f 	.insn	8, 0x3f3f3f3f3f3f3f3f
    811a:	3f3f3f3f 3f3f3f3f 	.insn	8, 0x3f3f3f3f3f3f3f3f
    8122:	3f3f3f3f 3f3f3f3f 	.insn	8, 0x3f3f3f3f3f3f3f3f
    812a:	3f3f3f3f 3f3f3f3f 	.insn	8, 0x3f3f3f3f3f3f3f3f
    8132:	3f3f3f3f 3f3f3f3f 	.insn	8, 0x3f3f3f3f3f3f3f3f
    813a:	3f3f3f3f 3f3f3f3f 	.insn	8, 0x3f3f3f3f3f3f3f3f
    8142:	3f3f3f3f 3f3f3f3f 	.insn	8, 0x3f3f3f3f3f3f3f3f
    814a:	3f3f3f3f 3f3f3f3f 	.insn	8, 0x3f3f3f3f3f3f3f3f
    8152:	3f3f3f3f 3f3f3f3f 	.insn	8, 0x3f3f3f3f3f3f3f3f
    815a:	3f3f3f3f 3f3f3f3f 	.insn	8, 0x3f3f3f3f3f3f3f3f
    8162:	3f3f3f3f 3f3f3f3f 	.insn	8, 0x3f3f3f3f3f3f3f3f
    816a:	3f3f3f3f 3f3f3f3f 	.insn	8, 0x3f3f3f3f3f3f3f3f
    8172:	3f3f3f3f 3f3f3f3f 	.insn	8, 0x3f3f3f3f3f3f3f3f
    817a:	3f3f3f3f 3f3f3f3f 	.insn	8, 0x3f3f3f3f3f3f3f3f
    8182:	3f3f3f3f 3f3f3f3f 	.insn	8, 0x3f3f3f3f3f3f3f3f
    818a:	3f3f3f3f 3f3f3f3f 	.insn	8, 0x3f3f3f3f3f3f3f3f
    8192:	3f3f3f3f 3f3f3f3f 	.insn	8, 0x3f3f3f3f3f3f3f3f
    819a:	3f3f3f3f 3f3f3f3f 	.insn	8, 0x3f3f3f3f3f3f3f3f
    81a2:	3f3f3f3f 3f3f3f3f 	.insn	8, 0x3f3f3f3f3f3f3f3f
    81aa:	3f3f3f3f 3f3f3f3f 	.insn	8, 0x3f3f3f3f3f3f3f3f
    81b2:	3f3f3f3f 3f3f3f3f 	.insn	8, 0x3f3f3f3f3f3f3f3f
    81ba:	3f3f3f3f 3f3f3f3f 	.insn	8, 0x3f3f3f3f3f3f3f3f
    81c2:	3f3f3f3f 3f3f3f3f 	.insn	8, 0x3f3f3f3f3f3f3f3f
    81ca:	3f3f3f3f 3f3f3f3f 	.insn	8, 0x3f3f3f3f3f3f3f3f
    81d2:	3f3f3f3f 3f3f3f3f 	.insn	8, 0x3f3f3f3f3f3f3f3f
    81da:	3f3f3f3f 3f3f3f3f 	.insn	8, 0x3f3f3f3f3f3f3f3f
    81e2:	3f3f3f3f 3f3f3f3f 	.insn	8, 0x3f3f3f3f3f3f3f3f
    81ea:	3f3f3f3f 3f3f3f3f 	.insn	8, 0x3f3f3f3f3f3f3f3f
    81f2:	3f3f3f3f 3f3f3f3f 	.insn	8, 0x3f3f3f3f3f3f3f3f
    81fa:	3f3f3f3f 3f3f3f3f 	.insn	8, 0x3f3f3f3f3f3f3f3f
    8202:	3f3f3f3f 3f3f3f3f 	.insn	8, 0x3f3f3f3f3f3f3f3f
    820a:	3f3f3f3f 3f3f3f3f 	.insn	8, 0x3f3f3f3f3f3f3f3f
    8212:	3f3f3f3f 3f3f3f3f 	.insn	8, 0x3f3f3f3f3f3f3f3f
    821a:	3f3f3f3f 3f3f3f3f 	.insn	8, 0x3f3f3f3f3f3f3f3f
    8222:	3f3f3f3f 3f3f3f3f 	.insn	8, 0x3f3f3f3f3f3f3f3f
    822a:	3f3f3f3f 3f3f3f3f 	.insn	8, 0x3f3f3f3f3f3f3f3f
    8232:	3f3f3f3f 3f3f3f3f 	.insn	8, 0x3f3f3f3f3f3f3f3f
    823a:	3f3f3f3f 3f3f3f3f 	.insn	8, 0x3f3f3f3f3f3f3f3f
    8242:	3f3f3f3f 3f3f3f3f 	.insn	8, 0x3f3f3f3f3f3f3f3f
    824a:	3f3f3f3f 3f3f3f3f 	.insn	8, 0x3f3f3f3f3f3f3f3f
    8252:	3f3f3f3f 3f3f3f3f 	.insn	8, 0x3f3f3f3f3f3f3f3f
    825a:	3f3f3f3f 3f3f3f3f 	.insn	8, 0x3f3f3f3f3f3f3f3f
    8262:	3f3f3f3f 3f3f3f3f 	.insn	8, 0x3f3f3f3f3f3f3f3f
    826a:	3f3f3f3f 3f3f3f3f 	.insn	8, 0x3f3f3f3f3f3f3f3f
    8272:	3f3f3f3f 3f3f3f3f 	.insn	8, 0x3f3f3f3f3f3f3f3f
    827a:	3f3f3f3f 3f3f3f3f 	.insn	8, 0x3f3f3f3f3f3f3f3f
    8282:	3f3f3f3f 3f3f3f3f 	.insn	8, 0x3f3f3f3f3f3f3f3f
    828a:	3f3f3f3f 3f3f3f3f 	.insn	8, 0x3f3f3f3f3f3f3f3f
    8292:	3f3f3f3f 3f3f3f3f 	.insn	8, 0x3f3f3f3f3f3f3f3f
    829a:	3f3f3f3f 3f3f3f3f 	.insn	8, 0x3f3f3f3f3f3f3f3f
    82a2:	3f3f3f3f 3f3f3f3f 	.insn	8, 0x3f3f3f3f3f3f3f3f
    82aa:	3f3f3f3f 3f3f3f3f 	.insn	8, 0x3f3f3f3f3f3f3f3f
    82b2:	3f3f3f3f 3f3f3f3f 	.insn	8, 0x3f3f3f3f3f3f3f3f
    82ba:	3f3f3f3f 3f3f3f3f 	.insn	8, 0x3f3f3f3f3f3f3f3f
    82c2:	3f3f3f3f 3f3f3f3f 	.insn	8, 0x3f3f3f3f3f3f3f3f
    82ca:	3f3f3f3f 3f3f3f3f 	.insn	8, 0x3f3f3f3f3f3f3f3f
    82d2:	3f3f3f3f 3f3f3f3f 	.insn	8, 0x3f3f3f3f3f3f3f3f
    82da:	3f3f3f3f 3f3f3f3f 	.insn	8, 0x3f3f3f3f3f3f3f3f
    82e2:	3f3f3f3f 3f3f3f3f 	.insn	8, 0x3f3f3f3f3f3f3f3f
    82ea:	3f3f3f3f 3f3f3f3f 	.insn	8, 0x3f3f3f3f3f3f3f3f
    82f2:	3f3f3f3f 3f3f3f3f 	.insn	8, 0x3f3f3f3f3f3f3f3f
    82fa:	3f3f3f3f 3f3f3f3f 	.insn	8, 0x3f3f3f3f3f3f3f3f
    8302:	3f3f3f3f 3f3f3f3f 	.insn	8, 0x3f3f3f3f3f3f3f3f
    830a:	3f3f3f3f 3f3f3f3f 	.insn	8, 0x3f3f3f3f3f3f3f3f
    8312:	3f3f3f3f 3f3f3f3f 	.insn	8, 0x3f3f3f3f3f3f3f3f
    831a:	3f3f3f3f 3f3f3f3f 	.insn	8, 0x3f3f3f3f3f3f3f3f
    8322:	3f3f3f3f 3f3f3f3f 	.insn	8, 0x3f3f3f3f3f3f3f3f
    832a:	3f3f3f3f 3f3f3f3f 	.insn	8, 0x3f3f3f3f3f3f3f3f
    8332:	3f3f3f3f 3f3f3f3f 	.insn	8, 0x3f3f3f3f3f3f3f3f
    833a:	3f3f3f3f 3f3f3f3f 	.insn	8, 0x3f3f3f3f3f3f3f3f
    8342:	3f3f3f3f 3f3f3f3f 	.insn	8, 0x3f3f3f3f3f3f3f3f
    834a:	3f3f3f3f 3f3f3f3f 	.insn	8, 0x3f3f3f3f3f3f3f3f
    8352:	3f3f3f3f 3f3f3f3f 	.insn	8, 0x3f3f3f3f3f3f3f3f
    835a:	3f3f3f3f 3f3f3f3f 	.insn	8, 0x3f3f3f3f3f3f3f3f
    8362:	3f3f3f3f 3f3f3f3f 	.insn	8, 0x3f3f3f3f3f3f3f3f
    836a:	3f3f3f3f 3f3f3f3f 	.insn	8, 0x3f3f3f3f3f3f3f3f
    8372:	3f3f3f3f 3f3f3f3f 	.insn	8, 0x3f3f3f3f3f3f3f3f
    837a:	3f3f3f3f 3f3f3f3f 	.insn	8, 0x3f3f3f3f3f3f3f3f
    8382:	3f3f3f3f 3f3f3f3f 	.insn	8, 0x3f3f3f3f3f3f3f3f
    838a:	3f3f3f3f 3f3f3f3f 	.insn	8, 0x3f3f3f3f3f3f3f3f
    8392:	3f3f3f3f 3f3f3f3f 	.insn	8, 0x3f3f3f3f3f3f3f3f
    839a:	3f3f3f3f 3f3f3f3f 	.insn	8, 0x3f3f3f3f3f3f3f3f
    83a2:	3f3f3f3f 3f3f3f3f 	.insn	8, 0x3f3f3f3f3f3f3f3f
    83aa:	3f3f3f3f 3f3f3f3f 	.insn	8, 0x3f3f3f3f3f3f3f3f
    83b2:	3f3f3f3f 3f3f3f3f 	.insn	8, 0x3f3f3f3f3f3f3f3f
    83ba:	3f3f3f3f 3f3f3f3f 	.insn	8, 0x3f3f3f3f3f3f3f3f
    83c2:	3f3f3f3f 3f3f3f3f 	.insn	8, 0x3f3f3f3f3f3f3f3f
    83ca:	3f3f3f3f 3f3f3f3f 	.insn	8, 0x3f3f3f3f3f3f3f3f
    83d2:	3f3f3f3f 3f3f3f3f 	.insn	8, 0x3f3f3f3f3f3f3f3f
    83da:	3f3f3f3f 3f3f3f3f 	.insn	8, 0x3f3f3f3f3f3f3f3f
    83e2:	3f3f3f3f 3f3f3f3f 	.insn	8, 0x3f3f3f3f3f3f3f3f
    83ea:	3f3f3f3f 3f3f3f3f 	.insn	8, 0x3f3f3f3f3f3f3f3f
    83f2:	3f3f3f3f 3f3f3f3f 	.insn	8, 0x3f3f3f3f3f3f3f3f
    83fa:	3f3f3f3f 3f3f3f3f 	.insn	8, 0x3f3f3f3f3f3f3f3f
    8402:	3f3f3f3f 3f3f3f3f 	.insn	8, 0x3f3f3f3f3f3f3f3f
    840a:	3f3f3f3f 3f3f3f3f 	.insn	8, 0x3f3f3f3f3f3f3f3f
    8412:	3f3f3f3f 3f3f3f3f 	.insn	8, 0x3f3f3f3f3f3f3f3f
    841a:	3f3f3f3f 3f3f3f3f 	.insn	8, 0x3f3f3f3f3f3f3f3f
    8422:	3f3f3f3f 3f3f3f3f 	.insn	8, 0x3f3f3f3f3f3f3f3f
    842a:	3f3f3f3f 3f3f3f3f 	.insn	8, 0x3f3f3f3f3f3f3f3f
    8432:	3f3f3f3f 3f3f3f3f 	.insn	8, 0x3f3f3f3f3f3f3f3f
    843a:	3f3f3f3f 3f3f3f3f 	.insn	8, 0x3f3f3f3f3f3f3f3f
    8442:	3f3f3f3f 3f3f3f3f 	.insn	8, 0x3f3f3f3f3f3f3f3f
    844a:	3f3f3f3f 3f3f3f3f 	.insn	8, 0x3f3f3f3f3f3f3f3f
    8452:	3f3f3f3f 3f3f3f3f 	.insn	8, 0x3f3f3f3f3f3f3f3f
    845a:	3f3f3f3f 3f3f3f3f 	.insn	8, 0x3f3f3f3f3f3f3f3f
    8462:	3f3f3f3f 3f3f3f3f 	.insn	8, 0x3f3f3f3f3f3f3f3f
    846a:	3f3f3f3f 3f3f3f3f 	.insn	8, 0x3f3f3f3f3f3f3f3f
    8472:	3f3f3f3f 3f3f3f3f 	.insn	8, 0x3f3f3f3f3f3f3f3f
    847a:	3f3f3f3f 3f3f3f3f 	.insn	8, 0x3f3f3f3f3f3f3f3f
    8482:	3f3f3f3f 3f3f3f3f 	.insn	8, 0x3f3f3f3f3f3f3f3f
    848a:	3f3f3f3f 3f3f3f3f 	.insn	8, 0x3f3f3f3f3f3f3f3f
    8492:	3f3f3f3f 3f3f3f3f 	.insn	8, 0x3f3f3f3f3f3f3f3f
    849a:	3f3f3f3f 3f3f3f3f 	.insn	8, 0x3f3f3f3f3f3f3f3f
    84a2:	3f3f3f3f 3f3f3f3f 	.insn	8, 0x3f3f3f3f3f3f3f3f
    84aa:	3f3f3f3f 3f3f3f3f 	.insn	8, 0x3f3f3f3f3f3f3f3f
    84b2:	3f3f3f3f 3f3f3f3f 	.insn	8, 0x3f3f3f3f3f3f3f3f
    84ba:	3f3f3f3f 3f3f3f3f 	.insn	8, 0x3f3f3f3f3f3f3f3f
    84c2:	3f3f3f3f 3f3f3f3f 	.insn	8, 0x3f3f3f3f3f3f3f3f
    84ca:	3f3f3f3f 3f3f3f3f 	.insn	8, 0x3f3f3f3f3f3f3f3f
    84d2:	3f3f3f3f 3f3f3f3f 	.insn	8, 0x3f3f3f3f3f3f3f3f
    84da:	3f3f3f3f 3f3f3f3f 	.insn	8, 0x3f3f3f3f3f3f3f3f
    84e2:	3f3f3f3f 3f3f3f3f 	.insn	8, 0x3f3f3f3f3f3f3f3f
    84ea:	3f3f3f3f 3f3f3f3f 	.insn	8, 0x3f3f3f3f3f3f3f3f
    84f2:	3f3f3f3f 3f3f3f3f 	.insn	8, 0x3f3f3f3f3f3f3f3f
    84fa:	3f3f3f3f 3f3f3f3f 	.insn	8, 0x3f3f3f3f3f3f3f3f
    8502:	3f3f3f3f 3f3f3f3f 	.insn	8, 0x3f3f3f3f3f3f3f3f
    850a:	3f3f3f3f 3f3f3f3f 	.insn	8, 0x3f3f3f3f3f3f3f3f
    8512:	3f3f3f3f 3f3f3f3f 	.insn	8, 0x3f3f3f3f3f3f3f3f
    851a:	3f3f3f3f 3f3f3f3f 	.insn	8, 0x3f3f3f3f3f3f3f3f
    8522:	3f3f3f3f 3f3f3f3f 	.insn	8, 0x3f3f3f3f3f3f3f3f
    852a:	3f3f3f3f 3f3f3f3f 	.insn	8, 0x3f3f3f3f3f3f3f3f
    8532:	3f3f3f3f 3f3f3f3f 	.insn	8, 0x3f3f3f3f3f3f3f3f
    853a:	3f3f3f3f 3f3f3f3f 	.insn	8, 0x3f3f3f3f3f3f3f3f
    8542:	3f3f3f3f 3f3f3f3f 	.insn	8, 0x3f3f3f3f3f3f3f3f
    854a:	3f3f3f3f 3f3f3f3f 	.insn	8, 0x3f3f3f3f3f3f3f3f
    8552:	3f3f3f3f 3f3f3f3f 	.insn	8, 0x3f3f3f3f3f3f3f3f
    855a:	3f3f3f3f 3f3f3f3f 	.insn	8, 0x3f3f3f3f3f3f3f3f
    8562:	3f3f3f3f 3f3f3f3f 	.insn	8, 0x3f3f3f3f3f3f3f3f
    856a:	3f3f3f3f 3f3f3f3f 	.insn	8, 0x3f3f3f3f3f3f3f3f
    8572:	3f3f3f3f 3f3f3f3f 	.insn	8, 0x3f3f3f3f3f3f3f3f
    857a:	3f3f3f3f 3f3f3f3f 	.insn	8, 0x3f3f3f3f3f3f3f3f
    8582:	3f3f3f3f 3f3f3f3f 	.insn	8, 0x3f3f3f3f3f3f3f3f
    858a:	3f3f3f3f 3f3f3f3f 	.insn	8, 0x3f3f3f3f3f3f3f3f
    8592:	3f3f3f3f 3f3f3f3f 	.insn	8, 0x3f3f3f3f3f3f3f3f
    859a:	3f3f3f3f 3f3f3f3f 	.insn	8, 0x3f3f3f3f3f3f3f3f
    85a2:	3f3f3f3f 3f3f3f3f 	.insn	8, 0x3f3f3f3f3f3f3f3f
    85aa:	3f3f3f3f 3f3f3f3f 	.insn	8, 0x3f3f3f3f3f3f3f3f
    85b2:	3f3f3f3f 3f3f3f3f 	.insn	8, 0x3f3f3f3f3f3f3f3f
    85ba:	3f3f3f3f 3f3f3f3f 	.insn	8, 0x3f3f3f3f3f3f3f3f
    85c2:	3f3f3f3f 3f3f3f3f 	.insn	8, 0x3f3f3f3f3f3f3f3f
    85ca:	3f3f3f3f 3f3f3f3f 	.insn	8, 0x3f3f3f3f3f3f3f3f
    85d2:	3f3f3f3f 3f3f3f3f 	.insn	8, 0x3f3f3f3f3f3f3f3f
    85da:	3f3f3f3f 3f3f3f3f 	.insn	8, 0x3f3f3f3f3f3f3f3f
    85e2:	3f3f3f3f 3f3f3f3f 	.insn	8, 0x3f3f3f3f3f3f3f3f
    85ea:	3f3f3f3f 3f3f3f3f 	.insn	8, 0x3f3f3f3f3f3f3f3f
    85f2:	3f3f3f3f 3f3f3f3f 	.insn	8, 0x3f3f3f3f3f3f3f3f
    85fa:	3f3f3f3f 3f3f3f3f 	.insn	8, 0x3f3f3f3f3f3f3f3f
    8602:	3f3f3f3f 3f3f3f3f 	.insn	8, 0x3f3f3f3f3f3f3f3f
    860a:	3f3f3f3f 3f3f3f3f 	.insn	8, 0x3f3f3f3f3f3f3f3f
    8612:	3f3f3f3f 3f3f3f3f 	.insn	8, 0x3f3f3f3f3f3f3f3f
    861a:	3f3f3f3f 3f3f3f3f 	.insn	8, 0x3f3f3f3f3f3f3f3f
    8622:	3f3f3f3f 3f3f3f3f 	.insn	8, 0x3f3f3f3f3f3f3f3f
    862a:	3f3f3f3f 3f3f3f3f 	.insn	8, 0x3f3f3f3f3f3f3f3f
    8632:	3f3f3f3f 3f3f3f3f 	.insn	8, 0x3f3f3f3f3f3f3f3f
    863a:	3f3f3f3f 3f3f3f3f 	.insn	8, 0x3f3f3f3f3f3f3f3f
    8642:	3f3f3f3f 3f3f3f3f 	.insn	8, 0x3f3f3f3f3f3f3f3f
    864a:	3f3f3f3f 3f3f3f3f 	.insn	8, 0x3f3f3f3f3f3f3f3f
    8652:	3f3f3f3f 3f3f3f3f 	.insn	8, 0x3f3f3f3f3f3f3f3f
    865a:	3f3f3f3f 3f3f3f3f 	.insn	8, 0x3f3f3f3f3f3f3f3f
    8662:	3f3f3f3f 3f3f3f3f 	.insn	8, 0x3f3f3f3f3f3f3f3f
    866a:	3f3f3f3f 3f3f3f3f 	.insn	8, 0x3f3f3f3f3f3f3f3f
    8672:	3f3f3f3f 3f3f3f3f 	.insn	8, 0x3f3f3f3f3f3f3f3f
    867a:	3f3f3f3f 3f3f3f3f 	.insn	8, 0x3f3f3f3f3f3f3f3f
    8682:	3f3f3f3f 3f3f3f3f 	.insn	8, 0x3f3f3f3f3f3f3f3f
    868a:	3f3f3f3f 3f3f3f3f 	.insn	8, 0x3f3f3f3f3f3f3f3f
    8692:	3f3f3f3f 3f3f3f3f 	.insn	8, 0x3f3f3f3f3f3f3f3f
    869a:	3f3f3f3f 3f3f3f3f 	.insn	8, 0x3f3f3f3f3f3f3f3f
    86a2:	3f3f3f3f 3f3f3f3f 	.insn	8, 0x3f3f3f3f3f3f3f3f
    86aa:	3f3f3f3f 3f3f3f3f 	.insn	8, 0x3f3f3f3f3f3f3f3f
    86b2:	3f3f3f3f 3f3f3f3f 	.insn	8, 0x3f3f3f3f3f3f3f3f
    86ba:	3f3f3f3f 3f3f3f3f 	.insn	8, 0x3f3f3f3f3f3f3f3f
    86c2:	3f3f3f3f 3f3f3f3f 	.insn	8, 0x3f3f3f3f3f3f3f3f
    86ca:	3f3f3f3f 3f3f3f3f 	.insn	8, 0x3f3f3f3f3f3f3f3f
    86d2:	3f3f3f3f 3f3f3f3f 	.insn	8, 0x3f3f3f3f3f3f3f3f
    86da:	3f3f3f3f 3f3f3f3f 	.insn	8, 0x3f3f3f3f3f3f3f3f
    86e2:	3f3f3f3f 3f3f3f3f 	.insn	8, 0x3f3f3f3f3f3f3f3f
    86ea:	3f3f3f3f 3f3f3f3f 	.insn	8, 0x3f3f3f3f3f3f3f3f
    86f2:	3f3f3f3f 3f3f3f3f 	.insn	8, 0x3f3f3f3f3f3f3f3f
    86fa:	3f3f3f3f 3f3f3f3f 	.insn	8, 0x3f3f3f3f3f3f3f3f
    8702:	3f3f3f3f 3f3f3f3f 	.insn	8, 0x3f3f3f3f3f3f3f3f
    870a:	3f3f3f3f 3f3f3f3f 	.insn	8, 0x3f3f3f3f3f3f3f3f
    8712:	3f3f3f3f 3f3f3f3f 	.insn	8, 0x3f3f3f3f3f3f3f3f
    871a:	3f3f3f3f 3f3f3f3f 	.insn	8, 0x3f3f3f3f3f3f3f3f
    8722:	3f3f3f3f 3f3f3f3f 	.insn	8, 0x3f3f3f3f3f3f3f3f
    872a:	3f3f3f3f 3f3f3f3f 	.insn	8, 0x3f3f3f3f3f3f3f3f
    8732:	3f3f3f3f 3f3f3f3f 	.insn	8, 0x3f3f3f3f3f3f3f3f
    873a:	3f3f3f3f 3f3f3f3f 	.insn	8, 0x3f3f3f3f3f3f3f3f
    8742:	3f3f3f3f 3f3f3f3f 	.insn	8, 0x3f3f3f3f3f3f3f3f
    874a:	3f3f3f3f 3f3f3f3f 	.insn	8, 0x3f3f3f3f3f3f3f3f
    8752:	3f3f3f3f 3f3f3f3f 	.insn	8, 0x3f3f3f3f3f3f3f3f
    875a:	3f3f3f3f 3f3f3f3f 	.insn	8, 0x3f3f3f3f3f3f3f3f
    8762:	3f3f3f3f 3f3f3f3f 	.insn	8, 0x3f3f3f3f3f3f3f3f
    876a:	3f3f3f3f 3f3f3f3f 	.insn	8, 0x3f3f3f3f3f3f3f3f
    8772:	3f3f3f3f 3f3f3f3f 	.insn	8, 0x3f3f3f3f3f3f3f3f
    877a:	3f3f3f3f 3f3f3f3f 	.insn	8, 0x3f3f3f3f3f3f3f3f
    8782:	3f3f3f3f 3f3f3f3f 	.insn	8, 0x3f3f3f3f3f3f3f3f
    878a:	3f3f3f3f 3f3f3f3f 	.insn	8, 0x3f3f3f3f3f3f3f3f
    8792:	3f3f3f3f 3f3f3f3f 	.insn	8, 0x3f3f3f3f3f3f3f3f
    879a:	3f3f3f3f 3f3f3f3f 	.insn	8, 0x3f3f3f3f3f3f3f3f
    87a2:	3f3f3f3f 3f3f3f3f 	.insn	8, 0x3f3f3f3f3f3f3f3f
    87aa:	3f3f3f3f 3f3f3f3f 	.insn	8, 0x3f3f3f3f3f3f3f3f
    87b2:	3f3f3f3f 3f3f3f3f 	.insn	8, 0x3f3f3f3f3f3f3f3f
    87ba:	3f3f3f3f 3f3f3f3f 	.insn	8, 0x3f3f3f3f3f3f3f3f
    87c2:	3f3f3f3f 3f3f3f3f 	.insn	8, 0x3f3f3f3f3f3f3f3f
    87ca:	3f3f3f3f 3f3f3f3f 	.insn	8, 0x3f3f3f3f3f3f3f3f
    87d2:	3f3f3f3f 3f3f3f3f 	.insn	8, 0x3f3f3f3f3f3f3f3f
    87da:	3f3f3f3f 3f3f3f3f 	.insn	8, 0x3f3f3f3f3f3f3f3f
    87e2:	3f3f3f3f 3f3f3f3f 	.insn	8, 0x3f3f3f3f3f3f3f3f
    87ea:	3f3f3f3f 3f3f3f3f 	.insn	8, 0x3f3f3f3f3f3f3f3f
    87f2:	3f3f3f3f 3f3f3f3f 	.insn	8, 0x3f3f3f3f3f3f3f3f
    87fa:	3f3f3f3f 3f3f3f3f 	.insn	8, 0x3f3f3f3f3f3f3f3f
    8802:	3f3f3f3f 3f3f3f3f 	.insn	8, 0x3f3f3f3f3f3f3f3f
    880a:	3f3f3f3f 3f3f3f3f 	.insn	8, 0x3f3f3f3f3f3f3f3f
    8812:	3f3f3f3f 3f3f3f3f 	.insn	8, 0x3f3f3f3f3f3f3f3f
    881a:	3f3f3f3f 3f3f3f3f 	.insn	8, 0x3f3f3f3f3f3f3f3f
    8822:	3f3f3f3f 3f3f3f3f 	.insn	8, 0x3f3f3f3f3f3f3f3f
    882a:	3f3f3f3f 3f3f3f3f 	.insn	8, 0x3f3f3f3f3f3f3f3f
    8832:	3f3f3f3f 3f3f3f3f 	.insn	8, 0x3f3f3f3f3f3f3f3f
    883a:	3f3f3f3f 3f3f3f3f 	.insn	8, 0x3f3f3f3f3f3f3f3f
    8842:	3f3f3f3f 3f3f3f3f 	.insn	8, 0x3f3f3f3f3f3f3f3f
    884a:	3f3f3f3f 3f3f3f3f 	.insn	8, 0x3f3f3f3f3f3f3f3f
    8852:	3f3f3f3f 3f3f3f3f 	.insn	8, 0x3f3f3f3f3f3f3f3f
    885a:	3f3f3f3f 3f3f3f3f 	.insn	8, 0x3f3f3f3f3f3f3f3f
    8862:	3f3f3f3f 3f3f3f3f 	.insn	8, 0x3f3f3f3f3f3f3f3f
    886a:	3f3f3f3f 3f3f3f3f 	.insn	8, 0x3f3f3f3f3f3f3f3f
    8872:	3f3f3f3f 3f3f3f3f 	.insn	8, 0x3f3f3f3f3f3f3f3f
    887a:	3f3f3f3f 3f3f3f3f 	.insn	8, 0x3f3f3f3f3f3f3f3f
    8882:	3f3f3f3f 3f3f3f3f 	.insn	8, 0x3f3f3f3f3f3f3f3f
    888a:	3f3f3f3f 3f3f3f3f 	.insn	8, 0x3f3f3f3f3f3f3f3f
    8892:	3f3f3f3f 3f3f3f3f 	.insn	8, 0x3f3f3f3f3f3f3f3f
    889a:	3f3f3f3f 3f3f3f3f 	.insn	8, 0x3f3f3f3f3f3f3f3f
    88a2:	3f3f3f3f 3f3f3f3f 	.insn	8, 0x3f3f3f3f3f3f3f3f
    88aa:	3f3f3f3f 3f3f3f3f 	.insn	8, 0x3f3f3f3f3f3f3f3f
    88b2:	3f3f3f3f 3f3f3f3f 	.insn	8, 0x3f3f3f3f3f3f3f3f
    88ba:	3f3f3f3f 3f3f3f3f 	.insn	8, 0x3f3f3f3f3f3f3f3f
    88c2:	3f3f3f3f 3f3f3f3f 	.insn	8, 0x3f3f3f3f3f3f3f3f
    88ca:	3f3f3f3f 3f3f3f3f 	.insn	8, 0x3f3f3f3f3f3f3f3f
    88d2:	3f3f3f3f 3f3f3f3f 	.insn	8, 0x3f3f3f3f3f3f3f3f
    88da:	3f3f3f3f 3f3f3f3f 	.insn	8, 0x3f3f3f3f3f3f3f3f
    88e2:	3f3f3f3f 3f3f3f3f 	.insn	8, 0x3f3f3f3f3f3f3f3f
    88ea:	3f3f3f3f 3f3f3f3f 	.insn	8, 0x3f3f3f3f3f3f3f3f
    88f2:	3f3f3f3f 3f3f3f3f 	.insn	8, 0x3f3f3f3f3f3f3f3f
    88fa:	3f3f3f3f 3f3f3f3f 	.insn	8, 0x3f3f3f3f3f3f3f3f
    8902:	3f3f3f3f 3f3f3f3f 	.insn	8, 0x3f3f3f3f3f3f3f3f
    890a:	3f3f3f3f 3f3f3f3f 	.insn	8, 0x3f3f3f3f3f3f3f3f
    8912:	3f3f3f3f 3f3f3f3f 	.insn	8, 0x3f3f3f3f3f3f3f3f
    891a:	3f3f3f3f 3f3f3f3f 	.insn	8, 0x3f3f3f3f3f3f3f3f
    8922:	3f3f3f3f 3f3f3f3f 	.insn	8, 0x3f3f3f3f3f3f3f3f
    892a:	3f3f3f3f 3f3f3f3f 	.insn	8, 0x3f3f3f3f3f3f3f3f
    8932:	3f3f3f3f 3f3f3f3f 	.insn	8, 0x3f3f3f3f3f3f3f3f
    893a:	3f3f3f3f 3f3f3f3f 	.insn	8, 0x3f3f3f3f3f3f3f3f
    8942:	3f3f3f3f 3f3f3f3f 	.insn	8, 0x3f3f3f3f3f3f3f3f
    894a:	3f3f3f3f 3f3f3f3f 	.insn	8, 0x3f3f3f3f3f3f3f3f
    8952:	3f3f3f3f 3f3f3f3f 	.insn	8, 0x3f3f3f3f3f3f3f3f
    895a:	3f3f3f3f 3f3f3f3f 	.insn	8, 0x3f3f3f3f3f3f3f3f
    8962:	3f3f3f3f 3f3f3f3f 	.insn	8, 0x3f3f3f3f3f3f3f3f
    896a:	3f3f3f3f 3f3f3f3f 	.insn	8, 0x3f3f3f3f3f3f3f3f
    8972:	3f3f3f3f 3f3f3f3f 	.insn	8, 0x3f3f3f3f3f3f3f3f
    897a:	3f3f3f3f 3f3f3f3f 	.insn	8, 0x3f3f3f3f3f3f3f3f
    8982:	3f3f3f3f 3f3f3f3f 	.insn	8, 0x3f3f3f3f3f3f3f3f
    898a:	3f3f3f3f 3f3f3f3f 	.insn	8, 0x3f3f3f3f3f3f3f3f
    8992:	3f3f3f3f 3f3f3f3f 	.insn	8, 0x3f3f3f3f3f3f3f3f
    899a:	3f3f3f3f 3f3f3f3f 	.insn	8, 0x3f3f3f3f3f3f3f3f
    89a2:	3f3f3f3f 3f3f3f3f 	.insn	8, 0x3f3f3f3f3f3f3f3f
    89aa:	3f3f3f3f 3f3f3f3f 	.insn	8, 0x3f3f3f3f3f3f3f3f
    89b2:	3f3f3f3f 3f3f3f3f 	.insn	8, 0x3f3f3f3f3f3f3f3f
    89ba:	3f3f3f3f 3f3f3f3f 	.insn	8, 0x3f3f3f3f3f3f3f3f
    89c2:	3f3f3f3f 3f3f3f3f 	.insn	8, 0x3f3f3f3f3f3f3f3f
    89ca:	3f3f3f3f 3f3f3f3f 	.insn	8, 0x3f3f3f3f3f3f3f3f
    89d2:	3f3f3f3f 3f3f3f3f 	.insn	8, 0x3f3f3f3f3f3f3f3f
    89da:	3f3f3f3f 3f3f3f3f 	.insn	8, 0x3f3f3f3f3f3f3f3f
    89e2:	3f3f3f3f 3f3f3f3f 	.insn	8, 0x3f3f3f3f3f3f3f3f
    89ea:	3f3f3f3f 3f3f3f3f 	.insn	8, 0x3f3f3f3f3f3f3f3f
    89f2:	3f3f3f3f 3f3f3f3f 	.insn	8, 0x3f3f3f3f3f3f3f3f
    89fa:	3f3f3f3f 3f3f3f3f 	.insn	8, 0x3f3f3f3f3f3f3f3f
    8a02:	3f3f3f3f 3f3f3f3f 	.insn	8, 0x3f3f3f3f3f3f3f3f
    8a0a:	3f3f3f3f 3f3f3f3f 	.insn	8, 0x3f3f3f3f3f3f3f3f
    8a12:	3f3f3f3f 3f3f3f3f 	.insn	8, 0x3f3f3f3f3f3f3f3f
    8a1a:	3f3f3f3f 3f3f3f3f 	.insn	8, 0x3f3f3f3f3f3f3f3f
    8a22:	3f3f3f3f 3f3f3f3f 	.insn	8, 0x3f3f3f3f3f3f3f3f
    8a2a:	3f3f3f3f 3f3f3f3f 	.insn	8, 0x3f3f3f3f3f3f3f3f
    8a32:	3f3f3f3f 3f3f3f3f 	.insn	8, 0x3f3f3f3f3f3f3f3f
    8a3a:	3f3f3f3f 3f3f3f3f 	.insn	8, 0x3f3f3f3f3f3f3f3f
    8a42:	3f3f3f3f 3f3f3f3f 	.insn	8, 0x3f3f3f3f3f3f3f3f
    8a4a:	3f3f3f3f 3f3f3f3f 	.insn	8, 0x3f3f3f3f3f3f3f3f
    8a52:	3f3f3f3f 3f3f3f3f 	.insn	8, 0x3f3f3f3f3f3f3f3f
    8a5a:	3f3f3f3f 3f3f3f3f 	.insn	8, 0x3f3f3f3f3f3f3f3f
    8a62:	3f3f3f3f 3f3f3f3f 	.insn	8, 0x3f3f3f3f3f3f3f3f
    8a6a:	3f3f3f3f 3f3f3f3f 	.insn	8, 0x3f3f3f3f3f3f3f3f
    8a72:	3f3f3f3f 3f3f3f3f 	.insn	8, 0x3f3f3f3f3f3f3f3f
    8a7a:	3f3f3f3f 3f3f3f3f 	.insn	8, 0x3f3f3f3f3f3f3f3f
    8a82:	3f3f3f3f 3f3f3f3f 	.insn	8, 0x3f3f3f3f3f3f3f3f
    8a8a:	3f3f3f3f 3f3f3f3f 	.insn	8, 0x3f3f3f3f3f3f3f3f
    8a92:	3f3f3f3f 3f3f3f3f 	.insn	8, 0x3f3f3f3f3f3f3f3f
    8a9a:	3f3f3f3f 3f3f3f3f 	.insn	8, 0x3f3f3f3f3f3f3f3f
    8aa2:	3f3f3f3f 3f3f3f3f 	.insn	8, 0x3f3f3f3f3f3f3f3f
    8aaa:	3f3f3f3f 3f3f3f3f 	.insn	8, 0x3f3f3f3f3f3f3f3f
    8ab2:	3f3f3f3f 3f3f3f3f 	.insn	8, 0x3f3f3f3f3f3f3f3f
    8aba:	3f3f3f3f 3f3f3f3f 	.insn	8, 0x3f3f3f3f3f3f3f3f
    8ac2:	3f3f3f3f 3f3f3f3f 	.insn	8, 0x3f3f3f3f3f3f3f3f
    8aca:	3f3f3f3f 3f3f3f3f 	.insn	8, 0x3f3f3f3f3f3f3f3f
    8ad2:	3f3f3f3f 3f3f3f3f 	.insn	8, 0x3f3f3f3f3f3f3f3f
    8ada:	3f3f3f3f 3f3f3f3f 	.insn	8, 0x3f3f3f3f3f3f3f3f
    8ae2:	3f3f3f3f 3f3f3f3f 	.insn	8, 0x3f3f3f3f3f3f3f3f
    8aea:	3f3f3f3f 3f3f3f3f 	.insn	8, 0x3f3f3f3f3f3f3f3f
    8af2:	3f3f3f3f 3f3f3f3f 	.insn	8, 0x3f3f3f3f3f3f3f3f
    8afa:	3f3f3f3f 3f3f3f3f 	.insn	8, 0x3f3f3f3f3f3f3f3f
    8b02:	3f3f3f3f 3f3f3f3f 	.insn	8, 0x3f3f3f3f3f3f3f3f
    8b0a:	3f3f3f3f 3f3f3f3f 	.insn	8, 0x3f3f3f3f3f3f3f3f
    8b12:	3f3f3f3f 3f3f3f3f 	.insn	8, 0x3f3f3f3f3f3f3f3f
    8b1a:	3f3f3f3f 3f3f3f3f 	.insn	8, 0x3f3f3f3f3f3f3f3f
    8b22:	3f3f3f3f 3f3f3f3f 	.insn	8, 0x3f3f3f3f3f3f3f3f
    8b2a:	3f3f3f3f 3f3f3f3f 	.insn	8, 0x3f3f3f3f3f3f3f3f
    8b32:	3f3f3f3f 3f3f3f3f 	.insn	8, 0x3f3f3f3f3f3f3f3f
    8b3a:	3f3f3f3f 3f3f3f3f 	.insn	8, 0x3f3f3f3f3f3f3f3f
    8b42:	3f3f3f3f 3f3f3f3f 	.insn	8, 0x3f3f3f3f3f3f3f3f
    8b4a:	3f3f3f3f 3f3f3f3f 	.insn	8, 0x3f3f3f3f3f3f3f3f
    8b52:	3f3f3f3f 3f3f3f3f 	.insn	8, 0x3f3f3f3f3f3f3f3f
    8b5a:	3f3f3f3f 3f3f3f3f 	.insn	8, 0x3f3f3f3f3f3f3f3f
    8b62:	3f3f3f3f 3f3f3f3f 	.insn	8, 0x3f3f3f3f3f3f3f3f
    8b6a:	3f3f3f3f 3f3f3f3f 	.insn	8, 0x3f3f3f3f3f3f3f3f
    8b72:	3f3f3f3f 3f3f3f3f 	.insn	8, 0x3f3f3f3f3f3f3f3f
    8b7a:	3f3f3f3f 3f3f3f3f 	.insn	8, 0x3f3f3f3f3f3f3f3f
    8b82:	3f3f3f3f 3f3f3f3f 	.insn	8, 0x3f3f3f3f3f3f3f3f
    8b8a:	3f3f3f3f 3f3f3f3f 	.insn	8, 0x3f3f3f3f3f3f3f3f
    8b92:	3f3f3f3f 3f3f3f3f 	.insn	8, 0x3f3f3f3f3f3f3f3f
    8b9a:	3f3f3f3f 3f3f3f3f 	.insn	8, 0x3f3f3f3f3f3f3f3f
    8ba2:	3f3f3f3f 3f3f3f3f 	.insn	8, 0x3f3f3f3f3f3f3f3f
    8baa:	3f3f3f3f 3f3f3f3f 	.insn	8, 0x3f3f3f3f3f3f3f3f
    8bb2:	3f3f3f3f 3f3f3f3f 	.insn	8, 0x3f3f3f3f3f3f3f3f
    8bba:	3f3f3f3f 3f3f3f3f 	.insn	8, 0x3f3f3f3f3f3f3f3f
    8bc2:	3f3f3f3f 3f3f3f3f 	.insn	8, 0x3f3f3f3f3f3f3f3f
    8bca:	3f3f3f3f 3f3f3f3f 	.insn	8, 0x3f3f3f3f3f3f3f3f
    8bd2:	3f3f3f3f 3f3f3f3f 	.insn	8, 0x3f3f3f3f3f3f3f3f
    8bda:	3f3f3f3f 3f3f3f3f 	.insn	8, 0x3f3f3f3f3f3f3f3f
    8be2:	3f3f3f3f 3f3f3f3f 	.insn	8, 0x3f3f3f3f3f3f3f3f
    8bea:	3f3f3f3f 3f3f3f3f 	.insn	8, 0x3f3f3f3f3f3f3f3f
    8bf2:	3f3f3f3f 3f3f3f3f 	.insn	8, 0x3f3f3f3f3f3f3f3f
    8bfa:	3f3f3f3f 3f3f3f3f 	.insn	8, 0x3f3f3f3f3f3f3f3f
    8c02:	3f3f3f3f 3f3f3f3f 	.insn	8, 0x3f3f3f3f3f3f3f3f
    8c0a:	3f3f3f3f 3f3f3f3f 	.insn	8, 0x3f3f3f3f3f3f3f3f
    8c12:	3f3f3f3f 3f3f3f3f 	.insn	8, 0x3f3f3f3f3f3f3f3f
    8c1a:	3f3f3f3f 3f3f3f3f 	.insn	8, 0x3f3f3f3f3f3f3f3f
    8c22:	3f3f3f3f 3f3f3f3f 	.insn	8, 0x3f3f3f3f3f3f3f3f
    8c2a:	3f3f3f3f 3f3f3f3f 	.insn	8, 0x3f3f3f3f3f3f3f3f
    8c32:	3f3f3f3f 3f3f3f3f 	.insn	8, 0x3f3f3f3f3f3f3f3f
    8c3a:	3f3f3f3f 3f3f3f3f 	.insn	8, 0x3f3f3f3f3f3f3f3f
    8c42:	3f3f3f3f 3f3f3f3f 	.insn	8, 0x3f3f3f3f3f3f3f3f
    8c4a:	3f3f3f3f 3f3f3f3f 	.insn	8, 0x3f3f3f3f3f3f3f3f
    8c52:	3f3f3f3f 3f3f3f3f 	.insn	8, 0x3f3f3f3f3f3f3f3f
    8c5a:	3f3f3f3f 3f3f3f3f 	.insn	8, 0x3f3f3f3f3f3f3f3f
    8c62:	3f3f3f3f 3f3f3f3f 	.insn	8, 0x3f3f3f3f3f3f3f3f
    8c6a:	3f3f3f3f 3f3f3f3f 	.insn	8, 0x3f3f3f3f3f3f3f3f
    8c72:	3f3f3f3f 3f3f3f3f 	.insn	8, 0x3f3f3f3f3f3f3f3f
    8c7a:	3f3f3f3f 3f3f3f3f 	.insn	8, 0x3f3f3f3f3f3f3f3f
    8c82:	3f3f3f3f 3f3f3f3f 	.insn	8, 0x3f3f3f3f3f3f3f3f
    8c8a:	3f3f3f3f 3f3f3f3f 	.insn	8, 0x3f3f3f3f3f3f3f3f
    8c92:	3f3f3f3f 3f3f3f3f 	.insn	8, 0x3f3f3f3f3f3f3f3f
    8c9a:	3f3f3f3f 3f3f3f3f 	.insn	8, 0x3f3f3f3f3f3f3f3f
    8ca2:	3f3f3f3f 3f3f3f3f 	.insn	8, 0x3f3f3f3f3f3f3f3f
    8caa:	3f3f3f3f 3f3f3f3f 	.insn	8, 0x3f3f3f3f3f3f3f3f
    8cb2:	3f3f3f3f 3f3f3f3f 	.insn	8, 0x3f3f3f3f3f3f3f3f
    8cba:	3f3f3f3f 3f3f3f3f 	.insn	8, 0x3f3f3f3f3f3f3f3f
    8cc2:	3f3f3f3f 3f3f3f3f 	.insn	8, 0x3f3f3f3f3f3f3f3f
    8cca:	3f3f3f3f 3f3f3f3f 	.insn	8, 0x3f3f3f3f3f3f3f3f
    8cd2:	3f3f3f3f 3f3f3f3f 	.insn	8, 0x3f3f3f3f3f3f3f3f
    8cda:	3f3f3f3f 3f3f3f3f 	.insn	8, 0x3f3f3f3f3f3f3f3f
    8ce2:	3f3f3f3f 3f3f3f3f 	.insn	8, 0x3f3f3f3f3f3f3f3f
    8cea:	3f3f3f3f 3f3f3f3f 	.insn	8, 0x3f3f3f3f3f3f3f3f
    8cf2:	3f3f3f3f 3f3f3f3f 	.insn	8, 0x3f3f3f3f3f3f3f3f
    8cfa:	3f3f3f3f 3f3f3f3f 	.insn	8, 0x3f3f3f3f3f3f3f3f
    8d02:	3f3f3f3f 3f3f3f3f 	.insn	8, 0x3f3f3f3f3f3f3f3f
    8d0a:	3f3f3f3f 3f3f3f3f 	.insn	8, 0x3f3f3f3f3f3f3f3f
    8d12:	3f3f3f3f 3f3f3f3f 	.insn	8, 0x3f3f3f3f3f3f3f3f
    8d1a:	3f3f3f3f 3f3f3f3f 	.insn	8, 0x3f3f3f3f3f3f3f3f
    8d22:	3f3f3f3f 3f3f3f3f 	.insn	8, 0x3f3f3f3f3f3f3f3f
    8d2a:	3f3f3f3f 3f3f3f3f 	.insn	8, 0x3f3f3f3f3f3f3f3f
    8d32:	3f3f3f3f 3f3f3f3f 	.insn	8, 0x3f3f3f3f3f3f3f3f
    8d3a:	3f3f3f3f 3f3f3f3f 	.insn	8, 0x3f3f3f3f3f3f3f3f
    8d42:	3f3f3f3f 3f3f3f3f 	.insn	8, 0x3f3f3f3f3f3f3f3f
    8d4a:	3f3f3f3f 3f3f3f3f 	.insn	8, 0x3f3f3f3f3f3f3f3f
    8d52:	3f3f3f3f 3f3f3f3f 	.insn	8, 0x3f3f3f3f3f3f3f3f
    8d5a:	3f3f3f3f 3f3f3f3f 	.insn	8, 0x3f3f3f3f3f3f3f3f
    8d62:	3f3f3f3f 3f3f3f3f 	.insn	8, 0x3f3f3f3f3f3f3f3f
    8d6a:	3f3f3f3f 3f3f3f3f 	.insn	8, 0x3f3f3f3f3f3f3f3f
    8d72:	3f3f3f3f 3f3f3f3f 	.insn	8, 0x3f3f3f3f3f3f3f3f
    8d7a:	3f3f3f3f 3f3f3f3f 	.insn	8, 0x3f3f3f3f3f3f3f3f
    8d82:	3f3f3f3f 3f3f3f3f 	.insn	8, 0x3f3f3f3f3f3f3f3f
    8d8a:	3f3f3f3f 3f3f3f3f 	.insn	8, 0x3f3f3f3f3f3f3f3f
    8d92:	3f3f3f3f 3f3f3f3f 	.insn	8, 0x3f3f3f3f3f3f3f3f
    8d9a:	3f3f3f3f 3f3f3f3f 	.insn	8, 0x3f3f3f3f3f3f3f3f
    8da2:	3f3f3f3f 3f3f3f3f 	.insn	8, 0x3f3f3f3f3f3f3f3f
    8daa:	3f3f3f3f 3f3f3f3f 	.insn	8, 0x3f3f3f3f3f3f3f3f
    8db2:	3f3f3f3f 3f3f3f3f 	.insn	8, 0x3f3f3f3f3f3f3f3f
    8dba:	3f3f3f3f 3f3f3f3f 	.insn	8, 0x3f3f3f3f3f3f3f3f
    8dc2:	3f3f3f3f 3f3f3f3f 	.insn	8, 0x3f3f3f3f3f3f3f3f
    8dca:	3f3f3f3f 3f3f3f3f 	.insn	8, 0x3f3f3f3f3f3f3f3f
    8dd2:	3f3f3f3f 3f3f3f3f 	.insn	8, 0x3f3f3f3f3f3f3f3f
    8dda:	3f3f3f3f 3f3f3f3f 	.insn	8, 0x3f3f3f3f3f3f3f3f
    8de2:	3f3f3f3f 3f3f3f3f 	.insn	8, 0x3f3f3f3f3f3f3f3f
    8dea:	3f3f3f3f 3f3f3f3f 	.insn	8, 0x3f3f3f3f3f3f3f3f
    8df2:	3f3f3f3f 3f3f3f3f 	.insn	8, 0x3f3f3f3f3f3f3f3f
    8dfa:	3f3f3f3f 3f3f3f3f 	.insn	8, 0x3f3f3f3f3f3f3f3f
    8e02:	3f3f3f3f 3f3f3f3f 	.insn	8, 0x3f3f3f3f3f3f3f3f
    8e0a:	3f3f3f3f 3f3f3f3f 	.insn	8, 0x3f3f3f3f3f3f3f3f
    8e12:	3f3f3f3f 3f3f3f3f 	.insn	8, 0x3f3f3f3f3f3f3f3f
    8e1a:	3f3f3f3f 3f3f3f3f 	.insn	8, 0x3f3f3f3f3f3f3f3f
    8e22:	3f3f3f3f 3f3f3f3f 	.insn	8, 0x3f3f3f3f3f3f3f3f
    8e2a:	3f3f3f3f 3f3f3f3f 	.insn	8, 0x3f3f3f3f3f3f3f3f
    8e32:	3f3f3f3f 3f3f3f3f 	.insn	8, 0x3f3f3f3f3f3f3f3f
    8e3a:	3f3f3f3f 3f3f3f3f 	.insn	8, 0x3f3f3f3f3f3f3f3f
    8e42:	3f3f3f3f 3f3f3f3f 	.insn	8, 0x3f3f3f3f3f3f3f3f
    8e4a:	3f3f3f3f 3f3f3f3f 	.insn	8, 0x3f3f3f3f3f3f3f3f
    8e52:	3f3f3f3f 3f3f3f3f 	.insn	8, 0x3f3f3f3f3f3f3f3f
    8e5a:	3f3f3f3f 3f3f3f3f 	.insn	8, 0x3f3f3f3f3f3f3f3f
    8e62:	3f3f3f3f 3f3f3f3f 	.insn	8, 0x3f3f3f3f3f3f3f3f
    8e6a:	3f3f3f3f 3f3f3f3f 	.insn	8, 0x3f3f3f3f3f3f3f3f
    8e72:	3f3f3f3f 3f3f3f3f 	.insn	8, 0x3f3f3f3f3f3f3f3f
    8e7a:	3f3f3f3f 3f3f3f3f 	.insn	8, 0x3f3f3f3f3f3f3f3f
    8e82:	3f3f3f3f 3f3f3f3f 	.insn	8, 0x3f3f3f3f3f3f3f3f
    8e8a:	3f3f3f3f 3f3f3f3f 	.insn	8, 0x3f3f3f3f3f3f3f3f
    8e92:	3f3f3f3f 3f3f3f3f 	.insn	8, 0x3f3f3f3f3f3f3f3f
    8e9a:	3f3f3f3f 3f3f3f3f 	.insn	8, 0x3f3f3f3f3f3f3f3f
    8ea2:	3f3f3f3f 3f3f3f3f 	.insn	8, 0x3f3f3f3f3f3f3f3f
    8eaa:	3f3f3f3f 3f3f3f3f 	.insn	8, 0x3f3f3f3f3f3f3f3f
    8eb2:	3f3f3f3f 3f3f3f3f 	.insn	8, 0x3f3f3f3f3f3f3f3f
    8eba:	3f3f3f3f 3f3f3f3f 	.insn	8, 0x3f3f3f3f3f3f3f3f
    8ec2:	3f3f3f3f 3f3f3f3f 	.insn	8, 0x3f3f3f3f3f3f3f3f
    8eca:	3f3f3f3f 3f3f3f3f 	.insn	8, 0x3f3f3f3f3f3f3f3f
    8ed2:	3f3f3f3f 3f3f3f3f 	.insn	8, 0x3f3f3f3f3f3f3f3f
    8eda:	3f3f3f3f 3f3f3f3f 	.insn	8, 0x3f3f3f3f3f3f3f3f
    8ee2:	3f3f3f3f 3f3f3f3f 	.insn	8, 0x3f3f3f3f3f3f3f3f
    8eea:	3f3f3f3f 3f3f3f3f 	.insn	8, 0x3f3f3f3f3f3f3f3f
    8ef2:	3f3f3f3f 3f3f3f3f 	.insn	8, 0x3f3f3f3f3f3f3f3f
    8efa:	3f3f3f3f 3f3f3f3f 	.insn	8, 0x3f3f3f3f3f3f3f3f
    8f02:	3f3f3f3f 3f3f3f3f 	.insn	8, 0x3f3f3f3f3f3f3f3f
    8f0a:	3f3f3f3f 3f3f3f3f 	.insn	8, 0x3f3f3f3f3f3f3f3f
    8f12:	3f3f3f3f 3f3f3f3f 	.insn	8, 0x3f3f3f3f3f3f3f3f
    8f1a:	3f3f3f3f 3f3f3f3f 	.insn	8, 0x3f3f3f3f3f3f3f3f
    8f22:	3f3f3f3f 3f3f3f3f 	.insn	8, 0x3f3f3f3f3f3f3f3f
    8f2a:	3f3f3f3f 3f3f3f3f 	.insn	8, 0x3f3f3f3f3f3f3f3f
    8f32:	3f3f3f3f 3f3f3f3f 	.insn	8, 0x3f3f3f3f3f3f3f3f
    8f3a:	3f3f3f3f 3f3f3f3f 	.insn	8, 0x3f3f3f3f3f3f3f3f
    8f42:	3f3f3f3f 3f3f3f3f 	.insn	8, 0x3f3f3f3f3f3f3f3f
    8f4a:	3f3f3f3f 3f3f3f3f 	.insn	8, 0x3f3f3f3f3f3f3f3f
    8f52:	3f3f3f3f 3f3f3f3f 	.insn	8, 0x3f3f3f3f3f3f3f3f
    8f5a:	3f3f3f3f 3f3f3f3f 	.insn	8, 0x3f3f3f3f3f3f3f3f
    8f62:	3f3f3f3f 3f3f3f3f 	.insn	8, 0x3f3f3f3f3f3f3f3f
    8f6a:	3f3f3f3f 3f3f3f3f 	.insn	8, 0x3f3f3f3f3f3f3f3f
    8f72:	3f3f3f3f 3f3f3f3f 	.insn	8, 0x3f3f3f3f3f3f3f3f
    8f7a:	3f3f3f3f 3f3f3f3f 	.insn	8, 0x3f3f3f3f3f3f3f3f
    8f82:	3f3f3f3f 3f3f3f3f 	.insn	8, 0x3f3f3f3f3f3f3f3f
    8f8a:	3f3f3f3f 3f3f3f3f 	.insn	8, 0x3f3f3f3f3f3f3f3f
    8f92:	3f3f3f3f 3f3f3f3f 	.insn	8, 0x3f3f3f3f3f3f3f3f
    8f9a:	3f3f3f3f 3f3f3f3f 	.insn	8, 0x3f3f3f3f3f3f3f3f
    8fa2:	3f3f3f3f 3f3f3f3f 	.insn	8, 0x3f3f3f3f3f3f3f3f
    8faa:	3f3f3f3f 3f3f3f3f 	.insn	8, 0x3f3f3f3f3f3f3f3f
    8fb2:	3f3f3f3f 3f3f3f3f 	.insn	8, 0x3f3f3f3f3f3f3f3f
    8fba:	3f3f3f3f 3f3f3f3f 	.insn	8, 0x3f3f3f3f3f3f3f3f
    8fc2:	3f3f3f3f 3f3f3f3f 	.insn	8, 0x3f3f3f3f3f3f3f3f
    8fca:	3f3f3f3f 3f3f3f3f 	.insn	8, 0x3f3f3f3f3f3f3f3f
    8fd2:	3f3f3f3f 3f3f3f3f 	.insn	8, 0x3f3f3f3f3f3f3f3f
    8fda:	3f3f3f3f 3f3f3f3f 	.insn	8, 0x3f3f3f3f3f3f3f3f
    8fe2:	3f3f3f3f 3f3f3f3f 	.insn	8, 0x3f3f3f3f3f3f3f3f
    8fea:	3f3f3f3f 3f3f3f3f 	.insn	8, 0x3f3f3f3f3f3f3f3f
    8ff2:	3f3f3f3f 3f3f3f3f 	.insn	8, 0x3f3f3f3f3f3f3f3f
    8ffa:	3f3f3f3f 3f3f3f3f 	.insn	8, 0x3f3f3f3f3f3f3f3f
    9002:	3f3f3f3f 3f3f3f3f 	.insn	8, 0x3f3f3f3f3f3f3f3f
    900a:	3f3f3f3f 3f3f3f3f 	.insn	8, 0x3f3f3f3f3f3f3f3f
    9012:	3f3f3f3f 3f3f3f3f 	.insn	8, 0x3f3f3f3f3f3f3f3f
    901a:	3f3f3f3f 3f3f3f3f 	.insn	8, 0x3f3f3f3f3f3f3f3f
    9022:	3f3f3f3f 3f3f3f3f 	.insn	8, 0x3f3f3f3f3f3f3f3f
    902a:	3f3f3f3f 3f3f3f3f 	.insn	8, 0x3f3f3f3f3f3f3f3f
    9032:	3f3f3f3f 3f3f3f3f 	.insn	8, 0x3f3f3f3f3f3f3f3f
    903a:	3f3f3f3f 3f3f3f3f 	.insn	8, 0x3f3f3f3f3f3f3f3f
    9042:	3f3f3f3f 3f3f3f3f 	.insn	8, 0x3f3f3f3f3f3f3f3f
    904a:	3f3f3f3f 3f3f3f3f 	.insn	8, 0x3f3f3f3f3f3f3f3f
    9052:	3f3f3f3f 3f3f3f3f 	.insn	8, 0x3f3f3f3f3f3f3f3f
    905a:	3f3f3f3f 3f3f3f3f 	.insn	8, 0x3f3f3f3f3f3f3f3f
    9062:	3f3f3f3f 3f3f3f3f 	.insn	8, 0x3f3f3f3f3f3f3f3f
    906a:	3f3f3f3f 3f3f3f3f 	.insn	8, 0x3f3f3f3f3f3f3f3f
    9072:	3f3f3f3f 3f3f3f3f 	.insn	8, 0x3f3f3f3f3f3f3f3f
    907a:	3f3f3f3f 3f3f3f3f 	.insn	8, 0x3f3f3f3f3f3f3f3f
    9082:	3f3f3f3f 3f3f3f3f 	.insn	8, 0x3f3f3f3f3f3f3f3f
    908a:	3f3f3f3f 3f3f3f3f 	.insn	8, 0x3f3f3f3f3f3f3f3f
    9092:	3f3f3f3f 3f3f3f3f 	.insn	8, 0x3f3f3f3f3f3f3f3f
    909a:	3f3f3f3f 3f3f3f3f 	.insn	8, 0x3f3f3f3f3f3f3f3f
    90a2:	3f3f3f3f 3f3f3f3f 	.insn	8, 0x3f3f3f3f3f3f3f3f
    90aa:	3f3f3f3f 3f3f3f3f 	.insn	8, 0x3f3f3f3f3f3f3f3f
    90b2:	3f3f3f3f 3f3f3f3f 	.insn	8, 0x3f3f3f3f3f3f3f3f
    90ba:	3f3f3f3f 3f3f3f3f 	.insn	8, 0x3f3f3f3f3f3f3f3f
    90c2:	3f3f3f3f 3f3f3f3f 	.insn	8, 0x3f3f3f3f3f3f3f3f
    90ca:	3f3f3f3f 3f3f3f3f 	.insn	8, 0x3f3f3f3f3f3f3f3f
    90d2:	3f3f3f3f 3f3f3f3f 	.insn	8, 0x3f3f3f3f3f3f3f3f
    90da:	3f3f3f3f 3f3f3f3f 	.insn	8, 0x3f3f3f3f3f3f3f3f
    90e2:	3f3f3f3f 3f3f3f3f 	.insn	8, 0x3f3f3f3f3f3f3f3f
    90ea:	3f3f3f3f 3f3f3f3f 	.insn	8, 0x3f3f3f3f3f3f3f3f
    90f2:	3f3f3f3f 3f3f3f3f 	.insn	8, 0x3f3f3f3f3f3f3f3f
    90fa:	3f3f3f3f 3f3f3f3f 	.insn	8, 0x3f3f3f3f3f3f3f3f
    9102:	3f3f3f3f 3f3f3f3f 	.insn	8, 0x3f3f3f3f3f3f3f3f
    910a:	3f3f3f3f 3f3f3f3f 	.insn	8, 0x3f3f3f3f3f3f3f3f
    9112:	3f3f3f3f 3f3f3f3f 	.insn	8, 0x3f3f3f3f3f3f3f3f
    911a:	3f3f3f3f 3f3f3f3f 	.insn	8, 0x3f3f3f3f3f3f3f3f
    9122:	3f3f3f3f 3f3f3f3f 	.insn	8, 0x3f3f3f3f3f3f3f3f
    912a:	3f3f3f3f 3f3f3f3f 	.insn	8, 0x3f3f3f3f3f3f3f3f
    9132:	3f3f3f3f 3f3f3f3f 	.insn	8, 0x3f3f3f3f3f3f3f3f
    913a:	3f3f3f3f 3f3f3f3f 	.insn	8, 0x3f3f3f3f3f3f3f3f
    9142:	3f3f3f3f 3f3f3f3f 	.insn	8, 0x3f3f3f3f3f3f3f3f
    914a:	3f3f3f3f 3f3f3f3f 	.insn	8, 0x3f3f3f3f3f3f3f3f
    9152:	3f3f3f3f 3f3f3f3f 	.insn	8, 0x3f3f3f3f3f3f3f3f
    915a:	3f3f3f3f 3f3f3f3f 	.insn	8, 0x3f3f3f3f3f3f3f3f
    9162:	3f3f3f3f 3f3f3f3f 	.insn	8, 0x3f3f3f3f3f3f3f3f
    916a:	3f3f3f3f 3f3f3f3f 	.insn	8, 0x3f3f3f3f3f3f3f3f
    9172:	3f3f3f3f 3f3f3f3f 	.insn	8, 0x3f3f3f3f3f3f3f3f
    917a:	3f3f3f3f 3f3f3f3f 	.insn	8, 0x3f3f3f3f3f3f3f3f
    9182:	3f3f3f3f 3f3f3f3f 	.insn	8, 0x3f3f3f3f3f3f3f3f
    918a:	3f3f3f3f 3f3f3f3f 	.insn	8, 0x3f3f3f3f3f3f3f3f
    9192:	3f3f3f3f 3f3f3f3f 	.insn	8, 0x3f3f3f3f3f3f3f3f
    919a:	3f3f3f3f 3f3f3f3f 	.insn	8, 0x3f3f3f3f3f3f3f3f
    91a2:	3f3f3f3f 3f3f3f3f 	.insn	8, 0x3f3f3f3f3f3f3f3f
    91aa:	3f3f3f3f 3f3f3f3f 	.insn	8, 0x3f3f3f3f3f3f3f3f
    91b2:	3f3f3f3f 3f3f3f3f 	.insn	8, 0x3f3f3f3f3f3f3f3f
    91ba:	3f3f3f3f 3f3f3f3f 	.insn	8, 0x3f3f3f3f3f3f3f3f
    91c2:	3f3f3f3f 3f3f3f3f 	.insn	8, 0x3f3f3f3f3f3f3f3f
    91ca:	3f3f3f3f 3f3f3f3f 	.insn	8, 0x3f3f3f3f3f3f3f3f
    91d2:	3f3f3f3f 3f3f3f3f 	.insn	8, 0x3f3f3f3f3f3f3f3f
    91da:	3f3f3f3f 3f3f3f3f 	.insn	8, 0x3f3f3f3f3f3f3f3f
    91e2:	3f3f3f3f 3f3f3f3f 	.insn	8, 0x3f3f3f3f3f3f3f3f
    91ea:	3f3f3f3f 3f3f3f3f 	.insn	8, 0x3f3f3f3f3f3f3f3f
    91f2:	3f3f3f3f 3f3f3f3f 	.insn	8, 0x3f3f3f3f3f3f3f3f
    91fa:	3f3f3f3f 3f3f3f3f 	.insn	8, 0x3f3f3f3f3f3f3f3f
    9202:	3f3f3f3f 3f3f3f3f 	.insn	8, 0x3f3f3f3f3f3f3f3f
    920a:	3f3f3f3f 3f3f3f3f 	.insn	8, 0x3f3f3f3f3f3f3f3f
    9212:	3f3f3f3f 3f3f3f3f 	.insn	8, 0x3f3f3f3f3f3f3f3f
    921a:	3f3f3f3f 3f3f3f3f 	.insn	8, 0x3f3f3f3f3f3f3f3f
    9222:	3f3f3f3f 3f3f3f3f 	.insn	8, 0x3f3f3f3f3f3f3f3f
    922a:	3f3f3f3f 3f3f3f3f 	.insn	8, 0x3f3f3f3f3f3f3f3f
    9232:	3f3f3f3f 3f3f3f3f 	.insn	8, 0x3f3f3f3f3f3f3f3f
    923a:	3f3f3f3f 3f3f3f3f 	.insn	8, 0x3f3f3f3f3f3f3f3f
    9242:	3f3f3f3f 3f3f3f3f 	.insn	8, 0x3f3f3f3f3f3f3f3f
    924a:	3f3f3f3f 3f3f3f3f 	.insn	8, 0x3f3f3f3f3f3f3f3f
    9252:	3f3f3f3f 3f3f3f3f 	.insn	8, 0x3f3f3f3f3f3f3f3f
    925a:	3f3f3f3f 3f3f3f3f 	.insn	8, 0x3f3f3f3f3f3f3f3f
    9262:	3f3f3f3f 3f3f3f3f 	.insn	8, 0x3f3f3f3f3f3f3f3f
    926a:	3f3f3f3f 3f3f3f3f 	.insn	8, 0x3f3f3f3f3f3f3f3f
    9272:	3f3f3f3f 3f3f3f3f 	.insn	8, 0x3f3f3f3f3f3f3f3f
    927a:	3f3f3f3f 3f3f3f3f 	.insn	8, 0x3f3f3f3f3f3f3f3f
    9282:	3f3f3f3f 3f3f3f3f 	.insn	8, 0x3f3f3f3f3f3f3f3f
    928a:	3f3f3f3f 3f3f3f3f 	.insn	8, 0x3f3f3f3f3f3f3f3f
    9292:	3f3f3f3f 3f3f3f3f 	.insn	8, 0x3f3f3f3f3f3f3f3f
    929a:	3f3f3f3f 3f3f3f3f 	.insn	8, 0x3f3f3f3f3f3f3f3f
    92a2:	3f3f3f3f 3f3f3f3f 	.insn	8, 0x3f3f3f3f3f3f3f3f
    92aa:	3f3f3f3f 3f3f3f3f 	.insn	8, 0x3f3f3f3f3f3f3f3f
    92b2:	3f3f3f3f 3f3f3f3f 	.insn	8, 0x3f3f3f3f3f3f3f3f
    92ba:	3f3f3f3f 3f3f3f3f 	.insn	8, 0x3f3f3f3f3f3f3f3f
    92c2:	3f3f3f3f 3f3f3f3f 	.insn	8, 0x3f3f3f3f3f3f3f3f
    92ca:	3f3f3f3f 3f3f3f3f 	.insn	8, 0x3f3f3f3f3f3f3f3f
    92d2:	3f3f3f3f 3f3f3f3f 	.insn	8, 0x3f3f3f3f3f3f3f3f
    92da:	3f3f3f3f 3f3f3f3f 	.insn	8, 0x3f3f3f3f3f3f3f3f
    92e2:	3f3f3f3f 3f3f3f3f 	.insn	8, 0x3f3f3f3f3f3f3f3f
    92ea:	3f3f3f3f 3f3f3f3f 	.insn	8, 0x3f3f3f3f3f3f3f3f
    92f2:	3f3f3f3f 3f3f3f3f 	.insn	8, 0x3f3f3f3f3f3f3f3f
    92fa:	3f3f3f3f 3f3f3f3f 	.insn	8, 0x3f3f3f3f3f3f3f3f
    9302:	3f3f3f3f 3f3f3f3f 	.insn	8, 0x3f3f3f3f3f3f3f3f
    930a:	3f3f3f3f 3f3f3f3f 	.insn	8, 0x3f3f3f3f3f3f3f3f
    9312:	3f3f3f3f 3f3f3f3f 	.insn	8, 0x3f3f3f3f3f3f3f3f
    931a:	3f3f3f3f 3f3f3f3f 	.insn	8, 0x3f3f3f3f3f3f3f3f
    9322:	3f3f3f3f 3f3f3f3f 	.insn	8, 0x3f3f3f3f3f3f3f3f
    932a:	3f3f3f3f 3f3f3f3f 	.insn	8, 0x3f3f3f3f3f3f3f3f
    9332:	3f3f3f3f 3f3f3f3f 	.insn	8, 0x3f3f3f3f3f3f3f3f
    933a:	3f3f3f3f 3f3f3f3f 	.insn	8, 0x3f3f3f3f3f3f3f3f
    9342:	3f3f3f3f 3f3f3f3f 	.insn	8, 0x3f3f3f3f3f3f3f3f
    934a:	3f3f3f3f 3f3f3f3f 	.insn	8, 0x3f3f3f3f3f3f3f3f
    9352:	3f3f3f3f 3f3f3f3f 	.insn	8, 0x3f3f3f3f3f3f3f3f
    935a:	3f3f3f3f 3f3f3f3f 	.insn	8, 0x3f3f3f3f3f3f3f3f
    9362:	3f3f3f3f 3f3f3f3f 	.insn	8, 0x3f3f3f3f3f3f3f3f
    936a:	3f3f3f3f 3f3f3f3f 	.insn	8, 0x3f3f3f3f3f3f3f3f
    9372:	3f3f3f3f 3f3f3f3f 	.insn	8, 0x3f3f3f3f3f3f3f3f
    937a:	3f3f3f3f 3f3f3f3f 	.insn	8, 0x3f3f3f3f3f3f3f3f
    9382:	3f3f3f3f 3f3f3f3f 	.insn	8, 0x3f3f3f3f3f3f3f3f
    938a:	3f3f3f3f 3f3f3f3f 	.insn	8, 0x3f3f3f3f3f3f3f3f
    9392:	3f3f3f3f 3f3f3f3f 	.insn	8, 0x3f3f3f3f3f3f3f3f
    939a:	3f3f3f3f 3f3f3f3f 	.insn	8, 0x3f3f3f3f3f3f3f3f
    93a2:	3f3f3f3f 3f3f3f3f 	.insn	8, 0x3f3f3f3f3f3f3f3f
    93aa:	3f3f3f3f 3f3f3f3f 	.insn	8, 0x3f3f3f3f3f3f3f3f
    93b2:	3f3f3f3f 3f3f3f3f 	.insn	8, 0x3f3f3f3f3f3f3f3f
    93ba:	3f3f3f3f 3f3f3f3f 	.insn	8, 0x3f3f3f3f3f3f3f3f
    93c2:	3f3f3f3f 3f3f3f3f 	.insn	8, 0x3f3f3f3f3f3f3f3f
    93ca:	3f3f3f3f 3f3f3f3f 	.insn	8, 0x3f3f3f3f3f3f3f3f
    93d2:	3f3f3f3f 3f3f3f3f 	.insn	8, 0x3f3f3f3f3f3f3f3f
    93da:	3f3f3f3f 3f3f3f3f 	.insn	8, 0x3f3f3f3f3f3f3f3f
    93e2:	3f3f3f3f 3f3f3f3f 	.insn	8, 0x3f3f3f3f3f3f3f3f
    93ea:	3f3f3f3f 3f3f3f3f 	.insn	8, 0x3f3f3f3f3f3f3f3f
    93f2:	3f3f3f3f 3f3f3f3f 	.insn	8, 0x3f3f3f3f3f3f3f3f
    93fa:	3f3f3f3f 3f3f3f3f 	.insn	8, 0x3f3f3f3f3f3f3f3f
    9402:	3f3f3f3f 3f3f3f3f 	.insn	8, 0x3f3f3f3f3f3f3f3f
    940a:	3f3f3f3f 3f3f3f3f 	.insn	8, 0x3f3f3f3f3f3f3f3f
    9412:	3f3f3f3f 3f3f3f3f 	.insn	8, 0x3f3f3f3f3f3f3f3f
    941a:	3f3f3f3f 3f3f3f3f 	.insn	8, 0x3f3f3f3f3f3f3f3f
    9422:	3f3f3f3f 3f3f3f3f 	.insn	8, 0x3f3f3f3f3f3f3f3f
    942a:	3f3f3f3f 3f3f3f3f 	.insn	8, 0x3f3f3f3f3f3f3f3f
    9432:	3f3f3f3f 3f3f3f3f 	.insn	8, 0x3f3f3f3f3f3f3f3f
    943a:	3f3f3f3f 3f3f3f3f 	.insn	8, 0x3f3f3f3f3f3f3f3f
    9442:	3f3f3f3f 3f3f3f3f 	.insn	8, 0x3f3f3f3f3f3f3f3f
    944a:	3f3f3f3f 3f3f3f3f 	.insn	8, 0x3f3f3f3f3f3f3f3f
    9452:	3f3f3f3f 3f3f3f3f 	.insn	8, 0x3f3f3f3f3f3f3f3f
    945a:	3f3f3f3f 3f3f3f3f 	.insn	8, 0x3f3f3f3f3f3f3f3f
    9462:	3f3f3f3f 3f3f3f3f 	.insn	8, 0x3f3f3f3f3f3f3f3f
    946a:	3f3f3f3f 3f3f3f3f 	.insn	8, 0x3f3f3f3f3f3f3f3f
    9472:	3f3f3f3f 3f3f3f3f 	.insn	8, 0x3f3f3f3f3f3f3f3f
    947a:	3f3f3f3f 3f3f3f3f 	.insn	8, 0x3f3f3f3f3f3f3f3f
    9482:	3f3f3f3f 3f3f3f3f 	.insn	8, 0x3f3f3f3f3f3f3f3f
    948a:	3f3f3f3f 3f3f3f3f 	.insn	8, 0x3f3f3f3f3f3f3f3f
    9492:	3f3f3f3f 3f3f3f3f 	.insn	8, 0x3f3f3f3f3f3f3f3f
    949a:	3f3f3f3f 3f3f3f3f 	.insn	8, 0x3f3f3f3f3f3f3f3f
    94a2:	3f3f3f3f 3f3f3f3f 	.insn	8, 0x3f3f3f3f3f3f3f3f
    94aa:	3f3f3f3f 3f3f3f3f 	.insn	8, 0x3f3f3f3f3f3f3f3f
    94b2:	3f3f3f3f 3f3f3f3f 	.insn	8, 0x3f3f3f3f3f3f3f3f
    94ba:	3f3f3f3f 3f3f3f3f 	.insn	8, 0x3f3f3f3f3f3f3f3f
    94c2:	3f3f3f3f 3f3f3f3f 	.insn	8, 0x3f3f3f3f3f3f3f3f
    94ca:	3f3f3f3f 3f3f3f3f 	.insn	8, 0x3f3f3f3f3f3f3f3f
    94d2:	3f3f3f3f 3f3f3f3f 	.insn	8, 0x3f3f3f3f3f3f3f3f
    94da:	3f3f3f3f 3f3f3f3f 	.insn	8, 0x3f3f3f3f3f3f3f3f
    94e2:	3f3f3f3f 3f3f3f3f 	.insn	8, 0x3f3f3f3f3f3f3f3f
    94ea:	3f3f3f3f 3f3f3f3f 	.insn	8, 0x3f3f3f3f3f3f3f3f
    94f2:	3f3f3f3f 3f3f3f3f 	.insn	8, 0x3f3f3f3f3f3f3f3f
    94fa:	3f3f3f3f 3f3f3f3f 	.insn	8, 0x3f3f3f3f3f3f3f3f
    9502:	3f3f3f3f 3f3f3f3f 	.insn	8, 0x3f3f3f3f3f3f3f3f
    950a:	3f3f3f3f 3f3f3f3f 	.insn	8, 0x3f3f3f3f3f3f3f3f
    9512:	3f3f3f3f 3f3f3f3f 	.insn	8, 0x3f3f3f3f3f3f3f3f
    951a:	3f3f3f3f 3f3f3f3f 	.insn	8, 0x3f3f3f3f3f3f3f3f
    9522:	3f3f3f3f 3f3f3f3f 	.insn	8, 0x3f3f3f3f3f3f3f3f
    952a:	3f3f3f3f 3f3f3f3f 	.insn	8, 0x3f3f3f3f3f3f3f3f
    9532:	3f3f3f3f 3f3f3f3f 	.insn	8, 0x3f3f3f3f3f3f3f3f
    953a:	3f3f3f3f 3f3f3f3f 	.insn	8, 0x3f3f3f3f3f3f3f3f
    9542:	3f3f3f3f 3f3f3f3f 	.insn	8, 0x3f3f3f3f3f3f3f3f
    954a:	3f3f3f3f 3f3f3f3f 	.insn	8, 0x3f3f3f3f3f3f3f3f
    9552:	3f3f3f3f 3f3f3f3f 	.insn	8, 0x3f3f3f3f3f3f3f3f
    955a:	3f3f3f3f 3f3f3f3f 	.insn	8, 0x3f3f3f3f3f3f3f3f
    9562:	3f3f3f3f 3f3f3f3f 	.insn	8, 0x3f3f3f3f3f3f3f3f
    956a:	3f3f3f3f 3f3f3f3f 	.insn	8, 0x3f3f3f3f3f3f3f3f
    9572:	3f3f3f3f 3f3f3f3f 	.insn	8, 0x3f3f3f3f3f3f3f3f
    957a:	3f3f3f3f 3f3f3f3f 	.insn	8, 0x3f3f3f3f3f3f3f3f
    9582:	3f3f3f3f 3f3f3f3f 	.insn	8, 0x3f3f3f3f3f3f3f3f
    958a:	3f3f3f3f 3f3f3f3f 	.insn	8, 0x3f3f3f3f3f3f3f3f
    9592:	3f3f3f3f 3f3f3f3f 	.insn	8, 0x3f3f3f3f3f3f3f3f
    959a:	3f3f3f3f 3f3f3f3f 	.insn	8, 0x3f3f3f3f3f3f3f3f
    95a2:	3f3f3f3f 3f3f3f3f 	.insn	8, 0x3f3f3f3f3f3f3f3f
    95aa:	3f3f3f3f 3f3f3f3f 	.insn	8, 0x3f3f3f3f3f3f3f3f
    95b2:	3f3f3f3f 3f3f3f3f 	.insn	8, 0x3f3f3f3f3f3f3f3f
    95ba:	3f3f3f3f 3f3f3f3f 	.insn	8, 0x3f3f3f3f3f3f3f3f
    95c2:	3f3f3f3f 3f3f3f3f 	.insn	8, 0x3f3f3f3f3f3f3f3f
    95ca:	3f3f3f3f 3f3f3f3f 	.insn	8, 0x3f3f3f3f3f3f3f3f
    95d2:	3f3f3f3f 3f3f3f3f 	.insn	8, 0x3f3f3f3f3f3f3f3f
    95da:	3f3f3f3f 3f3f3f3f 	.insn	8, 0x3f3f3f3f3f3f3f3f
    95e2:	3f3f3f3f 3f3f3f3f 	.insn	8, 0x3f3f3f3f3f3f3f3f
    95ea:	3f3f3f3f 3f3f3f3f 	.insn	8, 0x3f3f3f3f3f3f3f3f
    95f2:	3f3f3f3f 3f3f3f3f 	.insn	8, 0x3f3f3f3f3f3f3f3f
    95fa:	3f3f3f3f 3f3f3f3f 	.insn	8, 0x3f3f3f3f3f3f3f3f
    9602:	3f3f3f3f 3f3f3f3f 	.insn	8, 0x3f3f3f3f3f3f3f3f
    960a:	3f3f3f3f 3f3f3f3f 	.insn	8, 0x3f3f3f3f3f3f3f3f
    9612:	3f3f3f3f 3f3f3f3f 	.insn	8, 0x3f3f3f3f3f3f3f3f
    961a:	3f3f3f3f 3f3f3f3f 	.insn	8, 0x3f3f3f3f3f3f3f3f
    9622:	3f3f3f3f 3f3f3f3f 	.insn	8, 0x3f3f3f3f3f3f3f3f
    962a:	3f3f3f3f 3f3f3f3f 	.insn	8, 0x3f3f3f3f3f3f3f3f
    9632:	3f3f3f3f 3f3f3f3f 	.insn	8, 0x3f3f3f3f3f3f3f3f
    963a:	3f3f3f3f 3f3f3f3f 	.insn	8, 0x3f3f3f3f3f3f3f3f
    9642:	3f3f3f3f 3f3f3f3f 	.insn	8, 0x3f3f3f3f3f3f3f3f
    964a:	3f3f3f3f 3f3f3f3f 	.insn	8, 0x3f3f3f3f3f3f3f3f
    9652:	3f3f3f3f 3f3f3f3f 	.insn	8, 0x3f3f3f3f3f3f3f3f
    965a:	3f3f3f3f 3f3f3f3f 	.insn	8, 0x3f3f3f3f3f3f3f3f
    9662:	3f3f3f3f 3f3f3f3f 	.insn	8, 0x3f3f3f3f3f3f3f3f
    966a:	3f3f3f3f 3f3f3f3f 	.insn	8, 0x3f3f3f3f3f3f3f3f
    9672:	3f3f3f3f 3f3f3f3f 	.insn	8, 0x3f3f3f3f3f3f3f3f
    967a:	3f3f3f3f 3f3f3f3f 	.insn	8, 0x3f3f3f3f3f3f3f3f
    9682:	3f3f3f3f 3f3f3f3f 	.insn	8, 0x3f3f3f3f3f3f3f3f
    968a:	3f3f3f3f 3f3f3f3f 	.insn	8, 0x3f3f3f3f3f3f3f3f
    9692:	3f3f3f3f 3f3f3f3f 	.insn	8, 0x3f3f3f3f3f3f3f3f
    969a:	3f3f3f3f 3f3f3f3f 	.insn	8, 0x3f3f3f3f3f3f3f3f
    96a2:	3f3f3f3f 3f3f3f3f 	.insn	8, 0x3f3f3f3f3f3f3f3f
    96aa:	3f3f3f3f 3f3f3f3f 	.insn	8, 0x3f3f3f3f3f3f3f3f
    96b2:	3f3f3f3f 3f3f3f3f 	.insn	8, 0x3f3f3f3f3f3f3f3f
    96ba:	3f3f3f3f 3f3f3f3f 	.insn	8, 0x3f3f3f3f3f3f3f3f
    96c2:	3f3f3f3f 3f3f3f3f 	.insn	8, 0x3f3f3f3f3f3f3f3f
    96ca:	3f3f3f3f 3f3f3f3f 	.insn	8, 0x3f3f3f3f3f3f3f3f
    96d2:	3f3f3f3f 3f3f3f3f 	.insn	8, 0x3f3f3f3f3f3f3f3f
    96da:	3f3f3f3f 3f3f3f3f 	.insn	8, 0x3f3f3f3f3f3f3f3f
    96e2:	3f3f3f3f 3f3f3f3f 	.insn	8, 0x3f3f3f3f3f3f3f3f
    96ea:	3f3f3f3f 3f3f3f3f 	.insn	8, 0x3f3f3f3f3f3f3f3f
    96f2:	3f3f3f3f 3f3f3f3f 	.insn	8, 0x3f3f3f3f3f3f3f3f
    96fa:	3f3f3f3f 3f3f3f3f 	.insn	8, 0x3f3f3f3f3f3f3f3f
    9702:	3f3f3f3f 3f3f3f3f 	.insn	8, 0x3f3f3f3f3f3f3f3f
    970a:	3f3f3f3f 3f3f3f3f 	.insn	8, 0x3f3f3f3f3f3f3f3f
    9712:	3f3f3f3f 3f3f3f3f 	.insn	8, 0x3f3f3f3f3f3f3f3f
    971a:	3f3f3f3f 3f3f3f3f 	.insn	8, 0x3f3f3f3f3f3f3f3f
    9722:	3f3f3f3f 3f3f3f3f 	.insn	8, 0x3f3f3f3f3f3f3f3f
    972a:	3f3f3f3f 3f3f3f3f 	.insn	8, 0x3f3f3f3f3f3f3f3f
    9732:	3f3f3f3f 3f3f3f3f 	.insn	8, 0x3f3f3f3f3f3f3f3f
    973a:	3f3f3f3f 3f3f3f3f 	.insn	8, 0x3f3f3f3f3f3f3f3f
    9742:	3f3f3f3f 3f3f3f3f 	.insn	8, 0x3f3f3f3f3f3f3f3f
    974a:	3f3f3f3f 3f3f3f3f 	.insn	8, 0x3f3f3f3f3f3f3f3f
    9752:	3f3f3f3f 3f3f3f3f 	.insn	8, 0x3f3f3f3f3f3f3f3f
    975a:	3f3f3f3f 3f3f3f3f 	.insn	8, 0x3f3f3f3f3f3f3f3f
    9762:	3f3f3f3f 3f3f3f3f 	.insn	8, 0x3f3f3f3f3f3f3f3f
    976a:	3f3f3f3f 3f3f3f3f 	.insn	8, 0x3f3f3f3f3f3f3f3f
    9772:	3f3f3f3f 3f3f3f3f 	.insn	8, 0x3f3f3f3f3f3f3f3f
    977a:	3f3f3f3f 3f3f3f3f 	.insn	8, 0x3f3f3f3f3f3f3f3f
    9782:	3f3f3f3f 3f3f3f3f 	.insn	8, 0x3f3f3f3f3f3f3f3f
    978a:	3f3f3f3f 3f3f3f3f 	.insn	8, 0x3f3f3f3f3f3f3f3f
    9792:	3f3f3f3f 3f3f3f3f 	.insn	8, 0x3f3f3f3f3f3f3f3f
    979a:	3f3f3f3f 3f3f3f3f 	.insn	8, 0x3f3f3f3f3f3f3f3f
    97a2:	3f3f3f3f 3f3f3f3f 	.insn	8, 0x3f3f3f3f3f3f3f3f
    97aa:	3f3f3f3f 3f3f3f3f 	.insn	8, 0x3f3f3f3f3f3f3f3f
    97b2:	3f3f3f3f 3f3f3f3f 	.insn	8, 0x3f3f3f3f3f3f3f3f
    97ba:	3f3f3f3f 3f3f3f3f 	.insn	8, 0x3f3f3f3f3f3f3f3f
    97c2:	3f3f3f3f 3f3f3f3f 	.insn	8, 0x3f3f3f3f3f3f3f3f
    97ca:	3f3f3f3f 3f3f3f3f 	.insn	8, 0x3f3f3f3f3f3f3f3f
    97d2:	3f3f3f3f 3f3f3f3f 	.insn	8, 0x3f3f3f3f3f3f3f3f
    97da:	3f3f3f3f 3f3f3f3f 	.insn	8, 0x3f3f3f3f3f3f3f3f
    97e2:	3f3f3f3f 3f3f3f3f 	.insn	8, 0x3f3f3f3f3f3f3f3f
    97ea:	3f3f3f3f 3f3f3f3f 	.insn	8, 0x3f3f3f3f3f3f3f3f
    97f2:	3f3f3f3f 3f3f3f3f 	.insn	8, 0x3f3f3f3f3f3f3f3f
    97fa:	3f3f3f3f 3f3f3f3f 	.insn	8, 0x3f3f3f3f3f3f3f3f
    9802:	3f3f3f3f 3f3f3f3f 	.insn	8, 0x3f3f3f3f3f3f3f3f
    980a:	3f3f3f3f 3f3f3f3f 	.insn	8, 0x3f3f3f3f3f3f3f3f
    9812:	3f3f3f3f 3f3f3f3f 	.insn	8, 0x3f3f3f3f3f3f3f3f
    981a:	3f3f3f3f 3f3f3f3f 	.insn	8, 0x3f3f3f3f3f3f3f3f
    9822:	3f3f3f3f 3f3f3f3f 	.insn	8, 0x3f3f3f3f3f3f3f3f
    982a:	3f3f3f3f 3f3f3f3f 	.insn	8, 0x3f3f3f3f3f3f3f3f
    9832:	3f3f3f3f 3f3f3f3f 	.insn	8, 0x3f3f3f3f3f3f3f3f
    983a:	3f3f3f3f 3f3f3f3f 	.insn	8, 0x3f3f3f3f3f3f3f3f
    9842:	3f3f3f3f 3f3f3f3f 	.insn	8, 0x3f3f3f3f3f3f3f3f
    984a:	3f3f3f3f 3f3f3f3f 	.insn	8, 0x3f3f3f3f3f3f3f3f
    9852:	3f3f3f3f 3f3f3f3f 	.insn	8, 0x3f3f3f3f3f3f3f3f
    985a:	3f3f3f3f 3f3f3f3f 	.insn	8, 0x3f3f3f3f3f3f3f3f
    9862:	3f3f3f3f 3f3f3f3f 	.insn	8, 0x3f3f3f3f3f3f3f3f
    986a:	3f3f3f3f 3f3f3f3f 	.insn	8, 0x3f3f3f3f3f3f3f3f
    9872:	3f3f3f3f 3f3f3f3f 	.insn	8, 0x3f3f3f3f3f3f3f3f
    987a:	3f3f3f3f 3f3f3f3f 	.insn	8, 0x3f3f3f3f3f3f3f3f
    9882:	3f3f3f3f 3f3f3f3f 	.insn	8, 0x3f3f3f3f3f3f3f3f
    988a:	3f3f3f3f 3f3f3f3f 	.insn	8, 0x3f3f3f3f3f3f3f3f
    9892:	3f3f3f3f 3f3f3f3f 	.insn	8, 0x3f3f3f3f3f3f3f3f
    989a:	3f3f3f3f 3f3f3f3f 	.insn	8, 0x3f3f3f3f3f3f3f3f
    98a2:	3f3f3f3f 3f3f3f3f 	.insn	8, 0x3f3f3f3f3f3f3f3f
    98aa:	3f3f3f3f 3f3f3f3f 	.insn	8, 0x3f3f3f3f3f3f3f3f
    98b2:	3f3f3f3f 3f3f3f3f 	.insn	8, 0x3f3f3f3f3f3f3f3f
    98ba:	3f3f3f3f 3f3f3f3f 	.insn	8, 0x3f3f3f3f3f3f3f3f
    98c2:	3f3f3f3f 3f3f3f3f 	.insn	8, 0x3f3f3f3f3f3f3f3f
    98ca:	3f3f3f3f 3f3f3f3f 	.insn	8, 0x3f3f3f3f3f3f3f3f
    98d2:	3f3f3f3f 3f3f3f3f 	.insn	8, 0x3f3f3f3f3f3f3f3f
    98da:	3f3f3f3f 3f3f3f3f 	.insn	8, 0x3f3f3f3f3f3f3f3f
    98e2:	3f3f3f3f 3f3f3f3f 	.insn	8, 0x3f3f3f3f3f3f3f3f
    98ea:	3f3f3f3f 3f3f3f3f 	.insn	8, 0x3f3f3f3f3f3f3f3f
    98f2:	3f3f3f3f 3f3f3f3f 	.insn	8, 0x3f3f3f3f3f3f3f3f
    98fa:	3f3f3f3f 3f3f3f3f 	.insn	8, 0x3f3f3f3f3f3f3f3f
    9902:	3f3f3f3f 3f3f3f3f 	.insn	8, 0x3f3f3f3f3f3f3f3f
    990a:	3f3f3f3f 3f3f3f3f 	.insn	8, 0x3f3f3f3f3f3f3f3f
    9912:	3f3f3f3f 3f3f3f3f 	.insn	8, 0x3f3f3f3f3f3f3f3f
    991a:	3f3f3f3f 3f3f3f3f 	.insn	8, 0x3f3f3f3f3f3f3f3f
    9922:	3f3f3f3f 3f3f3f3f 	.insn	8, 0x3f3f3f3f3f3f3f3f
    992a:	3f3f3f3f 3f3f3f3f 	.insn	8, 0x3f3f3f3f3f3f3f3f
    9932:	3f3f3f3f 3f3f3f3f 	.insn	8, 0x3f3f3f3f3f3f3f3f
    993a:	3f3f3f3f 3f3f3f3f 	.insn	8, 0x3f3f3f3f3f3f3f3f
    9942:	3f3f3f3f 3f3f3f3f 	.insn	8, 0x3f3f3f3f3f3f3f3f
    994a:	3f3f3f3f 3f3f3f3f 	.insn	8, 0x3f3f3f3f3f3f3f3f
    9952:	3f3f3f3f 3f3f3f3f 	.insn	8, 0x3f3f3f3f3f3f3f3f
    995a:	3f3f3f3f 3f3f3f3f 	.insn	8, 0x3f3f3f3f3f3f3f3f
    9962:	3f3f3f3f 3f3f3f3f 	.insn	8, 0x3f3f3f3f3f3f3f3f
    996a:	3f3f3f3f 3f3f3f3f 	.insn	8, 0x3f3f3f3f3f3f3f3f
    9972:	3f3f3f3f 3f3f3f3f 	.insn	8, 0x3f3f3f3f3f3f3f3f
    997a:	3f3f3f3f 3f3f3f3f 	.insn	8, 0x3f3f3f3f3f3f3f3f
    9982:	3f3f3f3f 3f3f3f3f 	.insn	8, 0x3f3f3f3f3f3f3f3f
    998a:	3f3f3f3f 3f3f3f3f 	.insn	8, 0x3f3f3f3f3f3f3f3f
    9992:	3f3f3f3f 3f3f3f3f 	.insn	8, 0x3f3f3f3f3f3f3f3f
    999a:	3f3f3f3f 3f3f3f3f 	.insn	8, 0x3f3f3f3f3f3f3f3f
    99a2:	3f3f3f3f 3f3f3f3f 	.insn	8, 0x3f3f3f3f3f3f3f3f
    99aa:	3f3f3f3f 3f3f3f3f 	.insn	8, 0x3f3f3f3f3f3f3f3f
    99b2:	3f3f3f3f 3f3f3f3f 	.insn	8, 0x3f3f3f3f3f3f3f3f
    99ba:	3f3f3f3f 3f3f3f3f 	.insn	8, 0x3f3f3f3f3f3f3f3f
    99c2:	3f3f3f3f 3f3f3f3f 	.insn	8, 0x3f3f3f3f3f3f3f3f
    99ca:	3f3f3f3f 3f3f3f3f 	.insn	8, 0x3f3f3f3f3f3f3f3f
    99d2:	3f3f3f3f 3f3f3f3f 	.insn	8, 0x3f3f3f3f3f3f3f3f
    99da:	3f3f3f3f 3f3f3f3f 	.insn	8, 0x3f3f3f3f3f3f3f3f
    99e2:	3f3f3f3f 3f3f3f3f 	.insn	8, 0x3f3f3f3f3f3f3f3f
    99ea:	3f3f3f3f 3f3f3f3f 	.insn	8, 0x3f3f3f3f3f3f3f3f
    99f2:	3f3f3f3f 3f3f3f3f 	.insn	8, 0x3f3f3f3f3f3f3f3f
    99fa:	3f3f3f3f 3f3f3f3f 	.insn	8, 0x3f3f3f3f3f3f3f3f
    9a02:	3f3f3f3f 3f3f3f3f 	.insn	8, 0x3f3f3f3f3f3f3f3f
    9a0a:	3f3f3f3f 3f3f3f3f 	.insn	8, 0x3f3f3f3f3f3f3f3f
    9a12:	3f3f3f3f 3f3f3f3f 	.insn	8, 0x3f3f3f3f3f3f3f3f
    9a1a:	3f3f3f3f 3f3f3f3f 	.insn	8, 0x3f3f3f3f3f3f3f3f
    9a22:	3f3f3f3f 3f3f3f3f 	.insn	8, 0x3f3f3f3f3f3f3f3f
    9a2a:	3f3f3f3f 3f3f3f3f 	.insn	8, 0x3f3f3f3f3f3f3f3f
    9a32:	3f3f3f3f 3f3f3f3f 	.insn	8, 0x3f3f3f3f3f3f3f3f
    9a3a:	3f3f3f3f 3f3f3f3f 	.insn	8, 0x3f3f3f3f3f3f3f3f
    9a42:	3f3f3f3f 3f3f3f3f 	.insn	8, 0x3f3f3f3f3f3f3f3f
    9a4a:	3f3f3f3f 3f3f3f3f 	.insn	8, 0x3f3f3f3f3f3f3f3f
    9a52:	3f3f3f3f 3f3f3f3f 	.insn	8, 0x3f3f3f3f3f3f3f3f
    9a5a:	3f3f3f3f 3f3f3f3f 	.insn	8, 0x3f3f3f3f3f3f3f3f
    9a62:	3f3f3f3f 3f3f3f3f 	.insn	8, 0x3f3f3f3f3f3f3f3f
    9a6a:	3f3f3f3f 3f3f3f3f 	.insn	8, 0x3f3f3f3f3f3f3f3f
    9a72:	3f3f3f3f 3f3f3f3f 	.insn	8, 0x3f3f3f3f3f3f3f3f
    9a7a:	3f3f3f3f 3f3f3f3f 	.insn	8, 0x3f3f3f3f3f3f3f3f
    9a82:	3f3f3f3f 3f3f3f3f 	.insn	8, 0x3f3f3f3f3f3f3f3f
    9a8a:	3f3f3f3f 3f3f3f3f 	.insn	8, 0x3f3f3f3f3f3f3f3f
    9a92:	3f3f3f3f 3f3f3f3f 	.insn	8, 0x3f3f3f3f3f3f3f3f
    9a9a:	3f3f3f3f 3f3f3f3f 	.insn	8, 0x3f3f3f3f3f3f3f3f
    9aa2:	3f3f3f3f 3f3f3f3f 	.insn	8, 0x3f3f3f3f3f3f3f3f
    9aaa:	3f3f3f3f 3f3f3f3f 	.insn	8, 0x3f3f3f3f3f3f3f3f
    9ab2:	3f3f3f3f 3f3f3f3f 	.insn	8, 0x3f3f3f3f3f3f3f3f
    9aba:	3f3f3f3f 3f3f3f3f 	.insn	8, 0x3f3f3f3f3f3f3f3f
    9ac2:	3f3f3f3f 3f3f3f3f 	.insn	8, 0x3f3f3f3f3f3f3f3f
    9aca:	3f3f3f3f 3f3f3f3f 	.insn	8, 0x3f3f3f3f3f3f3f3f
    9ad2:	3f3f3f3f 3f3f3f3f 	.insn	8, 0x3f3f3f3f3f3f3f3f
    9ada:	3f3f3f3f 3f3f3f3f 	.insn	8, 0x3f3f3f3f3f3f3f3f
    9ae2:	3f3f3f3f 3f3f3f3f 	.insn	8, 0x3f3f3f3f3f3f3f3f
    9aea:	3f3f3f3f 3f3f3f3f 	.insn	8, 0x3f3f3f3f3f3f3f3f
    9af2:	3f3f3f3f 3f3f3f3f 	.insn	8, 0x3f3f3f3f3f3f3f3f
    9afa:	3f3f3f3f 3f3f3f3f 	.insn	8, 0x3f3f3f3f3f3f3f3f
    9b02:	3f3f3f3f 3f3f3f3f 	.insn	8, 0x3f3f3f3f3f3f3f3f
    9b0a:	3f3f3f3f 3f3f3f3f 	.insn	8, 0x3f3f3f3f3f3f3f3f
    9b12:	3f3f3f3f 3f3f3f3f 	.insn	8, 0x3f3f3f3f3f3f3f3f
    9b1a:	3f3f3f3f 3f3f3f3f 	.insn	8, 0x3f3f3f3f3f3f3f3f
    9b22:	3f3f3f3f 3f3f3f3f 	.insn	8, 0x3f3f3f3f3f3f3f3f
    9b2a:	3f3f3f3f 3f3f3f3f 	.insn	8, 0x3f3f3f3f3f3f3f3f
    9b32:	3f3f3f3f 3f3f3f3f 	.insn	8, 0x3f3f3f3f3f3f3f3f
    9b3a:	3f3f3f3f 3f3f3f3f 	.insn	8, 0x3f3f3f3f3f3f3f3f
    9b42:	3f3f3f3f 3f3f3f3f 	.insn	8, 0x3f3f3f3f3f3f3f3f
    9b4a:	3f3f3f3f 3f3f3f3f 	.insn	8, 0x3f3f3f3f3f3f3f3f
    9b52:	3f3f3f3f 3f3f3f3f 	.insn	8, 0x3f3f3f3f3f3f3f3f
    9b5a:	3f3f3f3f 3f3f3f3f 	.insn	8, 0x3f3f3f3f3f3f3f3f
    9b62:	3f3f3f3f 3f3f3f3f 	.insn	8, 0x3f3f3f3f3f3f3f3f
    9b6a:	3f3f3f3f 3f3f3f3f 	.insn	8, 0x3f3f3f3f3f3f3f3f
    9b72:	3f3f3f3f 3f3f3f3f 	.insn	8, 0x3f3f3f3f3f3f3f3f
    9b7a:	3f3f3f3f 3f3f3f3f 	.insn	8, 0x3f3f3f3f3f3f3f3f
    9b82:	3f3f3f3f 3f3f3f3f 	.insn	8, 0x3f3f3f3f3f3f3f3f
    9b8a:	3f3f3f3f 3f3f3f3f 	.insn	8, 0x3f3f3f3f3f3f3f3f
    9b92:	3f3f3f3f 3f3f3f3f 	.insn	8, 0x3f3f3f3f3f3f3f3f
    9b9a:	3f3f3f3f 3f3f3f3f 	.insn	8, 0x3f3f3f3f3f3f3f3f
    9ba2:	3f3f3f3f 3f3f3f3f 	.insn	8, 0x3f3f3f3f3f3f3f3f
    9baa:	3f3f3f3f 3f3f3f3f 	.insn	8, 0x3f3f3f3f3f3f3f3f
    9bb2:	3f3f3f3f 3f3f3f3f 	.insn	8, 0x3f3f3f3f3f3f3f3f
    9bba:	3f3f3f3f 3f3f3f3f 	.insn	8, 0x3f3f3f3f3f3f3f3f
    9bc2:	3f3f3f3f 3f3f3f3f 	.insn	8, 0x3f3f3f3f3f3f3f3f
    9bca:	3f3f3f3f 3f3f3f3f 	.insn	8, 0x3f3f3f3f3f3f3f3f
    9bd2:	3f3f3f3f 3f3f3f3f 	.insn	8, 0x3f3f3f3f3f3f3f3f
    9bda:	3f3f3f3f 3f3f3f3f 	.insn	8, 0x3f3f3f3f3f3f3f3f
    9be2:	3f3f3f3f 3f3f3f3f 	.insn	8, 0x3f3f3f3f3f3f3f3f
    9bea:	3f3f3f3f 3f3f3f3f 	.insn	8, 0x3f3f3f3f3f3f3f3f
    9bf2:	3f3f3f3f 3f3f3f3f 	.insn	8, 0x3f3f3f3f3f3f3f3f
    9bfa:	3f3f3f3f 3f3f3f3f 	.insn	8, 0x3f3f3f3f3f3f3f3f
    9c02:	3f3f3f3f 3f3f3f3f 	.insn	8, 0x3f3f3f3f3f3f3f3f
    9c0a:	3f3f3f3f 3f3f3f3f 	.insn	8, 0x3f3f3f3f3f3f3f3f
    9c12:	3f3f3f3f 3f3f3f3f 	.insn	8, 0x3f3f3f3f3f3f3f3f
    9c1a:	3f3f3f3f 3f3f3f3f 	.insn	8, 0x3f3f3f3f3f3f3f3f
    9c22:	3f3f3f3f 3f3f3f3f 	.insn	8, 0x3f3f3f3f3f3f3f3f
    9c2a:	3f3f3f3f 3f3f3f3f 	.insn	8, 0x3f3f3f3f3f3f3f3f
    9c32:	3f3f3f3f 3f3f3f3f 	.insn	8, 0x3f3f3f3f3f3f3f3f
    9c3a:	3f3f3f3f 3f3f3f3f 	.insn	8, 0x3f3f3f3f3f3f3f3f
    9c42:	3f3f3f3f 3f3f3f3f 	.insn	8, 0x3f3f3f3f3f3f3f3f
    9c4a:	3f3f3f3f 3f3f3f3f 	.insn	8, 0x3f3f3f3f3f3f3f3f
    9c52:	3f3f3f3f 3f3f3f3f 	.insn	8, 0x3f3f3f3f3f3f3f3f
    9c5a:	3f3f3f3f 3f3f3f3f 	.insn	8, 0x3f3f3f3f3f3f3f3f
    9c62:	3f3f3f3f 3f3f3f3f 	.insn	8, 0x3f3f3f3f3f3f3f3f
    9c6a:	3f3f3f3f 3f3f3f3f 	.insn	8, 0x3f3f3f3f3f3f3f3f
    9c72:	3f3f3f3f 3f3f3f3f 	.insn	8, 0x3f3f3f3f3f3f3f3f
    9c7a:	3f3f3f3f 3f3f3f3f 	.insn	8, 0x3f3f3f3f3f3f3f3f
    9c82:	3f3f3f3f 3f3f3f3f 	.insn	8, 0x3f3f3f3f3f3f3f3f
    9c8a:	3f3f3f3f 3f3f3f3f 	.insn	8, 0x3f3f3f3f3f3f3f3f
    9c92:	3f3f3f3f 3f3f3f3f 	.insn	8, 0x3f3f3f3f3f3f3f3f
    9c9a:	3f3f3f3f 3f3f3f3f 	.insn	8, 0x3f3f3f3f3f3f3f3f
    9ca2:	3f3f3f3f 3f3f3f3f 	.insn	8, 0x3f3f3f3f3f3f3f3f
    9caa:	3f3f3f3f 3f3f3f3f 	.insn	8, 0x3f3f3f3f3f3f3f3f
    9cb2:	3f3f3f3f 3f3f3f3f 	.insn	8, 0x3f3f3f3f3f3f3f3f
    9cba:	3f3f3f3f 3f3f3f3f 	.insn	8, 0x3f3f3f3f3f3f3f3f
    9cc2:	3f3f3f3f 3f3f3f3f 	.insn	8, 0x3f3f3f3f3f3f3f3f
    9cca:	3f3f3f3f 3f3f3f3f 	.insn	8, 0x3f3f3f3f3f3f3f3f
    9cd2:	3f3f3f3f 3f3f3f3f 	.insn	8, 0x3f3f3f3f3f3f3f3f
    9cda:	3f3f3f3f 3f3f3f3f 	.insn	8, 0x3f3f3f3f3f3f3f3f
    9ce2:	3f3f3f3f 3f3f3f3f 	.insn	8, 0x3f3f3f3f3f3f3f3f
    9cea:	3f3f3f3f 3f3f3f3f 	.insn	8, 0x3f3f3f3f3f3f3f3f
    9cf2:	3f3f3f3f 3f3f3f3f 	.insn	8, 0x3f3f3f3f3f3f3f3f
    9cfa:	3f3f3f3f 3f3f3f3f 	.insn	8, 0x3f3f3f3f3f3f3f3f
    9d02:	3f3f3f3f 3f3f3f3f 	.insn	8, 0x3f3f3f3f3f3f3f3f
    9d0a:	3f3f3f3f 3f3f3f3f 	.insn	8, 0x3f3f3f3f3f3f3f3f
    9d12:	3f3f3f3f 3f3f3f3f 	.insn	8, 0x3f3f3f3f3f3f3f3f
    9d1a:	3f3f3f3f 3f3f3f3f 	.insn	8, 0x3f3f3f3f3f3f3f3f
    9d22:	3f3f3f3f 3f3f3f3f 	.insn	8, 0x3f3f3f3f3f3f3f3f
    9d2a:	3f3f3f3f 3f3f3f3f 	.insn	8, 0x3f3f3f3f3f3f3f3f
    9d32:	3f3f3f3f 3f3f3f3f 	.insn	8, 0x3f3f3f3f3f3f3f3f
    9d3a:	3f3f3f3f 3f3f3f3f 	.insn	8, 0x3f3f3f3f3f3f3f3f
    9d42:	3f3f3f3f 3f3f3f3f 	.insn	8, 0x3f3f3f3f3f3f3f3f
    9d4a:	3f3f3f3f 3f3f3f3f 	.insn	8, 0x3f3f3f3f3f3f3f3f
    9d52:	3f3f3f3f 3f3f3f3f 	.insn	8, 0x3f3f3f3f3f3f3f3f
    9d5a:	3f3f3f3f 3f3f3f3f 	.insn	8, 0x3f3f3f3f3f3f3f3f
    9d62:	3f3f3f3f 3f3f3f3f 	.insn	8, 0x3f3f3f3f3f3f3f3f
    9d6a:	3f3f3f3f 3f3f3f3f 	.insn	8, 0x3f3f3f3f3f3f3f3f
    9d72:	3f3f3f3f 3f3f3f3f 	.insn	8, 0x3f3f3f3f3f3f3f3f
    9d7a:	3f3f3f3f 3f3f3f3f 	.insn	8, 0x3f3f3f3f3f3f3f3f
    9d82:	3f3f3f3f 3f3f3f3f 	.insn	8, 0x3f3f3f3f3f3f3f3f
    9d8a:	3f3f3f3f 3f3f3f3f 	.insn	8, 0x3f3f3f3f3f3f3f3f
    9d92:	3f3f3f3f 3f3f3f3f 	.insn	8, 0x3f3f3f3f3f3f3f3f
    9d9a:	3f3f3f3f 3f3f3f3f 	.insn	8, 0x3f3f3f3f3f3f3f3f
    9da2:	3f3f3f3f 3f3f3f3f 	.insn	8, 0x3f3f3f3f3f3f3f3f
    9daa:	3f3f3f3f 3f3f3f3f 	.insn	8, 0x3f3f3f3f3f3f3f3f
    9db2:	3f3f3f3f 3f3f3f3f 	.insn	8, 0x3f3f3f3f3f3f3f3f
    9dba:	3f3f3f3f 3f3f3f3f 	.insn	8, 0x3f3f3f3f3f3f3f3f
    9dc2:	3f3f3f3f 3f3f3f3f 	.insn	8, 0x3f3f3f3f3f3f3f3f
    9dca:	3f3f3f3f 3f3f3f3f 	.insn	8, 0x3f3f3f3f3f3f3f3f
    9dd2:	3f3f3f3f 3f3f3f3f 	.insn	8, 0x3f3f3f3f3f3f3f3f
    9dda:	3f3f3f3f 3f3f3f3f 	.insn	8, 0x3f3f3f3f3f3f3f3f
    9de2:	3f3f3f3f 3f3f3f3f 	.insn	8, 0x3f3f3f3f3f3f3f3f
    9dea:	3f3f3f3f 3f3f3f3f 	.insn	8, 0x3f3f3f3f3f3f3f3f
    9df2:	3f3f3f3f 3f3f3f3f 	.insn	8, 0x3f3f3f3f3f3f3f3f
    9dfa:	3f3f3f3f 3f3f3f3f 	.insn	8, 0x3f3f3f3f3f3f3f3f
    9e02:	3f3f3f3f 3f3f3f3f 	.insn	8, 0x3f3f3f3f3f3f3f3f
    9e0a:	3f3f3f3f 3f3f3f3f 	.insn	8, 0x3f3f3f3f3f3f3f3f
    9e12:	3f3f3f3f 3f3f3f3f 	.insn	8, 0x3f3f3f3f3f3f3f3f
    9e1a:	3f3f3f3f 3f3f3f3f 	.insn	8, 0x3f3f3f3f3f3f3f3f
    9e22:	3f3f3f3f 3f3f3f3f 	.insn	8, 0x3f3f3f3f3f3f3f3f
    9e2a:	3f3f3f3f 3f3f3f3f 	.insn	8, 0x3f3f3f3f3f3f3f3f
    9e32:	3f3f3f3f 3f3f3f3f 	.insn	8, 0x3f3f3f3f3f3f3f3f
    9e3a:	3f3f3f3f 3f3f3f3f 	.insn	8, 0x3f3f3f3f3f3f3f3f
    9e42:	3f3f3f3f 3f3f3f3f 	.insn	8, 0x3f3f3f3f3f3f3f3f
    9e4a:	3f3f3f3f 3f3f3f3f 	.insn	8, 0x3f3f3f3f3f3f3f3f
    9e52:	3f3f3f3f 3f3f3f3f 	.insn	8, 0x3f3f3f3f3f3f3f3f
    9e5a:	3f3f3f3f 3f3f3f3f 	.insn	8, 0x3f3f3f3f3f3f3f3f
    9e62:	3f3f3f3f 3f3f3f3f 	.insn	8, 0x3f3f3f3f3f3f3f3f
    9e6a:	3f3f3f3f 3f3f3f3f 	.insn	8, 0x3f3f3f3f3f3f3f3f
    9e72:	3f3f3f3f 3f3f3f3f 	.insn	8, 0x3f3f3f3f3f3f3f3f
    9e7a:	3f3f3f3f 3f3f3f3f 	.insn	8, 0x3f3f3f3f3f3f3f3f
    9e82:	3f3f3f3f 3f3f3f3f 	.insn	8, 0x3f3f3f3f3f3f3f3f
    9e8a:	3f3f3f3f 3f3f3f3f 	.insn	8, 0x3f3f3f3f3f3f3f3f
    9e92:	3f3f3f3f 3f3f3f3f 	.insn	8, 0x3f3f3f3f3f3f3f3f
    9e9a:	3f3f3f3f 3f3f3f3f 	.insn	8, 0x3f3f3f3f3f3f3f3f
    9ea2:	3f3f3f3f 3f3f3f3f 	.insn	8, 0x3f3f3f3f3f3f3f3f
    9eaa:	3f3f3f3f 3f3f3f3f 	.insn	8, 0x3f3f3f3f3f3f3f3f
    9eb2:	3f3f3f3f 3f3f3f3f 	.insn	8, 0x3f3f3f3f3f3f3f3f
    9eba:	3f3f3f3f 3f3f3f3f 	.insn	8, 0x3f3f3f3f3f3f3f3f
    9ec2:	3f3f3f3f 3f3f3f3f 	.insn	8, 0x3f3f3f3f3f3f3f3f
    9eca:	3f3f3f3f 3f3f3f3f 	.insn	8, 0x3f3f3f3f3f3f3f3f
    9ed2:	3f3f3f3f 3f3f3f3f 	.insn	8, 0x3f3f3f3f3f3f3f3f
    9eda:	3f3f3f3f 3f3f3f3f 	.insn	8, 0x3f3f3f3f3f3f3f3f
    9ee2:	3f3f3f3f 3f3f3f3f 	.insn	8, 0x3f3f3f3f3f3f3f3f
    9eea:	3f3f3f3f 3f3f3f3f 	.insn	8, 0x3f3f3f3f3f3f3f3f
    9ef2:	3f3f3f3f 3f3f3f3f 	.insn	8, 0x3f3f3f3f3f3f3f3f
    9efa:	3f3f3f3f 3f3f3f3f 	.insn	8, 0x3f3f3f3f3f3f3f3f
    9f02:	3f3f3f3f 3f3f3f3f 	.insn	8, 0x3f3f3f3f3f3f3f3f
    9f0a:	3f3f3f3f 3f3f3f3f 	.insn	8, 0x3f3f3f3f3f3f3f3f
    9f12:	3f3f3f3f 3f3f3f3f 	.insn	8, 0x3f3f3f3f3f3f3f3f
    9f1a:	3f3f3f3f 3f3f3f3f 	.insn	8, 0x3f3f3f3f3f3f3f3f
    9f22:	3f3f3f3f 3f3f3f3f 	.insn	8, 0x3f3f3f3f3f3f3f3f
    9f2a:	3f3f3f3f 3f3f3f3f 	.insn	8, 0x3f3f3f3f3f3f3f3f
    9f32:	3f3f3f3f 3f3f3f3f 	.insn	8, 0x3f3f3f3f3f3f3f3f
    9f3a:	3f3f3f3f 3f3f3f3f 	.insn	8, 0x3f3f3f3f3f3f3f3f
    9f42:	3f3f3f3f 3f3f3f3f 	.insn	8, 0x3f3f3f3f3f3f3f3f
    9f4a:	3f3f3f3f 3f3f3f3f 	.insn	8, 0x3f3f3f3f3f3f3f3f
    9f52:	3f3f3f3f 3f3f3f3f 	.insn	8, 0x3f3f3f3f3f3f3f3f
    9f5a:	3f3f3f3f 3f3f3f3f 	.insn	8, 0x3f3f3f3f3f3f3f3f
    9f62:	3f3f3f3f 3f3f3f3f 	.insn	8, 0x3f3f3f3f3f3f3f3f
    9f6a:	3f3f3f3f 3f3f3f3f 	.insn	8, 0x3f3f3f3f3f3f3f3f
    9f72:	3f3f3f3f 3f3f3f3f 	.insn	8, 0x3f3f3f3f3f3f3f3f
    9f7a:	3f3f3f3f 3f3f3f3f 	.insn	8, 0x3f3f3f3f3f3f3f3f
    9f82:	3f3f3f3f 3f3f3f3f 	.insn	8, 0x3f3f3f3f3f3f3f3f
    9f8a:	3f3f3f3f 3f3f3f3f 	.insn	8, 0x3f3f3f3f3f3f3f3f
    9f92:	3f3f3f3f 3f3f3f3f 	.insn	8, 0x3f3f3f3f3f3f3f3f
    9f9a:	3f3f3f3f 3f3f3f3f 	.insn	8, 0x3f3f3f3f3f3f3f3f
    9fa2:	3f3f3f3f 3f3f3f3f 	.insn	8, 0x3f3f3f3f3f3f3f3f
    9faa:	3f3f3f3f 3f3f3f3f 	.insn	8, 0x3f3f3f3f3f3f3f3f
    9fb2:	3f3f3f3f 3f3f3f3f 	.insn	8, 0x3f3f3f3f3f3f3f3f
    9fba:	3f3f3f3f 3f3f3f3f 	.insn	8, 0x3f3f3f3f3f3f3f3f
    9fc2:	3f3f3f3f 3f3f3f3f 	.insn	8, 0x3f3f3f3f3f3f3f3f
    9fca:	3f3f3f3f 3f3f3f3f 	.insn	8, 0x3f3f3f3f3f3f3f3f
    9fd2:	3f3f3f3f 3f3f3f3f 	.insn	8, 0x3f3f3f3f3f3f3f3f
    9fda:	3f3f3f3f 3f3f3f3f 	.insn	8, 0x3f3f3f3f3f3f3f3f
    9fe2:	3f3f3f3f 3f3f3f3f 	.insn	8, 0x3f3f3f3f3f3f3f3f
    9fea:	3f3f3f3f 3f3f3f3f 	.insn	8, 0x3f3f3f3f3f3f3f3f
    9ff2:	3f3f3f3f 3f3f3f3f 	.insn	8, 0x3f3f3f3f3f3f3f3f
    9ffa:	3f3f3f3f 3f3f3f3f 	.insn	8, 0x3f3f3f3f3f3f3f3f
    a002:	3f3f3f3f 3f3f3f3f 	.insn	8, 0x3f3f3f3f3f3f3f3f
    a00a:	3f3f3f3f 3f3f3f3f 	.insn	8, 0x3f3f3f3f3f3f3f3f
    a012:	3f3f3f3f 3f3f3f3f 	.insn	8, 0x3f3f3f3f3f3f3f3f
    a01a:	3f3f3f3f 3f3f3f3f 	.insn	8, 0x3f3f3f3f3f3f3f3f
    a022:	3f3f3f3f 3f3f3f3f 	.insn	8, 0x3f3f3f3f3f3f3f3f
    a02a:	3f3f3f3f 3f3f3f3f 	.insn	8, 0x3f3f3f3f3f3f3f3f
    a032:	3f3f3f3f 3f3f3f3f 	.insn	8, 0x3f3f3f3f3f3f3f3f
    a03a:	3f3f3f3f 3f3f3f3f 	.insn	8, 0x3f3f3f3f3f3f3f3f
    a042:	3f3f3f3f 3f3f3f3f 	.insn	8, 0x3f3f3f3f3f3f3f3f
    a04a:	3f3f3f3f 3f3f3f3f 	.insn	8, 0x3f3f3f3f3f3f3f3f
    a052:	3f3f3f3f 3f3f3f3f 	.insn	8, 0x3f3f3f3f3f3f3f3f
    a05a:	3f3f3f3f 3f3f3f3f 	.insn	8, 0x3f3f3f3f3f3f3f3f
    a062:	3f3f3f3f 3f3f3f3f 	.insn	8, 0x3f3f3f3f3f3f3f3f
    a06a:	3f3f3f3f 3f3f3f3f 	.insn	8, 0x3f3f3f3f3f3f3f3f
    a072:	3f3f3f3f 3f3f3f3f 	.insn	8, 0x3f3f3f3f3f3f3f3f
    a07a:	3f3f3f3f 3f3f3f3f 	.insn	8, 0x3f3f3f3f3f3f3f3f
    a082:	3f3f3f3f 3f3f3f3f 	.insn	8, 0x3f3f3f3f3f3f3f3f
    a08a:	3f3f3f3f 3f3f3f3f 	.insn	8, 0x3f3f3f3f3f3f3f3f
    a092:	3f3f3f3f 3f3f3f3f 	.insn	8, 0x3f3f3f3f3f3f3f3f
    a09a:	3f3f3f3f 3f3f3f3f 	.insn	8, 0x3f3f3f3f3f3f3f3f
    a0a2:	3f3f3f3f 3f3f3f3f 	.insn	8, 0x3f3f3f3f3f3f3f3f
    a0aa:	3f3f3f3f 3f3f3f3f 	.insn	8, 0x3f3f3f3f3f3f3f3f
    a0b2:	3f3f3f3f 3f3f3f3f 	.insn	8, 0x3f3f3f3f3f3f3f3f
    a0ba:	3f3f3f3f 3f3f3f3f 	.insn	8, 0x3f3f3f3f3f3f3f3f
    a0c2:	3f3f3f3f 3f3f3f3f 	.insn	8, 0x3f3f3f3f3f3f3f3f
    a0ca:	3f3f3f3f 3f3f3f3f 	.insn	8, 0x3f3f3f3f3f3f3f3f
    a0d2:	3f3f3f3f 3f3f3f3f 	.insn	8, 0x3f3f3f3f3f3f3f3f
    a0da:	3f3f3f3f 3f3f3f3f 	.insn	8, 0x3f3f3f3f3f3f3f3f
    a0e2:	3f3f3f3f 3f3f3f3f 	.insn	8, 0x3f3f3f3f3f3f3f3f
    a0ea:	3f3f3f3f 3f3f3f3f 	.insn	8, 0x3f3f3f3f3f3f3f3f
    a0f2:	3f3f3f3f 3f3f3f3f 	.insn	8, 0x3f3f3f3f3f3f3f3f
    a0fa:	3f3f3f3f 3f3f3f3f 	.insn	8, 0x3f3f3f3f3f3f3f3f
    a102:	3f3f3f3f 3f3f3f3f 	.insn	8, 0x3f3f3f3f3f3f3f3f
    a10a:	3f3f3f3f 3f3f3f3f 	.insn	8, 0x3f3f3f3f3f3f3f3f
    a112:	3f3f3f3f 3f3f3f3f 	.insn	8, 0x3f3f3f3f3f3f3f3f
    a11a:	3f3f3f3f 3f3f3f3f 	.insn	8, 0x3f3f3f3f3f3f3f3f
    a122:	3f3f3f3f 3f3f3f3f 	.insn	8, 0x3f3f3f3f3f3f3f3f
    a12a:	3f3f3f3f 3f3f3f3f 	.insn	8, 0x3f3f3f3f3f3f3f3f
    a132:	3f3f3f3f 3f3f3f3f 	.insn	8, 0x3f3f3f3f3f3f3f3f
    a13a:	3f3f3f3f 3f3f3f3f 	.insn	8, 0x3f3f3f3f3f3f3f3f
    a142:	3f3f3f3f 3f3f3f3f 	.insn	8, 0x3f3f3f3f3f3f3f3f
    a14a:	3f3f3f3f 3f3f3f3f 	.insn	8, 0x3f3f3f3f3f3f3f3f
    a152:	3f3f3f3f 3f3f3f3f 	.insn	8, 0x3f3f3f3f3f3f3f3f
    a15a:	3f3f3f3f 3f3f3f3f 	.insn	8, 0x3f3f3f3f3f3f3f3f
    a162:	3f3f3f3f 3f3f3f3f 	.insn	8, 0x3f3f3f3f3f3f3f3f
    a16a:	3f3f3f3f 3f3f3f3f 	.insn	8, 0x3f3f3f3f3f3f3f3f
    a172:	3f3f3f3f 3f3f3f3f 	.insn	8, 0x3f3f3f3f3f3f3f3f
    a17a:	3f3f3f3f 3f3f3f3f 	.insn	8, 0x3f3f3f3f3f3f3f3f
    a182:	3f3f3f3f 3f3f3f3f 	.insn	8, 0x3f3f3f3f3f3f3f3f
    a18a:	3f3f3f3f 3f3f3f3f 	.insn	8, 0x3f3f3f3f3f3f3f3f
    a192:	3f3f3f3f 3f3f3f3f 	.insn	8, 0x3f3f3f3f3f3f3f3f
    a19a:	3f3f3f3f 3f3f3f3f 	.insn	8, 0x3f3f3f3f3f3f3f3f
    a1a2:	3f3f3f3f 3f3f3f3f 	.insn	8, 0x3f3f3f3f3f3f3f3f
    a1aa:	3f3f3f3f 3f3f3f3f 	.insn	8, 0x3f3f3f3f3f3f3f3f
    a1b2:	3f3f3f3f 3f3f3f3f 	.insn	8, 0x3f3f3f3f3f3f3f3f
    a1ba:	3f3f3f3f 3f3f3f3f 	.insn	8, 0x3f3f3f3f3f3f3f3f
    a1c2:	3f3f3f3f 3f3f3f3f 	.insn	8, 0x3f3f3f3f3f3f3f3f
    a1ca:	3f3f3f3f 3f3f3f3f 	.insn	8, 0x3f3f3f3f3f3f3f3f
    a1d2:	3f3f3f3f 3f3f3f3f 	.insn	8, 0x3f3f3f3f3f3f3f3f
    a1da:	3f3f3f3f 3f3f3f3f 	.insn	8, 0x3f3f3f3f3f3f3f3f
    a1e2:	3f3f3f3f 3f3f3f3f 	.insn	8, 0x3f3f3f3f3f3f3f3f
    a1ea:	3f3f3f3f 3f3f3f3f 	.insn	8, 0x3f3f3f3f3f3f3f3f
    a1f2:	3f3f3f3f 3f3f3f3f 	.insn	8, 0x3f3f3f3f3f3f3f3f
    a1fa:	3f3f3f3f 3f3f3f3f 	.insn	8, 0x3f3f3f3f3f3f3f3f
    a202:	3f3f3f3f 3f3f3f3f 	.insn	8, 0x3f3f3f3f3f3f3f3f
    a20a:	3f3f3f3f 3f3f3f3f 	.insn	8, 0x3f3f3f3f3f3f3f3f
    a212:	3f3f3f3f 3f3f3f3f 	.insn	8, 0x3f3f3f3f3f3f3f3f
    a21a:	3f3f3f3f 3f3f3f3f 	.insn	8, 0x3f3f3f3f3f3f3f3f
    a222:	3f3f3f3f 3f3f3f3f 	.insn	8, 0x3f3f3f3f3f3f3f3f
    a22a:	3f3f3f3f 3f3f3f3f 	.insn	8, 0x3f3f3f3f3f3f3f3f
    a232:	3f3f3f3f 3f3f3f3f 	.insn	8, 0x3f3f3f3f3f3f3f3f
    a23a:	3f3f3f3f 3f3f3f3f 	.insn	8, 0x3f3f3f3f3f3f3f3f
    a242:	3f3f3f3f 3f3f3f3f 	.insn	8, 0x3f3f3f3f3f3f3f3f
    a24a:	3f3f3f3f 3f3f3f3f 	.insn	8, 0x3f3f3f3f3f3f3f3f
    a252:	3f3f3f3f 3f3f3f3f 	.insn	8, 0x3f3f3f3f3f3f3f3f
    a25a:	3f3f3f3f 3f3f3f3f 	.insn	8, 0x3f3f3f3f3f3f3f3f
    a262:	3f3f3f3f 3f3f3f3f 	.insn	8, 0x3f3f3f3f3f3f3f3f
    a26a:	3f3f3f3f 3f3f3f3f 	.insn	8, 0x3f3f3f3f3f3f3f3f
    a272:	3f3f3f3f 3f3f3f3f 	.insn	8, 0x3f3f3f3f3f3f3f3f
    a27a:	3f3f3f3f 3f3f3f3f 	.insn	8, 0x3f3f3f3f3f3f3f3f
    a282:	3f3f3f3f 3f3f3f3f 	.insn	8, 0x3f3f3f3f3f3f3f3f
    a28a:	3f3f3f3f 3f3f3f3f 	.insn	8, 0x3f3f3f3f3f3f3f3f
    a292:	3f3f3f3f 3f3f3f3f 	.insn	8, 0x3f3f3f3f3f3f3f3f
    a29a:	3f3f3f3f 3f3f3f3f 	.insn	8, 0x3f3f3f3f3f3f3f3f
    a2a2:	3f3f3f3f 3f3f3f3f 	.insn	8, 0x3f3f3f3f3f3f3f3f
    a2aa:	3f3f3f3f 3f3f3f3f 	.insn	8, 0x3f3f3f3f3f3f3f3f
    a2b2:	3f3f3f3f 3f3f3f3f 	.insn	8, 0x3f3f3f3f3f3f3f3f
    a2ba:	3f3f3f3f 3f3f3f3f 	.insn	8, 0x3f3f3f3f3f3f3f3f
    a2c2:	3f3f3f3f 3f3f3f3f 	.insn	8, 0x3f3f3f3f3f3f3f3f
    a2ca:	3f3f3f3f 3f3f3f3f 	.insn	8, 0x3f3f3f3f3f3f3f3f
    a2d2:	3f3f3f3f 3f3f3f3f 	.insn	8, 0x3f3f3f3f3f3f3f3f
    a2da:	3f3f3f3f 3f3f3f3f 	.insn	8, 0x3f3f3f3f3f3f3f3f
    a2e2:	3f3f3f3f 3f3f3f3f 	.insn	8, 0x3f3f3f3f3f3f3f3f
    a2ea:	3f3f3f3f 3f3f3f3f 	.insn	8, 0x3f3f3f3f3f3f3f3f
    a2f2:	3f3f3f3f 3f3f3f3f 	.insn	8, 0x3f3f3f3f3f3f3f3f
    a2fa:	3f3f3f3f 3f3f3f3f 	.insn	8, 0x3f3f3f3f3f3f3f3f
    a302:	3f3f3f3f 3f3f3f3f 	.insn	8, 0x3f3f3f3f3f3f3f3f
    a30a:	3f3f3f3f 3f3f3f3f 	.insn	8, 0x3f3f3f3f3f3f3f3f
    a312:	3f3f3f3f 3f3f3f3f 	.insn	8, 0x3f3f3f3f3f3f3f3f
    a31a:	3f3f3f3f 3f3f3f3f 	.insn	8, 0x3f3f3f3f3f3f3f3f
    a322:	3f3f3f3f 3f3f3f3f 	.insn	8, 0x3f3f3f3f3f3f3f3f
    a32a:	3f3f3f3f 3f3f3f3f 	.insn	8, 0x3f3f3f3f3f3f3f3f
    a332:	3f3f3f3f 3f3f3f3f 	.insn	8, 0x3f3f3f3f3f3f3f3f
    a33a:	3f3f3f3f 3f3f3f3f 	.insn	8, 0x3f3f3f3f3f3f3f3f
    a342:	3f3f3f3f 3f3f3f3f 	.insn	8, 0x3f3f3f3f3f3f3f3f
    a34a:	3f3f3f3f 3f3f3f3f 	.insn	8, 0x3f3f3f3f3f3f3f3f
    a352:	3f3f3f3f 3f3f3f3f 	.insn	8, 0x3f3f3f3f3f3f3f3f
    a35a:	3f3f3f3f 3f3f3f3f 	.insn	8, 0x3f3f3f3f3f3f3f3f
    a362:	3f3f3f3f 3f3f3f3f 	.insn	8, 0x3f3f3f3f3f3f3f3f
    a36a:	3f3f3f3f 3f3f3f3f 	.insn	8, 0x3f3f3f3f3f3f3f3f
    a372:	3f3f3f3f 3f3f3f3f 	.insn	8, 0x3f3f3f3f3f3f3f3f
    a37a:	3f3f3f3f 3f3f3f3f 	.insn	8, 0x3f3f3f3f3f3f3f3f
    a382:	3f3f3f3f 3f3f3f3f 	.insn	8, 0x3f3f3f3f3f3f3f3f
    a38a:	3f3f3f3f 3f3f3f3f 	.insn	8, 0x3f3f3f3f3f3f3f3f
    a392:	3f3f3f3f 3f3f3f3f 	.insn	8, 0x3f3f3f3f3f3f3f3f
    a39a:	3f3f3f3f 3f3f3f3f 	.insn	8, 0x3f3f3f3f3f3f3f3f
    a3a2:	3f3f3f3f 3f3f3f3f 	.insn	8, 0x3f3f3f3f3f3f3f3f
    a3aa:	3f3f3f3f 3f3f3f3f 	.insn	8, 0x3f3f3f3f3f3f3f3f
    a3b2:	3f3f3f3f 3f3f3f3f 	.insn	8, 0x3f3f3f3f3f3f3f3f
    a3ba:	3f3f3f3f 3f3f3f3f 	.insn	8, 0x3f3f3f3f3f3f3f3f
    a3c2:	3f3f3f3f 3f3f3f3f 	.insn	8, 0x3f3f3f3f3f3f3f3f
    a3ca:	3f3f3f3f 3f3f3f3f 	.insn	8, 0x3f3f3f3f3f3f3f3f
    a3d2:	3f3f3f3f 3f3f3f3f 	.insn	8, 0x3f3f3f3f3f3f3f3f
    a3da:	3f3f3f3f 3f3f3f3f 	.insn	8, 0x3f3f3f3f3f3f3f3f
    a3e2:	3f3f3f3f 3f3f3f3f 	.insn	8, 0x3f3f3f3f3f3f3f3f
    a3ea:	3f3f3f3f 3f3f3f3f 	.insn	8, 0x3f3f3f3f3f3f3f3f
    a3f2:	3f3f3f3f 3f3f3f3f 	.insn	8, 0x3f3f3f3f3f3f3f3f
    a3fa:	3f3f3f3f 3f3f3f3f 	.insn	8, 0x3f3f3f3f3f3f3f3f
    a402:	3f3f3f3f 3f3f3f3f 	.insn	8, 0x3f3f3f3f3f3f3f3f
    a40a:	3f3f3f3f 3f3f3f3f 	.insn	8, 0x3f3f3f3f3f3f3f3f
    a412:	3f3f3f3f 3f3f3f3f 	.insn	8, 0x3f3f3f3f3f3f3f3f
    a41a:	3f3f3f3f 3f3f3f3f 	.insn	8, 0x3f3f3f3f3f3f3f3f
    a422:	3f3f3f3f 3f3f3f3f 	.insn	8, 0x3f3f3f3f3f3f3f3f
    a42a:	3f3f3f3f 3f3f3f3f 	.insn	8, 0x3f3f3f3f3f3f3f3f
    a432:	3f3f3f3f 3f3f3f3f 	.insn	8, 0x3f3f3f3f3f3f3f3f
    a43a:	3f3f3f3f 3f3f3f3f 	.insn	8, 0x3f3f3f3f3f3f3f3f
    a442:	3f3f3f3f 3f3f3f3f 	.insn	8, 0x3f3f3f3f3f3f3f3f
    a44a:	3f3f3f3f 3f3f3f3f 	.insn	8, 0x3f3f3f3f3f3f3f3f
    a452:	3f3f3f3f 3f3f3f3f 	.insn	8, 0x3f3f3f3f3f3f3f3f
    a45a:	3f3f3f3f 3f3f3f3f 	.insn	8, 0x3f3f3f3f3f3f3f3f
    a462:	3f3f3f3f 3f3f3f3f 	.insn	8, 0x3f3f3f3f3f3f3f3f
    a46a:	3f3f3f3f 3f3f3f3f 	.insn	8, 0x3f3f3f3f3f3f3f3f
    a472:	3f3f3f3f 3f3f3f3f 	.insn	8, 0x3f3f3f3f3f3f3f3f
    a47a:	3f3f3f3f 3f3f3f3f 	.insn	8, 0x3f3f3f3f3f3f3f3f
    a482:	3f3f3f3f 3f3f3f3f 	.insn	8, 0x3f3f3f3f3f3f3f3f
    a48a:	3f3f3f3f 3f3f3f3f 	.insn	8, 0x3f3f3f3f3f3f3f3f
    a492:	3f3f3f3f 3f3f3f3f 	.insn	8, 0x3f3f3f3f3f3f3f3f
    a49a:	3f3f3f3f 3f3f3f3f 	.insn	8, 0x3f3f3f3f3f3f3f3f
    a4a2:	3f3f3f3f 3f3f3f3f 	.insn	8, 0x3f3f3f3f3f3f3f3f
    a4aa:	3f3f3f3f 3f3f3f3f 	.insn	8, 0x3f3f3f3f3f3f3f3f
    a4b2:	3f3f3f3f 3f3f3f3f 	.insn	8, 0x3f3f3f3f3f3f3f3f
    a4ba:	3f3f3f3f 3f3f3f3f 	.insn	8, 0x3f3f3f3f3f3f3f3f
    a4c2:	3f3f3f3f 3f3f3f3f 	.insn	8, 0x3f3f3f3f3f3f3f3f
    a4ca:	3f3f3f3f 3f3f3f3f 	.insn	8, 0x3f3f3f3f3f3f3f3f
    a4d2:	3f3f3f3f 3f3f3f3f 	.insn	8, 0x3f3f3f3f3f3f3f3f
    a4da:	3f3f3f3f 3f3f3f3f 	.insn	8, 0x3f3f3f3f3f3f3f3f
    a4e2:	3f3f3f3f 3f3f3f3f 	.insn	8, 0x3f3f3f3f3f3f3f3f
    a4ea:	3f3f3f3f 3f3f3f3f 	.insn	8, 0x3f3f3f3f3f3f3f3f
    a4f2:	3f3f3f3f 3f3f3f3f 	.insn	8, 0x3f3f3f3f3f3f3f3f
    a4fa:	3f3f3f3f 3f3f3f3f 	.insn	8, 0x3f3f3f3f3f3f3f3f
    a502:	3f3f3f3f 3f3f3f3f 	.insn	8, 0x3f3f3f3f3f3f3f3f
    a50a:	3f3f3f3f 3f3f3f3f 	.insn	8, 0x3f3f3f3f3f3f3f3f
    a512:	3f3f3f3f 3f3f3f3f 	.insn	8, 0x3f3f3f3f3f3f3f3f
    a51a:	3f3f3f3f 3f3f3f3f 	.insn	8, 0x3f3f3f3f3f3f3f3f
    a522:	3f3f3f3f 3f3f3f3f 	.insn	8, 0x3f3f3f3f3f3f3f3f
    a52a:	3f3f3f3f 3f3f3f3f 	.insn	8, 0x3f3f3f3f3f3f3f3f
    a532:	3f3f3f3f 3f3f3f3f 	.insn	8, 0x3f3f3f3f3f3f3f3f
    a53a:	3f3f3f3f 3f3f3f3f 	.insn	8, 0x3f3f3f3f3f3f3f3f
    a542:	3f3f3f3f 3f3f3f3f 	.insn	8, 0x3f3f3f3f3f3f3f3f
    a54a:	3f3f3f3f 3f3f3f3f 	.insn	8, 0x3f3f3f3f3f3f3f3f
    a552:	3f3f3f3f 3f3f3f3f 	.insn	8, 0x3f3f3f3f3f3f3f3f
    a55a:	3f3f3f3f 3f3f3f3f 	.insn	8, 0x3f3f3f3f3f3f3f3f
    a562:	3f3f3f3f 3f3f3f3f 	.insn	8, 0x3f3f3f3f3f3f3f3f
    a56a:	3f3f3f3f 3f3f3f3f 	.insn	8, 0x3f3f3f3f3f3f3f3f
    a572:	3f3f3f3f 3f3f3f3f 	.insn	8, 0x3f3f3f3f3f3f3f3f
    a57a:	3f3f3f3f 3f3f3f3f 	.insn	8, 0x3f3f3f3f3f3f3f3f
    a582:	3f3f3f3f 3f3f3f3f 	.insn	8, 0x3f3f3f3f3f3f3f3f
    a58a:	3f3f3f3f 3f3f3f3f 	.insn	8, 0x3f3f3f3f3f3f3f3f
    a592:	3f3f3f3f 3f3f3f3f 	.insn	8, 0x3f3f3f3f3f3f3f3f
    a59a:	3f3f3f3f 3f3f3f3f 	.insn	8, 0x3f3f3f3f3f3f3f3f
    a5a2:	3f3f3f3f 3f3f3f3f 	.insn	8, 0x3f3f3f3f3f3f3f3f
    a5aa:	3f3f3f3f 3f3f3f3f 	.insn	8, 0x3f3f3f3f3f3f3f3f
    a5b2:	3f3f3f3f 3f3f3f3f 	.insn	8, 0x3f3f3f3f3f3f3f3f
    a5ba:	3f3f3f3f 3f3f3f3f 	.insn	8, 0x3f3f3f3f3f3f3f3f
    a5c2:	3f3f3f3f 3f3f3f3f 	.insn	8, 0x3f3f3f3f3f3f3f3f
    a5ca:	3f3f3f3f 3f3f3f3f 	.insn	8, 0x3f3f3f3f3f3f3f3f
    a5d2:	3f3f3f3f 3f3f3f3f 	.insn	8, 0x3f3f3f3f3f3f3f3f
    a5da:	3f3f3f3f 3f3f3f3f 	.insn	8, 0x3f3f3f3f3f3f3f3f
    a5e2:	3f3f3f3f 3f3f3f3f 	.insn	8, 0x3f3f3f3f3f3f3f3f
    a5ea:	3f3f3f3f 3f3f3f3f 	.insn	8, 0x3f3f3f3f3f3f3f3f
    a5f2:	3f3f3f3f 3f3f3f3f 	.insn	8, 0x3f3f3f3f3f3f3f3f
    a5fa:	3f3f3f3f 3f3f3f3f 	.insn	8, 0x3f3f3f3f3f3f3f3f
    a602:	3f3f3f3f 3f3f3f3f 	.insn	8, 0x3f3f3f3f3f3f3f3f
    a60a:	3f3f3f3f 3f3f3f3f 	.insn	8, 0x3f3f3f3f3f3f3f3f
    a612:	3f3f3f3f 3f3f3f3f 	.insn	8, 0x3f3f3f3f3f3f3f3f
    a61a:	3f3f3f3f 3f3f3f3f 	.insn	8, 0x3f3f3f3f3f3f3f3f
    a622:	3f3f3f3f 3f3f3f3f 	.insn	8, 0x3f3f3f3f3f3f3f3f
    a62a:	3f3f3f3f 3f3f3f3f 	.insn	8, 0x3f3f3f3f3f3f3f3f
    a632:	3f3f3f3f 3f3f3f3f 	.insn	8, 0x3f3f3f3f3f3f3f3f
    a63a:	3f3f3f3f 3f3f3f3f 	.insn	8, 0x3f3f3f3f3f3f3f3f
    a642:	3f3f3f3f 3f3f3f3f 	.insn	8, 0x3f3f3f3f3f3f3f3f
    a64a:	3f3f3f3f 3f3f3f3f 	.insn	8, 0x3f3f3f3f3f3f3f3f
    a652:	3f3f3f3f 3f3f3f3f 	.insn	8, 0x3f3f3f3f3f3f3f3f
    a65a:	3f3f3f3f 3f3f3f3f 	.insn	8, 0x3f3f3f3f3f3f3f3f
    a662:	3f3f3f3f 3f3f3f3f 	.insn	8, 0x3f3f3f3f3f3f3f3f
    a66a:	3f3f3f3f 3f3f3f3f 	.insn	8, 0x3f3f3f3f3f3f3f3f
    a672:	3f3f3f3f 3f3f3f3f 	.insn	8, 0x3f3f3f3f3f3f3f3f
    a67a:	3f3f3f3f 3f3f3f3f 	.insn	8, 0x3f3f3f3f3f3f3f3f
    a682:	3f3f3f3f 3f3f3f3f 	.insn	8, 0x3f3f3f3f3f3f3f3f
    a68a:	3f3f3f3f 3f3f3f3f 	.insn	8, 0x3f3f3f3f3f3f3f3f
    a692:	3f3f3f3f 3f3f3f3f 	.insn	8, 0x3f3f3f3f3f3f3f3f
    a69a:	3f3f3f3f 3f3f3f3f 	.insn	8, 0x3f3f3f3f3f3f3f3f
    a6a2:	3f3f3f3f 3f3f3f3f 	.insn	8, 0x3f3f3f3f3f3f3f3f
    a6aa:	3f3f3f3f 3f3f3f3f 	.insn	8, 0x3f3f3f3f3f3f3f3f
    a6b2:	3f3f3f3f 3f3f3f3f 	.insn	8, 0x3f3f3f3f3f3f3f3f
    a6ba:	3f3f3f3f 3f3f3f3f 	.insn	8, 0x3f3f3f3f3f3f3f3f
    a6c2:	3f3f3f3f 3f3f3f3f 	.insn	8, 0x3f3f3f3f3f3f3f3f
    a6ca:	3f3f3f3f 3f3f3f3f 	.insn	8, 0x3f3f3f3f3f3f3f3f
    a6d2:	3f3f3f3f 3f3f3f3f 	.insn	8, 0x3f3f3f3f3f3f3f3f
    a6da:	3f3f3f3f 3f3f3f3f 	.insn	8, 0x3f3f3f3f3f3f3f3f
    a6e2:	3f3f3f3f 3f3f3f3f 	.insn	8, 0x3f3f3f3f3f3f3f3f
    a6ea:	3f3f3f3f 3f3f3f3f 	.insn	8, 0x3f3f3f3f3f3f3f3f
    a6f2:	3f3f3f3f 3f3f3f3f 	.insn	8, 0x3f3f3f3f3f3f3f3f
    a6fa:	3f3f3f3f 3f3f3f3f 	.insn	8, 0x3f3f3f3f3f3f3f3f
    a702:	3f3f3f3f 3f3f3f3f 	.insn	8, 0x3f3f3f3f3f3f3f3f
    a70a:	3f3f3f3f 3f3f3f3f 	.insn	8, 0x3f3f3f3f3f3f3f3f
    a712:	3f3f3f3f 3f3f3f3f 	.insn	8, 0x3f3f3f3f3f3f3f3f
    a71a:	3f3f3f3f 3f3f3f3f 	.insn	8, 0x3f3f3f3f3f3f3f3f
    a722:	3f3f3f3f 3f3f3f3f 	.insn	8, 0x3f3f3f3f3f3f3f3f
    a72a:	3f3f3f3f 3f3f3f3f 	.insn	8, 0x3f3f3f3f3f3f3f3f
    a732:	3f3f3f3f 3f3f3f3f 	.insn	8, 0x3f3f3f3f3f3f3f3f
    a73a:	3f3f3f3f 3f3f3f3f 	.insn	8, 0x3f3f3f3f3f3f3f3f
    a742:	3f3f3f3f 3f3f3f3f 	.insn	8, 0x3f3f3f3f3f3f3f3f
    a74a:	3f3f3f3f 3f3f3f3f 	.insn	8, 0x3f3f3f3f3f3f3f3f
    a752:	3f3f3f3f 3f3f3f3f 	.insn	8, 0x3f3f3f3f3f3f3f3f
    a75a:	3f3f3f3f 3f3f3f3f 	.insn	8, 0x3f3f3f3f3f3f3f3f
    a762:	3f3f3f3f 3f3f3f3f 	.insn	8, 0x3f3f3f3f3f3f3f3f
    a76a:	3f3f3f3f 3f3f3f3f 	.insn	8, 0x3f3f3f3f3f3f3f3f
    a772:	3f3f3f3f 3f3f3f3f 	.insn	8, 0x3f3f3f3f3f3f3f3f
    a77a:	3f3f3f3f 3f3f3f3f 	.insn	8, 0x3f3f3f3f3f3f3f3f
    a782:	3f3f3f3f 3f3f3f3f 	.insn	8, 0x3f3f3f3f3f3f3f3f
    a78a:	3f3f3f3f 3f3f3f3f 	.insn	8, 0x3f3f3f3f3f3f3f3f
    a792:	3f3f3f3f 3f3f3f3f 	.insn	8, 0x3f3f3f3f3f3f3f3f
    a79a:	3f3f3f3f 3f3f3f3f 	.insn	8, 0x3f3f3f3f3f3f3f3f
    a7a2:	3f3f3f3f 3f3f3f3f 	.insn	8, 0x3f3f3f3f3f3f3f3f
    a7aa:	3f3f3f3f 3f3f3f3f 	.insn	8, 0x3f3f3f3f3f3f3f3f
    a7b2:	3f3f3f3f 3f3f3f3f 	.insn	8, 0x3f3f3f3f3f3f3f3f
    a7ba:	3f3f3f3f 3f3f3f3f 	.insn	8, 0x3f3f3f3f3f3f3f3f
    a7c2:	3f3f3f3f 3f3f3f3f 	.insn	8, 0x3f3f3f3f3f3f3f3f
    a7ca:	3f3f3f3f 3f3f3f3f 	.insn	8, 0x3f3f3f3f3f3f3f3f
    a7d2:	3f3f3f3f 3f3f3f3f 	.insn	8, 0x3f3f3f3f3f3f3f3f
    a7da:	3f3f3f3f 3f3f3f3f 	.insn	8, 0x3f3f3f3f3f3f3f3f
    a7e2:	3f3f3f3f 3f3f3f3f 	.insn	8, 0x3f3f3f3f3f3f3f3f
    a7ea:	3f3f3f3f 3f3f3f3f 	.insn	8, 0x3f3f3f3f3f3f3f3f
    a7f2:	3f3f3f3f 3f3f3f3f 	.insn	8, 0x3f3f3f3f3f3f3f3f
    a7fa:	3f3f3f3f 3f3f3f3f 	.insn	8, 0x3f3f3f3f3f3f3f3f
    a802:	3f3f3f3f 3f3f3f3f 	.insn	8, 0x3f3f3f3f3f3f3f3f
    a80a:	3f3f3f3f 3f3f3f3f 	.insn	8, 0x3f3f3f3f3f3f3f3f
    a812:	3f3f3f3f 3f3f3f3f 	.insn	8, 0x3f3f3f3f3f3f3f3f
    a81a:	3f3f3f3f 3f3f3f3f 	.insn	8, 0x3f3f3f3f3f3f3f3f
    a822:	3f3f3f3f 3f3f3f3f 	.insn	8, 0x3f3f3f3f3f3f3f3f
    a82a:	3f3f3f3f 3f3f3f3f 	.insn	8, 0x3f3f3f3f3f3f3f3f
    a832:	3f3f3f3f 3f3f3f3f 	.insn	8, 0x3f3f3f3f3f3f3f3f
    a83a:	3f3f3f3f 3f3f3f3f 	.insn	8, 0x3f3f3f3f3f3f3f3f
    a842:	3f3f3f3f 3f3f3f3f 	.insn	8, 0x3f3f3f3f3f3f3f3f
    a84a:	3f3f3f3f 3f3f3f3f 	.insn	8, 0x3f3f3f3f3f3f3f3f
    a852:	3f3f3f3f 3f3f3f3f 	.insn	8, 0x3f3f3f3f3f3f3f3f
    a85a:	3f3f3f3f 3f3f3f3f 	.insn	8, 0x3f3f3f3f3f3f3f3f
    a862:	3f3f3f3f 3f3f3f3f 	.insn	8, 0x3f3f3f3f3f3f3f3f
    a86a:	3f3f3f3f 3f3f3f3f 	.insn	8, 0x3f3f3f3f3f3f3f3f
    a872:	3f3f3f3f 3f3f3f3f 	.insn	8, 0x3f3f3f3f3f3f3f3f
    a87a:	3f3f3f3f 3f3f3f3f 	.insn	8, 0x3f3f3f3f3f3f3f3f
    a882:	3f3f3f3f 3f3f3f3f 	.insn	8, 0x3f3f3f3f3f3f3f3f
    a88a:	3f3f3f3f 3f3f3f3f 	.insn	8, 0x3f3f3f3f3f3f3f3f
    a892:	3f3f3f3f 3f3f3f3f 	.insn	8, 0x3f3f3f3f3f3f3f3f
    a89a:	3f3f3f3f 3f3f3f3f 	.insn	8, 0x3f3f3f3f3f3f3f3f
    a8a2:	3f3f3f3f 3f3f3f3f 	.insn	8, 0x3f3f3f3f3f3f3f3f
    a8aa:	3f3f3f3f 3f3f3f3f 	.insn	8, 0x3f3f3f3f3f3f3f3f
    a8b2:	3f3f3f3f 3f3f3f3f 	.insn	8, 0x3f3f3f3f3f3f3f3f
    a8ba:	3f3f3f3f 3f3f3f3f 	.insn	8, 0x3f3f3f3f3f3f3f3f
    a8c2:	3f3f3f3f 3f3f3f3f 	.insn	8, 0x3f3f3f3f3f3f3f3f
    a8ca:	3f3f3f3f 3f3f3f3f 	.insn	8, 0x3f3f3f3f3f3f3f3f
    a8d2:	3f3f3f3f 3f3f3f3f 	.insn	8, 0x3f3f3f3f3f3f3f3f
    a8da:	3f3f3f3f 3f3f3f3f 	.insn	8, 0x3f3f3f3f3f3f3f3f
    a8e2:	3f3f3f3f 3f3f3f3f 	.insn	8, 0x3f3f3f3f3f3f3f3f
    a8ea:	3f3f3f3f 3f3f3f3f 	.insn	8, 0x3f3f3f3f3f3f3f3f
    a8f2:	3f3f3f3f 3f3f3f3f 	.insn	8, 0x3f3f3f3f3f3f3f3f
    a8fa:	3f3f3f3f 3f3f3f3f 	.insn	8, 0x3f3f3f3f3f3f3f3f
    a902:	3f3f3f3f 3f3f3f3f 	.insn	8, 0x3f3f3f3f3f3f3f3f
    a90a:	3f3f3f3f 3f3f3f3f 	.insn	8, 0x3f3f3f3f3f3f3f3f
    a912:	3f3f3f3f 3f3f3f3f 	.insn	8, 0x3f3f3f3f3f3f3f3f
    a91a:	3f3f3f3f 3f3f3f3f 	.insn	8, 0x3f3f3f3f3f3f3f3f
    a922:	3f3f3f3f 3f3f3f3f 	.insn	8, 0x3f3f3f3f3f3f3f3f
    a92a:	3f3f3f3f 3f3f3f3f 	.insn	8, 0x3f3f3f3f3f3f3f3f
    a932:	3f3f3f3f 3f3f3f3f 	.insn	8, 0x3f3f3f3f3f3f3f3f
    a93a:	3f3f3f3f 3f3f3f3f 	.insn	8, 0x3f3f3f3f3f3f3f3f
    a942:	3f3f3f3f 3f3f3f3f 	.insn	8, 0x3f3f3f3f3f3f3f3f
    a94a:	3f3f3f3f 3f3f3f3f 	.insn	8, 0x3f3f3f3f3f3f3f3f
    a952:	3f3f3f3f 3f3f3f3f 	.insn	8, 0x3f3f3f3f3f3f3f3f
    a95a:	3f3f3f3f 3f3f3f3f 	.insn	8, 0x3f3f3f3f3f3f3f3f
    a962:	3f3f3f3f 3f3f3f3f 	.insn	8, 0x3f3f3f3f3f3f3f3f
    a96a:	3f3f3f3f 3f3f3f3f 	.insn	8, 0x3f3f3f3f3f3f3f3f
    a972:	3f3f3f3f 3f3f3f3f 	.insn	8, 0x3f3f3f3f3f3f3f3f
    a97a:	3f3f3f3f 3f3f3f3f 	.insn	8, 0x3f3f3f3f3f3f3f3f
    a982:	3f3f3f3f 3f3f3f3f 	.insn	8, 0x3f3f3f3f3f3f3f3f
    a98a:	3f3f3f3f 3f3f3f3f 	.insn	8, 0x3f3f3f3f3f3f3f3f
    a992:	3f3f3f3f 3f3f3f3f 	.insn	8, 0x3f3f3f3f3f3f3f3f
    a99a:	3f3f3f3f 3f3f3f3f 	.insn	8, 0x3f3f3f3f3f3f3f3f
    a9a2:	3f3f3f3f 3f3f3f3f 	.insn	8, 0x3f3f3f3f3f3f3f3f
    a9aa:	3f3f3f3f 3f3f3f3f 	.insn	8, 0x3f3f3f3f3f3f3f3f
    a9b2:	3f3f3f3f 3f3f3f3f 	.insn	8, 0x3f3f3f3f3f3f3f3f
    a9ba:	3f3f3f3f 3f3f3f3f 	.insn	8, 0x3f3f3f3f3f3f3f3f
    a9c2:	3f3f3f3f 3f3f3f3f 	.insn	8, 0x3f3f3f3f3f3f3f3f
    a9ca:	3f3f3f3f 3f3f3f3f 	.insn	8, 0x3f3f3f3f3f3f3f3f
    a9d2:	3f3f3f3f 3f3f3f3f 	.insn	8, 0x3f3f3f3f3f3f3f3f
    a9da:	3f3f3f3f 3f3f3f3f 	.insn	8, 0x3f3f3f3f3f3f3f3f
    a9e2:	3f3f3f3f 3f3f3f3f 	.insn	8, 0x3f3f3f3f3f3f3f3f
    a9ea:	3f3f3f3f 3f3f3f3f 	.insn	8, 0x3f3f3f3f3f3f3f3f
    a9f2:	3f3f3f3f 3f3f3f3f 	.insn	8, 0x3f3f3f3f3f3f3f3f
    a9fa:	3f3f3f3f 3f3f3f3f 	.insn	8, 0x3f3f3f3f3f3f3f3f
    aa02:	3f3f3f3f 3f3f3f3f 	.insn	8, 0x3f3f3f3f3f3f3f3f
    aa0a:	3f3f3f3f 3f3f3f3f 	.insn	8, 0x3f3f3f3f3f3f3f3f
    aa12:	3f3f3f3f 3f3f3f3f 	.insn	8, 0x3f3f3f3f3f3f3f3f
    aa1a:	3f3f3f3f 3f3f3f3f 	.insn	8, 0x3f3f3f3f3f3f3f3f
    aa22:	3f3f3f3f 3f3f3f3f 	.insn	8, 0x3f3f3f3f3f3f3f3f
    aa2a:	3f3f3f3f 3f3f3f3f 	.insn	8, 0x3f3f3f3f3f3f3f3f
    aa32:	3f3f3f3f 3f3f3f3f 	.insn	8, 0x3f3f3f3f3f3f3f3f
    aa3a:	3f3f3f3f 3f3f3f3f 	.insn	8, 0x3f3f3f3f3f3f3f3f
    aa42:	3f3f3f3f 3f3f3f3f 	.insn	8, 0x3f3f3f3f3f3f3f3f
    aa4a:	3f3f3f3f 3f3f3f3f 	.insn	8, 0x3f3f3f3f3f3f3f3f
    aa52:	3f3f3f3f 3f3f3f3f 	.insn	8, 0x3f3f3f3f3f3f3f3f
    aa5a:	3f3f3f3f 3f3f3f3f 	.insn	8, 0x3f3f3f3f3f3f3f3f
    aa62:	3f3f3f3f 3f3f3f3f 	.insn	8, 0x3f3f3f3f3f3f3f3f
    aa6a:	3f3f3f3f 3f3f3f3f 	.insn	8, 0x3f3f3f3f3f3f3f3f
    aa72:	3f3f3f3f 3f3f3f3f 	.insn	8, 0x3f3f3f3f3f3f3f3f
    aa7a:	3f3f3f3f 3f3f3f3f 	.insn	8, 0x3f3f3f3f3f3f3f3f
    aa82:	3f3f3f3f 3f3f3f3f 	.insn	8, 0x3f3f3f3f3f3f3f3f
    aa8a:	3f3f3f3f 3f3f3f3f 	.insn	8, 0x3f3f3f3f3f3f3f3f
    aa92:	3f3f3f3f 3f3f3f3f 	.insn	8, 0x3f3f3f3f3f3f3f3f
    aa9a:	3f3f3f3f 3f3f3f3f 	.insn	8, 0x3f3f3f3f3f3f3f3f
    aaa2:	3f3f3f3f 3f3f3f3f 	.insn	8, 0x3f3f3f3f3f3f3f3f
    aaaa:	3f3f3f3f 3f3f3f3f 	.insn	8, 0x3f3f3f3f3f3f3f3f
    aab2:	3f3f3f3f 3f3f3f3f 	.insn	8, 0x3f3f3f3f3f3f3f3f
    aaba:	3f3f3f3f 3f3f3f3f 	.insn	8, 0x3f3f3f3f3f3f3f3f
    aac2:	3f3f3f3f 3f3f3f3f 	.insn	8, 0x3f3f3f3f3f3f3f3f
    aaca:	3f3f3f3f 3f3f3f3f 	.insn	8, 0x3f3f3f3f3f3f3f3f
    aad2:	3f3f3f3f 3f3f3f3f 	.insn	8, 0x3f3f3f3f3f3f3f3f
    aada:	3f3f3f3f 3f3f3f3f 	.insn	8, 0x3f3f3f3f3f3f3f3f
    aae2:	3f3f3f3f 3f3f3f3f 	.insn	8, 0x3f3f3f3f3f3f3f3f
    aaea:	3f3f3f3f 3f3f3f3f 	.insn	8, 0x3f3f3f3f3f3f3f3f
    aaf2:	3f3f3f3f 3f3f3f3f 	.insn	8, 0x3f3f3f3f3f3f3f3f
    aafa:	3f3f3f3f 3f3f3f3f 	.insn	8, 0x3f3f3f3f3f3f3f3f
    ab02:	3f3f3f3f 3f3f3f3f 	.insn	8, 0x3f3f3f3f3f3f3f3f
    ab0a:	3f3f3f3f 3f3f3f3f 	.insn	8, 0x3f3f3f3f3f3f3f3f
    ab12:	3f3f3f3f 3f3f3f3f 	.insn	8, 0x3f3f3f3f3f3f3f3f
    ab1a:	3f3f3f3f 3f3f3f3f 	.insn	8, 0x3f3f3f3f3f3f3f3f
    ab22:	3f3f3f3f 3f3f3f3f 	.insn	8, 0x3f3f3f3f3f3f3f3f
    ab2a:	3f3f3f3f 3f3f3f3f 	.insn	8, 0x3f3f3f3f3f3f3f3f
    ab32:	3f3f3f3f 3f3f3f3f 	.insn	8, 0x3f3f3f3f3f3f3f3f
    ab3a:	3f3f3f3f 3f3f3f3f 	.insn	8, 0x3f3f3f3f3f3f3f3f
    ab42:	3f3f3f3f 3f3f3f3f 	.insn	8, 0x3f3f3f3f3f3f3f3f
    ab4a:	3f3f3f3f 3f3f3f3f 	.insn	8, 0x3f3f3f3f3f3f3f3f
    ab52:	3f3f3f3f 3f3f3f3f 	.insn	8, 0x3f3f3f3f3f3f3f3f
    ab5a:	3f3f3f3f 3f3f3f3f 	.insn	8, 0x3f3f3f3f3f3f3f3f
    ab62:	3f3f3f3f 3f3f3f3f 	.insn	8, 0x3f3f3f3f3f3f3f3f
    ab6a:	3f3f3f3f 3f3f3f3f 	.insn	8, 0x3f3f3f3f3f3f3f3f
    ab72:	3f3f3f3f 3f3f3f3f 	.insn	8, 0x3f3f3f3f3f3f3f3f
    ab7a:	3f3f3f3f 3f3f3f3f 	.insn	8, 0x3f3f3f3f3f3f3f3f
    ab82:	3f3f3f3f 3f3f3f3f 	.insn	8, 0x3f3f3f3f3f3f3f3f
    ab8a:	3f3f3f3f 3f3f3f3f 	.insn	8, 0x3f3f3f3f3f3f3f3f
    ab92:	3f3f3f3f 3f3f3f3f 	.insn	8, 0x3f3f3f3f3f3f3f3f
    ab9a:	3f3f3f3f 3f3f3f3f 	.insn	8, 0x3f3f3f3f3f3f3f3f
    aba2:	3f3f3f3f 3f3f3f3f 	.insn	8, 0x3f3f3f3f3f3f3f3f
    abaa:	3f3f3f3f 3f3f3f3f 	.insn	8, 0x3f3f3f3f3f3f3f3f
    abb2:	3f3f3f3f 3f3f3f3f 	.insn	8, 0x3f3f3f3f3f3f3f3f
    abba:	3f3f3f3f 3f3f3f3f 	.insn	8, 0x3f3f3f3f3f3f3f3f
    abc2:	3f3f3f3f 3f3f3f3f 	.insn	8, 0x3f3f3f3f3f3f3f3f
    abca:	3f3f3f3f 3f3f3f3f 	.insn	8, 0x3f3f3f3f3f3f3f3f
    abd2:	3f3f3f3f 3f3f3f3f 	.insn	8, 0x3f3f3f3f3f3f3f3f
    abda:	3f3f3f3f 3f3f3f3f 	.insn	8, 0x3f3f3f3f3f3f3f3f
    abe2:	3f3f3f3f 3f3f3f3f 	.insn	8, 0x3f3f3f3f3f3f3f3f
    abea:	3f3f3f3f 3f3f3f3f 	.insn	8, 0x3f3f3f3f3f3f3f3f
    abf2:	3f3f3f3f 3f3f3f3f 	.insn	8, 0x3f3f3f3f3f3f3f3f
    abfa:	3f3f3f3f 3f3f3f3f 	.insn	8, 0x3f3f3f3f3f3f3f3f
    ac02:	3f3f3f3f 3f3f3f3f 	.insn	8, 0x3f3f3f3f3f3f3f3f
    ac0a:	3f3f3f3f 3f3f3f3f 	.insn	8, 0x3f3f3f3f3f3f3f3f
    ac12:	3f3f3f3f 3f3f3f3f 	.insn	8, 0x3f3f3f3f3f3f3f3f
    ac1a:	3f3f3f3f 3f3f3f3f 	.insn	8, 0x3f3f3f3f3f3f3f3f
    ac22:	3f3f3f3f 3f3f3f3f 	.insn	8, 0x3f3f3f3f3f3f3f3f
    ac2a:	3f3f3f3f 3f3f3f3f 	.insn	8, 0x3f3f3f3f3f3f3f3f
    ac32:	3f3f3f3f 3f3f3f3f 	.insn	8, 0x3f3f3f3f3f3f3f3f
    ac3a:	3f3f3f3f 3f3f3f3f 	.insn	8, 0x3f3f3f3f3f3f3f3f
    ac42:	3f3f3f3f 3f3f3f3f 	.insn	8, 0x3f3f3f3f3f3f3f3f
    ac4a:	3f3f3f3f 3f3f3f3f 	.insn	8, 0x3f3f3f3f3f3f3f3f
    ac52:	3f3f3f3f 3f3f3f3f 	.insn	8, 0x3f3f3f3f3f3f3f3f
    ac5a:	3f3f3f3f 3f3f3f3f 	.insn	8, 0x3f3f3f3f3f3f3f3f
    ac62:	3f3f3f3f 3f3f3f3f 	.insn	8, 0x3f3f3f3f3f3f3f3f
    ac6a:	3f3f3f3f 3f3f3f3f 	.insn	8, 0x3f3f3f3f3f3f3f3f
    ac72:	3f3f3f3f 3f3f3f3f 	.insn	8, 0x3f3f3f3f3f3f3f3f
    ac7a:	3f3f3f3f 3f3f3f3f 	.insn	8, 0x3f3f3f3f3f3f3f3f
    ac82:	3f3f3f3f 3f3f3f3f 	.insn	8, 0x3f3f3f3f3f3f3f3f
    ac8a:	3f3f3f3f 3f3f3f3f 	.insn	8, 0x3f3f3f3f3f3f3f3f
    ac92:	3f3f3f3f 3f3f3f3f 	.insn	8, 0x3f3f3f3f3f3f3f3f
    ac9a:	3f3f3f3f 3f3f3f3f 	.insn	8, 0x3f3f3f3f3f3f3f3f
    aca2:	3f3f3f3f 3f3f3f3f 	.insn	8, 0x3f3f3f3f3f3f3f3f
    acaa:	3f3f3f3f 3f3f3f3f 	.insn	8, 0x3f3f3f3f3f3f3f3f
    acb2:	3f3f3f3f 3f3f3f3f 	.insn	8, 0x3f3f3f3f3f3f3f3f
    acba:	3f3f3f3f 3f3f3f3f 	.insn	8, 0x3f3f3f3f3f3f3f3f
    acc2:	3f3f3f3f 3f3f3f3f 	.insn	8, 0x3f3f3f3f3f3f3f3f
    acca:	3f3f3f3f 3f3f3f3f 	.insn	8, 0x3f3f3f3f3f3f3f3f
    acd2:	3f3f3f3f 3f3f3f3f 	.insn	8, 0x3f3f3f3f3f3f3f3f
    acda:	3f3f3f3f 3f3f3f3f 	.insn	8, 0x3f3f3f3f3f3f3f3f
    ace2:	3f3f3f3f 3f3f3f3f 	.insn	8, 0x3f3f3f3f3f3f3f3f
    acea:	3f3f3f3f 3f3f3f3f 	.insn	8, 0x3f3f3f3f3f3f3f3f
    acf2:	3f3f3f3f 3f3f3f3f 	.insn	8, 0x3f3f3f3f3f3f3f3f
    acfa:	3f3f3f3f 3f3f3f3f 	.insn	8, 0x3f3f3f3f3f3f3f3f
    ad02:	3f3f3f3f 3f3f3f3f 	.insn	8, 0x3f3f3f3f3f3f3f3f
    ad0a:	3f3f3f3f 3f3f3f3f 	.insn	8, 0x3f3f3f3f3f3f3f3f
    ad12:	3f3f3f3f 3f3f3f3f 	.insn	8, 0x3f3f3f3f3f3f3f3f
    ad1a:	3f3f3f3f 3f3f3f3f 	.insn	8, 0x3f3f3f3f3f3f3f3f
    ad22:	3f3f3f3f 3f3f3f3f 	.insn	8, 0x3f3f3f3f3f3f3f3f
    ad2a:	3f3f3f3f 3f3f3f3f 	.insn	8, 0x3f3f3f3f3f3f3f3f
    ad32:	3f3f3f3f 3f3f3f3f 	.insn	8, 0x3f3f3f3f3f3f3f3f
    ad3a:	3f3f3f3f 3f3f3f3f 	.insn	8, 0x3f3f3f3f3f3f3f3f
    ad42:	3f3f3f3f 3f3f3f3f 	.insn	8, 0x3f3f3f3f3f3f3f3f
    ad4a:	3f3f3f3f 3f3f3f3f 	.insn	8, 0x3f3f3f3f3f3f3f3f
    ad52:	3f3f3f3f 3f3f3f3f 	.insn	8, 0x3f3f3f3f3f3f3f3f
    ad5a:	3f3f3f3f 3f3f3f3f 	.insn	8, 0x3f3f3f3f3f3f3f3f
    ad62:	3f3f3f3f 3f3f3f3f 	.insn	8, 0x3f3f3f3f3f3f3f3f
    ad6a:	3f3f3f3f 3f3f3f3f 	.insn	8, 0x3f3f3f3f3f3f3f3f
    ad72:	3f3f3f3f 3f3f3f3f 	.insn	8, 0x3f3f3f3f3f3f3f3f
    ad7a:	3f3f3f3f 3f3f3f3f 	.insn	8, 0x3f3f3f3f3f3f3f3f
    ad82:	3f3f3f3f 3f3f3f3f 	.insn	8, 0x3f3f3f3f3f3f3f3f
    ad8a:	3f3f3f3f 3f3f3f3f 	.insn	8, 0x3f3f3f3f3f3f3f3f
    ad92:	3f3f3f3f 3f3f3f3f 	.insn	8, 0x3f3f3f3f3f3f3f3f
    ad9a:	3f3f3f3f 3f3f3f3f 	.insn	8, 0x3f3f3f3f3f3f3f3f
    ada2:	3f3f3f3f 3f3f3f3f 	.insn	8, 0x3f3f3f3f3f3f3f3f
    adaa:	3f3f3f3f 3f3f3f3f 	.insn	8, 0x3f3f3f3f3f3f3f3f
    adb2:	3f3f3f3f 3f3f3f3f 	.insn	8, 0x3f3f3f3f3f3f3f3f
    adba:	3f3f3f3f 3f3f3f3f 	.insn	8, 0x3f3f3f3f3f3f3f3f
    adc2:	3f3f3f3f 3f3f3f3f 	.insn	8, 0x3f3f3f3f3f3f3f3f
    adca:	3f3f3f3f 3f3f3f3f 	.insn	8, 0x3f3f3f3f3f3f3f3f
    add2:	3f3f3f3f 3f3f3f3f 	.insn	8, 0x3f3f3f3f3f3f3f3f
    adda:	3f3f3f3f 3f3f3f3f 	.insn	8, 0x3f3f3f3f3f3f3f3f
    ade2:	3f3f3f3f 3f3f3f3f 	.insn	8, 0x3f3f3f3f3f3f3f3f
    adea:	3f3f3f3f 3f3f3f3f 	.insn	8, 0x3f3f3f3f3f3f3f3f
    adf2:	3f3f3f3f 3f3f3f3f 	.insn	8, 0x3f3f3f3f3f3f3f3f
    adfa:	3f3f3f3f 3f3f3f3f 	.insn	8, 0x3f3f3f3f3f3f3f3f
    ae02:	3f3f3f3f 3f3f3f3f 	.insn	8, 0x3f3f3f3f3f3f3f3f
    ae0a:	3f3f3f3f 3f3f3f3f 	.insn	8, 0x3f3f3f3f3f3f3f3f
    ae12:	3f3f3f3f 3f3f3f3f 	.insn	8, 0x3f3f3f3f3f3f3f3f
    ae1a:	3f3f3f3f 3f3f3f3f 	.insn	8, 0x3f3f3f3f3f3f3f3f
    ae22:	3f3f3f3f 3f3f3f3f 	.insn	8, 0x3f3f3f3f3f3f3f3f
    ae2a:	3f3f3f3f 3f3f3f3f 	.insn	8, 0x3f3f3f3f3f3f3f3f
    ae32:	3f3f3f3f 3f3f3f3f 	.insn	8, 0x3f3f3f3f3f3f3f3f
    ae3a:	3f3f3f3f 3f3f3f3f 	.insn	8, 0x3f3f3f3f3f3f3f3f
    ae42:	3f3f3f3f 3f3f3f3f 	.insn	8, 0x3f3f3f3f3f3f3f3f
    ae4a:	3f3f3f3f 3f3f3f3f 	.insn	8, 0x3f3f3f3f3f3f3f3f
    ae52:	3f3f3f3f 3f3f3f3f 	.insn	8, 0x3f3f3f3f3f3f3f3f
    ae5a:	3f3f3f3f 3f3f3f3f 	.insn	8, 0x3f3f3f3f3f3f3f3f
    ae62:	3f3f3f3f 3f3f3f3f 	.insn	8, 0x3f3f3f3f3f3f3f3f
    ae6a:	3f3f3f3f 3f3f3f3f 	.insn	8, 0x3f3f3f3f3f3f3f3f
    ae72:	3f3f3f3f 3f3f3f3f 	.insn	8, 0x3f3f3f3f3f3f3f3f
    ae7a:	3f3f3f3f 3f3f3f3f 	.insn	8, 0x3f3f3f3f3f3f3f3f
    ae82:	3f3f3f3f 3f3f3f3f 	.insn	8, 0x3f3f3f3f3f3f3f3f
    ae8a:	3f3f3f3f 3f3f3f3f 	.insn	8, 0x3f3f3f3f3f3f3f3f
    ae92:	3f3f3f3f 3f3f3f3f 	.insn	8, 0x3f3f3f3f3f3f3f3f
    ae9a:	3f3f3f3f 3f3f3f3f 	.insn	8, 0x3f3f3f3f3f3f3f3f
    aea2:	3f3f3f3f 3f3f3f3f 	.insn	8, 0x3f3f3f3f3f3f3f3f
    aeaa:	3f3f3f3f 3f3f3f3f 	.insn	8, 0x3f3f3f3f3f3f3f3f
    aeb2:	3f3f3f3f 3f3f3f3f 	.insn	8, 0x3f3f3f3f3f3f3f3f
    aeba:	3f3f3f3f 3f3f3f3f 	.insn	8, 0x3f3f3f3f3f3f3f3f
    aec2:	3f3f3f3f 3f3f3f3f 	.insn	8, 0x3f3f3f3f3f3f3f3f
    aeca:	3f3f3f3f 3f3f3f3f 	.insn	8, 0x3f3f3f3f3f3f3f3f
    aed2:	3f3f3f3f 3f3f3f3f 	.insn	8, 0x3f3f3f3f3f3f3f3f
    aeda:	3f3f3f3f 3f3f3f3f 	.insn	8, 0x3f3f3f3f3f3f3f3f
    aee2:	3f3f3f3f 3f3f3f3f 	.insn	8, 0x3f3f3f3f3f3f3f3f
    aeea:	3f3f3f3f 3f3f3f3f 	.insn	8, 0x3f3f3f3f3f3f3f3f
    aef2:	3f3f3f3f 3f3f3f3f 	.insn	8, 0x3f3f3f3f3f3f3f3f
    aefa:	3f3f3f3f 3f3f3f3f 	.insn	8, 0x3f3f3f3f3f3f3f3f
    af02:	3f3f3f3f 3f3f3f3f 	.insn	8, 0x3f3f3f3f3f3f3f3f
    af0a:	3f3f3f3f 3f3f3f3f 	.insn	8, 0x3f3f3f3f3f3f3f3f
    af12:	3f3f3f3f 3f3f3f3f 	.insn	8, 0x3f3f3f3f3f3f3f3f
    af1a:	3f3f3f3f 3f3f3f3f 	.insn	8, 0x3f3f3f3f3f3f3f3f
    af22:	3f3f3f3f 3f3f3f3f 	.insn	8, 0x3f3f3f3f3f3f3f3f
    af2a:	3f3f3f3f 3f3f3f3f 	.insn	8, 0x3f3f3f3f3f3f3f3f
    af32:	3f3f3f3f 3f3f3f3f 	.insn	8, 0x3f3f3f3f3f3f3f3f
    af3a:	3f3f3f3f 3f3f3f3f 	.insn	8, 0x3f3f3f3f3f3f3f3f
    af42:	3f3f3f3f 3f3f3f3f 	.insn	8, 0x3f3f3f3f3f3f3f3f
    af4a:	3f3f3f3f 3f3f3f3f 	.insn	8, 0x3f3f3f3f3f3f3f3f
    af52:	3f3f3f3f 3f3f3f3f 	.insn	8, 0x3f3f3f3f3f3f3f3f
    af5a:	3f3f3f3f 3f3f3f3f 	.insn	8, 0x3f3f3f3f3f3f3f3f
    af62:	3f3f3f3f 3f3f3f3f 	.insn	8, 0x3f3f3f3f3f3f3f3f
    af6a:	3f3f3f3f 3f3f3f3f 	.insn	8, 0x3f3f3f3f3f3f3f3f
    af72:	3f3f3f3f 3f3f3f3f 	.insn	8, 0x3f3f3f3f3f3f3f3f
    af7a:	3f3f3f3f 3f3f3f3f 	.insn	8, 0x3f3f3f3f3f3f3f3f
    af82:	3f3f3f3f 3f3f3f3f 	.insn	8, 0x3f3f3f3f3f3f3f3f
    af8a:	3f3f3f3f 3f3f3f3f 	.insn	8, 0x3f3f3f3f3f3f3f3f
    af92:	3f3f3f3f 3f3f3f3f 	.insn	8, 0x3f3f3f3f3f3f3f3f
    af9a:	3f3f3f3f 3f3f3f3f 	.insn	8, 0x3f3f3f3f3f3f3f3f
    afa2:	3f3f3f3f 3f3f3f3f 	.insn	8, 0x3f3f3f3f3f3f3f3f
    afaa:	3f3f3f3f 3f3f3f3f 	.insn	8, 0x3f3f3f3f3f3f3f3f
    afb2:	3f3f3f3f 3f3f3f3f 	.insn	8, 0x3f3f3f3f3f3f3f3f
    afba:	3f3f3f3f 3f3f3f3f 	.insn	8, 0x3f3f3f3f3f3f3f3f
    afc2:	3f3f3f3f 3f3f3f3f 	.insn	8, 0x3f3f3f3f3f3f3f3f
    afca:	3f3f3f3f 3f3f3f3f 	.insn	8, 0x3f3f3f3f3f3f3f3f
    afd2:	3f3f3f3f 3f3f3f3f 	.insn	8, 0x3f3f3f3f3f3f3f3f
    afda:	3f3f3f3f 3f3f3f3f 	.insn	8, 0x3f3f3f3f3f3f3f3f
    afe2:	3f3f3f3f 3f3f3f3f 	.insn	8, 0x3f3f3f3f3f3f3f3f
    afea:	3f3f3f3f 3f3f3f3f 	.insn	8, 0x3f3f3f3f3f3f3f3f
    aff2:	3f3f3f3f 3f3f3f3f 	.insn	8, 0x3f3f3f3f3f3f3f3f
    affa:	3f3f3f3f 3f3f3f3f 	.insn	8, 0x3f3f3f3f3f3f3f3f
    b002:	3f3f3f3f 3f3f3f3f 	.insn	8, 0x3f3f3f3f3f3f3f3f
    b00a:	3f3f3f3f 3f3f3f3f 	.insn	8, 0x3f3f3f3f3f3f3f3f
    b012:	3f3f3f3f 3f3f3f3f 	.insn	8, 0x3f3f3f3f3f3f3f3f
    b01a:	3f3f3f3f 3f3f3f3f 	.insn	8, 0x3f3f3f3f3f3f3f3f
    b022:	3f3f3f3f 3f3f3f3f 	.insn	8, 0x3f3f3f3f3f3f3f3f
    b02a:	3f3f3f3f 3f3f3f3f 	.insn	8, 0x3f3f3f3f3f3f3f3f
    b032:	3f3f3f3f 3f3f3f3f 	.insn	8, 0x3f3f3f3f3f3f3f3f
    b03a:	3f3f3f3f 3f3f3f3f 	.insn	8, 0x3f3f3f3f3f3f3f3f
    b042:	3f3f3f3f 3f3f3f3f 	.insn	8, 0x3f3f3f3f3f3f3f3f
    b04a:	3f3f3f3f 3f3f3f3f 	.insn	8, 0x3f3f3f3f3f3f3f3f
    b052:	3f3f3f3f 3f3f3f3f 	.insn	8, 0x3f3f3f3f3f3f3f3f
    b05a:	3f3f3f3f 3f3f3f3f 	.insn	8, 0x3f3f3f3f3f3f3f3f
    b062:	3f3f3f3f 3f3f3f3f 	.insn	8, 0x3f3f3f3f3f3f3f3f
    b06a:	3f3f3f3f 3f3f3f3f 	.insn	8, 0x3f3f3f3f3f3f3f3f
    b072:	3f3f3f3f 3f3f3f3f 	.insn	8, 0x3f3f3f3f3f3f3f3f
    b07a:	3f3f3f3f 3f3f3f3f 	.insn	8, 0x3f3f3f3f3f3f3f3f
    b082:	3f3f3f3f 3f3f3f3f 	.insn	8, 0x3f3f3f3f3f3f3f3f
    b08a:	3f3f3f3f 3f3f3f3f 	.insn	8, 0x3f3f3f3f3f3f3f3f
    b092:	3f3f3f3f 3f3f3f3f 	.insn	8, 0x3f3f3f3f3f3f3f3f
    b09a:	3f3f3f3f 3f3f3f3f 	.insn	8, 0x3f3f3f3f3f3f3f3f
    b0a2:	3f3f3f3f 3f3f3f3f 	.insn	8, 0x3f3f3f3f3f3f3f3f
    b0aa:	3f3f3f3f 3f3f3f3f 	.insn	8, 0x3f3f3f3f3f3f3f3f
    b0b2:	3f3f3f3f 3f3f3f3f 	.insn	8, 0x3f3f3f3f3f3f3f3f
    b0ba:	3f3f3f3f 3f3f3f3f 	.insn	8, 0x3f3f3f3f3f3f3f3f
    b0c2:	3f3f3f3f 3f3f3f3f 	.insn	8, 0x3f3f3f3f3f3f3f3f
    b0ca:	3f3f3f3f 3f3f3f3f 	.insn	8, 0x3f3f3f3f3f3f3f3f
    b0d2:	3f3f3f3f 3f3f3f3f 	.insn	8, 0x3f3f3f3f3f3f3f3f
    b0da:	3f3f3f3f 3f3f3f3f 	.insn	8, 0x3f3f3f3f3f3f3f3f
    b0e2:	3f3f3f3f 3f3f3f3f 	.insn	8, 0x3f3f3f3f3f3f3f3f
    b0ea:	3f3f3f3f 3f3f3f3f 	.insn	8, 0x3f3f3f3f3f3f3f3f
    b0f2:	3f3f3f3f 3f3f3f3f 	.insn	8, 0x3f3f3f3f3f3f3f3f
    b0fa:	3f3f3f3f 3f3f3f3f 	.insn	8, 0x3f3f3f3f3f3f3f3f
    b102:	3f3f3f3f 3f3f3f3f 	.insn	8, 0x3f3f3f3f3f3f3f3f
    b10a:	3f3f3f3f 3f3f3f3f 	.insn	8, 0x3f3f3f3f3f3f3f3f
    b112:	3f3f3f3f 3f3f3f3f 	.insn	8, 0x3f3f3f3f3f3f3f3f
    b11a:	3f3f3f3f 3f3f3f3f 	.insn	8, 0x3f3f3f3f3f3f3f3f
    b122:	3f3f3f3f 3f3f3f3f 	.insn	8, 0x3f3f3f3f3f3f3f3f
    b12a:	3f3f3f3f 3f3f3f3f 	.insn	8, 0x3f3f3f3f3f3f3f3f
    b132:	3f3f3f3f 3f3f3f3f 	.insn	8, 0x3f3f3f3f3f3f3f3f
    b13a:	3f3f3f3f 3f3f3f3f 	.insn	8, 0x3f3f3f3f3f3f3f3f
    b142:	3f3f3f3f 3f3f3f3f 	.insn	8, 0x3f3f3f3f3f3f3f3f
    b14a:	3f3f3f3f 3f3f3f3f 	.insn	8, 0x3f3f3f3f3f3f3f3f
    b152:	3f3f3f3f 3f3f3f3f 	.insn	8, 0x3f3f3f3f3f3f3f3f
    b15a:	3f3f3f3f 3f3f3f3f 	.insn	8, 0x3f3f3f3f3f3f3f3f
    b162:	3f3f3f3f 3f3f3f3f 	.insn	8, 0x3f3f3f3f3f3f3f3f
    b16a:	3f3f3f3f 3f3f3f3f 	.insn	8, 0x3f3f3f3f3f3f3f3f
    b172:	3f3f3f3f 3f3f3f3f 	.insn	8, 0x3f3f3f3f3f3f3f3f
    b17a:	3f3f3f3f 3f3f3f3f 	.insn	8, 0x3f3f3f3f3f3f3f3f
    b182:	3f3f3f3f 3f3f3f3f 	.insn	8, 0x3f3f3f3f3f3f3f3f
    b18a:	3f3f3f3f 3f3f3f3f 	.insn	8, 0x3f3f3f3f3f3f3f3f
    b192:	3f3f3f3f 3f3f3f3f 	.insn	8, 0x3f3f3f3f3f3f3f3f
    b19a:	3f3f3f3f 3f3f3f3f 	.insn	8, 0x3f3f3f3f3f3f3f3f
    b1a2:	3f3f3f3f 3f3f3f3f 	.insn	8, 0x3f3f3f3f3f3f3f3f
    b1aa:	3f3f3f3f 3f3f3f3f 	.insn	8, 0x3f3f3f3f3f3f3f3f
    b1b2:	3f3f3f3f 3f3f3f3f 	.insn	8, 0x3f3f3f3f3f3f3f3f
    b1ba:	3f3f3f3f 3f3f3f3f 	.insn	8, 0x3f3f3f3f3f3f3f3f
    b1c2:	3f3f3f3f 3f3f3f3f 	.insn	8, 0x3f3f3f3f3f3f3f3f
    b1ca:	3f3f3f3f 3f3f3f3f 	.insn	8, 0x3f3f3f3f3f3f3f3f
    b1d2:	3f3f3f3f 3f3f3f3f 	.insn	8, 0x3f3f3f3f3f3f3f3f
    b1da:	3f3f3f3f 3f3f3f3f 	.insn	8, 0x3f3f3f3f3f3f3f3f
    b1e2:	3f3f3f3f 3f3f3f3f 	.insn	8, 0x3f3f3f3f3f3f3f3f
    b1ea:	3f3f3f3f 3f3f3f3f 	.insn	8, 0x3f3f3f3f3f3f3f3f
    b1f2:	3f3f3f3f 3f3f3f3f 	.insn	8, 0x3f3f3f3f3f3f3f3f
    b1fa:	3f3f3f3f 3f3f3f3f 	.insn	8, 0x3f3f3f3f3f3f3f3f
    b202:	3f3f3f3f 3f3f3f3f 	.insn	8, 0x3f3f3f3f3f3f3f3f
    b20a:	3f3f3f3f 3f3f3f3f 	.insn	8, 0x3f3f3f3f3f3f3f3f
    b212:	3f3f3f3f 3f3f3f3f 	.insn	8, 0x3f3f3f3f3f3f3f3f
    b21a:	3f3f3f3f 3f3f3f3f 	.insn	8, 0x3f3f3f3f3f3f3f3f
    b222:	3f3f3f3f 3f3f3f3f 	.insn	8, 0x3f3f3f3f3f3f3f3f
    b22a:	3f3f3f3f 3f3f3f3f 	.insn	8, 0x3f3f3f3f3f3f3f3f
    b232:	3f3f3f3f 3f3f3f3f 	.insn	8, 0x3f3f3f3f3f3f3f3f
    b23a:	3f3f3f3f 3f3f3f3f 	.insn	8, 0x3f3f3f3f3f3f3f3f
    b242:	3f3f3f3f 3f3f3f3f 	.insn	8, 0x3f3f3f3f3f3f3f3f
    b24a:	3f3f3f3f 3f3f3f3f 	.insn	8, 0x3f3f3f3f3f3f3f3f
    b252:	3f3f3f3f 3f3f3f3f 	.insn	8, 0x3f3f3f3f3f3f3f3f
    b25a:	3f3f3f3f 3f3f3f3f 	.insn	8, 0x3f3f3f3f3f3f3f3f
    b262:	3f3f3f3f 3f3f3f3f 	.insn	8, 0x3f3f3f3f3f3f3f3f
    b26a:	3f3f3f3f 3f3f3f3f 	.insn	8, 0x3f3f3f3f3f3f3f3f
    b272:	3f3f3f3f 3f3f3f3f 	.insn	8, 0x3f3f3f3f3f3f3f3f
    b27a:	3f3f3f3f 3f3f3f3f 	.insn	8, 0x3f3f3f3f3f3f3f3f
    b282:	3f3f3f3f 3f3f3f3f 	.insn	8, 0x3f3f3f3f3f3f3f3f
    b28a:	3f3f3f3f 3f3f3f3f 	.insn	8, 0x3f3f3f3f3f3f3f3f
    b292:	3f3f3f3f 3f3f3f3f 	.insn	8, 0x3f3f3f3f3f3f3f3f
    b29a:	3f3f3f3f 3f3f3f3f 	.insn	8, 0x3f3f3f3f3f3f3f3f
    b2a2:	3f3f3f3f 3f3f3f3f 	.insn	8, 0x3f3f3f3f3f3f3f3f
    b2aa:	3f3f3f3f 3f3f3f3f 	.insn	8, 0x3f3f3f3f3f3f3f3f
    b2b2:	3f3f3f3f 3f3f3f3f 	.insn	8, 0x3f3f3f3f3f3f3f3f
    b2ba:	3f3f3f3f 3f3f3f3f 	.insn	8, 0x3f3f3f3f3f3f3f3f
    b2c2:	3f3f3f3f 3f3f3f3f 	.insn	8, 0x3f3f3f3f3f3f3f3f
    b2ca:	3f3f3f3f 3f3f3f3f 	.insn	8, 0x3f3f3f3f3f3f3f3f
    b2d2:	3f3f3f3f 3f3f3f3f 	.insn	8, 0x3f3f3f3f3f3f3f3f
    b2da:	3f3f3f3f 3f3f3f3f 	.insn	8, 0x3f3f3f3f3f3f3f3f
    b2e2:	3f3f3f3f 3f3f3f3f 	.insn	8, 0x3f3f3f3f3f3f3f3f
    b2ea:	3f3f3f3f 3f3f3f3f 	.insn	8, 0x3f3f3f3f3f3f3f3f
    b2f2:	3f3f3f3f 3f3f3f3f 	.insn	8, 0x3f3f3f3f3f3f3f3f
    b2fa:	3f3f3f3f 3f3f3f3f 	.insn	8, 0x3f3f3f3f3f3f3f3f
    b302:	3f3f3f3f 3f3f3f3f 	.insn	8, 0x3f3f3f3f3f3f3f3f
    b30a:	3f3f3f3f 3f3f3f3f 	.insn	8, 0x3f3f3f3f3f3f3f3f
    b312:	3f3f3f3f 3f3f3f3f 	.insn	8, 0x3f3f3f3f3f3f3f3f
    b31a:	3f3f3f3f 3f3f3f3f 	.insn	8, 0x3f3f3f3f3f3f3f3f
    b322:	3f3f3f3f 3f3f3f3f 	.insn	8, 0x3f3f3f3f3f3f3f3f
    b32a:	3f3f3f3f 3f3f3f3f 	.insn	8, 0x3f3f3f3f3f3f3f3f
    b332:	3f3f3f3f 3f3f3f3f 	.insn	8, 0x3f3f3f3f3f3f3f3f
    b33a:	3f3f3f3f 3f3f3f3f 	.insn	8, 0x3f3f3f3f3f3f3f3f
    b342:	3f3f3f3f 3f3f3f3f 	.insn	8, 0x3f3f3f3f3f3f3f3f
    b34a:	3f3f3f3f 3f3f3f3f 	.insn	8, 0x3f3f3f3f3f3f3f3f
    b352:	3f3f3f3f 3f3f3f3f 	.insn	8, 0x3f3f3f3f3f3f3f3f
    b35a:	3f3f3f3f 3f3f3f3f 	.insn	8, 0x3f3f3f3f3f3f3f3f
    b362:	3f3f3f3f 3f3f3f3f 	.insn	8, 0x3f3f3f3f3f3f3f3f
    b36a:	3f3f3f3f 3f3f3f3f 	.insn	8, 0x3f3f3f3f3f3f3f3f
    b372:	3f3f3f3f 3f3f3f3f 	.insn	8, 0x3f3f3f3f3f3f3f3f
    b37a:	3f3f3f3f 3f3f3f3f 	.insn	8, 0x3f3f3f3f3f3f3f3f
    b382:	3f3f3f3f 3f3f3f3f 	.insn	8, 0x3f3f3f3f3f3f3f3f
    b38a:	3f3f3f3f 3f3f3f3f 	.insn	8, 0x3f3f3f3f3f3f3f3f
    b392:	3f3f3f3f 3f3f3f3f 	.insn	8, 0x3f3f3f3f3f3f3f3f
    b39a:	3f3f3f3f 3f3f3f3f 	.insn	8, 0x3f3f3f3f3f3f3f3f
    b3a2:	3f3f3f3f 3f3f3f3f 	.insn	8, 0x3f3f3f3f3f3f3f3f
    b3aa:	3f3f3f3f 3f3f3f3f 	.insn	8, 0x3f3f3f3f3f3f3f3f
    b3b2:	3f3f3f3f 3f3f3f3f 	.insn	8, 0x3f3f3f3f3f3f3f3f
    b3ba:	3f3f3f3f 3f3f3f3f 	.insn	8, 0x3f3f3f3f3f3f3f3f
    b3c2:	3f3f3f3f 3f3f3f3f 	.insn	8, 0x3f3f3f3f3f3f3f3f
    b3ca:	3f3f3f3f 3f3f3f3f 	.insn	8, 0x3f3f3f3f3f3f3f3f
    b3d2:	3f3f3f3f 3f3f3f3f 	.insn	8, 0x3f3f3f3f3f3f3f3f
    b3da:	3f3f3f3f 3f3f3f3f 	.insn	8, 0x3f3f3f3f3f3f3f3f
    b3e2:	3f3f3f3f 3f3f3f3f 	.insn	8, 0x3f3f3f3f3f3f3f3f
    b3ea:	3f3f3f3f 3f3f3f3f 	.insn	8, 0x3f3f3f3f3f3f3f3f
    b3f2:	3f3f3f3f 3f3f3f3f 	.insn	8, 0x3f3f3f3f3f3f3f3f
    b3fa:	3f3f3f3f 3f3f3f3f 	.insn	8, 0x3f3f3f3f3f3f3f3f
    b402:	3f3f3f3f 3f3f3f3f 	.insn	8, 0x3f3f3f3f3f3f3f3f
    b40a:	3f3f3f3f 3f3f3f3f 	.insn	8, 0x3f3f3f3f3f3f3f3f
    b412:	3f3f3f3f 3f3f3f3f 	.insn	8, 0x3f3f3f3f3f3f3f3f
    b41a:	3f3f3f3f 3f3f3f3f 	.insn	8, 0x3f3f3f3f3f3f3f3f
    b422:	3f3f3f3f 3f3f3f3f 	.insn	8, 0x3f3f3f3f3f3f3f3f
    b42a:	3f3f3f3f 3f3f3f3f 	.insn	8, 0x3f3f3f3f3f3f3f3f
    b432:	3f3f3f3f 3f3f3f3f 	.insn	8, 0x3f3f3f3f3f3f3f3f
    b43a:	3f3f3f3f 3f3f3f3f 	.insn	8, 0x3f3f3f3f3f3f3f3f
    b442:	3f3f3f3f 3f3f3f3f 	.insn	8, 0x3f3f3f3f3f3f3f3f
    b44a:	3f3f3f3f 3f3f3f3f 	.insn	8, 0x3f3f3f3f3f3f3f3f
    b452:	3f3f3f3f 3f3f3f3f 	.insn	8, 0x3f3f3f3f3f3f3f3f
    b45a:	3f3f3f3f 3f3f3f3f 	.insn	8, 0x3f3f3f3f3f3f3f3f
    b462:	3f3f3f3f 3f3f3f3f 	.insn	8, 0x3f3f3f3f3f3f3f3f
    b46a:	3f3f3f3f 3f3f3f3f 	.insn	8, 0x3f3f3f3f3f3f3f3f
    b472:	3f3f3f3f 3f3f3f3f 	.insn	8, 0x3f3f3f3f3f3f3f3f
    b47a:	3f3f3f3f 3f3f3f3f 	.insn	8, 0x3f3f3f3f3f3f3f3f
    b482:	3f3f3f3f 3f3f3f3f 	.insn	8, 0x3f3f3f3f3f3f3f3f
    b48a:	3f3f3f3f 3f3f3f3f 	.insn	8, 0x3f3f3f3f3f3f3f3f
    b492:	3f3f3f3f 3f3f3f3f 	.insn	8, 0x3f3f3f3f3f3f3f3f
    b49a:	3f3f3f3f 3f3f3f3f 	.insn	8, 0x3f3f3f3f3f3f3f3f
    b4a2:	3f3f3f3f 3f3f3f3f 	.insn	8, 0x3f3f3f3f3f3f3f3f
    b4aa:	3f3f3f3f 3f3f3f3f 	.insn	8, 0x3f3f3f3f3f3f3f3f
    b4b2:	3f3f3f3f 3f3f3f3f 	.insn	8, 0x3f3f3f3f3f3f3f3f
    b4ba:	3f3f3f3f 3f3f3f3f 	.insn	8, 0x3f3f3f3f3f3f3f3f
    b4c2:	3f3f3f3f 3f3f3f3f 	.insn	8, 0x3f3f3f3f3f3f3f3f
    b4ca:	3f3f3f3f 3f3f3f3f 	.insn	8, 0x3f3f3f3f3f3f3f3f
    b4d2:	3f3f3f3f 3f3f3f3f 	.insn	8, 0x3f3f3f3f3f3f3f3f
    b4da:	3f3f3f3f 3f3f3f3f 	.insn	8, 0x3f3f3f3f3f3f3f3f
    b4e2:	3f3f3f3f 3f3f3f3f 	.insn	8, 0x3f3f3f3f3f3f3f3f
    b4ea:	3f3f3f3f 3f3f3f3f 	.insn	8, 0x3f3f3f3f3f3f3f3f
    b4f2:	3f3f3f3f 3f3f3f3f 	.insn	8, 0x3f3f3f3f3f3f3f3f
    b4fa:	3f3f3f3f 3f3f3f3f 	.insn	8, 0x3f3f3f3f3f3f3f3f
    b502:	3f3f3f3f 3f3f3f3f 	.insn	8, 0x3f3f3f3f3f3f3f3f
    b50a:	3f3f3f3f 3f3f3f3f 	.insn	8, 0x3f3f3f3f3f3f3f3f
    b512:	3f3f3f3f 3f3f3f3f 	.insn	8, 0x3f3f3f3f3f3f3f3f
    b51a:	3f3f3f3f 3f3f3f3f 	.insn	8, 0x3f3f3f3f3f3f3f3f
    b522:	3f3f3f3f 3f3f3f3f 	.insn	8, 0x3f3f3f3f3f3f3f3f
    b52a:	3f3f3f3f 3f3f3f3f 	.insn	8, 0x3f3f3f3f3f3f3f3f
    b532:	3f3f3f3f 3f3f3f3f 	.insn	8, 0x3f3f3f3f3f3f3f3f
    b53a:	3f3f3f3f 3f3f3f3f 	.insn	8, 0x3f3f3f3f3f3f3f3f
    b542:	3f3f3f3f 3f3f3f3f 	.insn	8, 0x3f3f3f3f3f3f3f3f
    b54a:	3f3f3f3f 3f3f3f3f 	.insn	8, 0x3f3f3f3f3f3f3f3f
    b552:	3f3f3f3f 3f3f3f3f 	.insn	8, 0x3f3f3f3f3f3f3f3f
    b55a:	3f3f3f3f 3f3f3f3f 	.insn	8, 0x3f3f3f3f3f3f3f3f
    b562:	3f3f3f3f 3f3f3f3f 	.insn	8, 0x3f3f3f3f3f3f3f3f
    b56a:	3f3f3f3f 3f3f3f3f 	.insn	8, 0x3f3f3f3f3f3f3f3f
    b572:	3f3f3f3f 3f3f3f3f 	.insn	8, 0x3f3f3f3f3f3f3f3f
    b57a:	3f3f3f3f 3f3f3f3f 	.insn	8, 0x3f3f3f3f3f3f3f3f
    b582:	3f3f3f3f 3f3f3f3f 	.insn	8, 0x3f3f3f3f3f3f3f3f
    b58a:	3f3f3f3f 3f3f3f3f 	.insn	8, 0x3f3f3f3f3f3f3f3f
    b592:	3f3f3f3f 3f3f3f3f 	.insn	8, 0x3f3f3f3f3f3f3f3f
    b59a:	3f3f3f3f 3f3f3f3f 	.insn	8, 0x3f3f3f3f3f3f3f3f
    b5a2:	3f3f3f3f 3f3f3f3f 	.insn	8, 0x3f3f3f3f3f3f3f3f
    b5aa:	3f3f3f3f 3f3f3f3f 	.insn	8, 0x3f3f3f3f3f3f3f3f
    b5b2:	3f3f3f3f 3f3f3f3f 	.insn	8, 0x3f3f3f3f3f3f3f3f
    b5ba:	3f3f3f3f 3f3f3f3f 	.insn	8, 0x3f3f3f3f3f3f3f3f
    b5c2:	3f3f3f3f 3f3f3f3f 	.insn	8, 0x3f3f3f3f3f3f3f3f
    b5ca:	3f3f3f3f 3f3f3f3f 	.insn	8, 0x3f3f3f3f3f3f3f3f
    b5d2:	3f3f3f3f 3f3f3f3f 	.insn	8, 0x3f3f3f3f3f3f3f3f
    b5da:	3f3f3f3f 3f3f3f3f 	.insn	8, 0x3f3f3f3f3f3f3f3f
    b5e2:	3f3f3f3f 3f3f3f3f 	.insn	8, 0x3f3f3f3f3f3f3f3f
    b5ea:	3f3f3f3f 3f3f3f3f 	.insn	8, 0x3f3f3f3f3f3f3f3f
    b5f2:	3f3f3f3f 3f3f3f3f 	.insn	8, 0x3f3f3f3f3f3f3f3f
    b5fa:	3f3f3f3f 3f3f3f3f 	.insn	8, 0x3f3f3f3f3f3f3f3f
    b602:	3f3f3f3f 3f3f3f3f 	.insn	8, 0x3f3f3f3f3f3f3f3f
    b60a:	3f3f3f3f 3f3f3f3f 	.insn	8, 0x3f3f3f3f3f3f3f3f
    b612:	3f3f3f3f 3f3f3f3f 	.insn	8, 0x3f3f3f3f3f3f3f3f
    b61a:	3f3f3f3f 3f3f3f3f 	.insn	8, 0x3f3f3f3f3f3f3f3f
    b622:	3f3f3f3f 3f3f3f3f 	.insn	8, 0x3f3f3f3f3f3f3f3f
    b62a:	3f3f3f3f 3f3f3f3f 	.insn	8, 0x3f3f3f3f3f3f3f3f
    b632:	3f3f3f3f 3f3f3f3f 	.insn	8, 0x3f3f3f3f3f3f3f3f
    b63a:	3f3f3f3f 3f3f3f3f 	.insn	8, 0x3f3f3f3f3f3f3f3f
    b642:	3f3f3f3f 3f3f3f3f 	.insn	8, 0x3f3f3f3f3f3f3f3f
    b64a:	3f3f3f3f 3f3f3f3f 	.insn	8, 0x3f3f3f3f3f3f3f3f
    b652:	3f3f3f3f 3f3f3f3f 	.insn	8, 0x3f3f3f3f3f3f3f3f
    b65a:	3f3f3f3f 3f3f3f3f 	.insn	8, 0x3f3f3f3f3f3f3f3f
    b662:	3f3f3f3f 3f3f3f3f 	.insn	8, 0x3f3f3f3f3f3f3f3f
    b66a:	3f3f3f3f 3f3f3f3f 	.insn	8, 0x3f3f3f3f3f3f3f3f
    b672:	3f3f3f3f 3f3f3f3f 	.insn	8, 0x3f3f3f3f3f3f3f3f
    b67a:	3f3f3f3f 3f3f3f3f 	.insn	8, 0x3f3f3f3f3f3f3f3f
    b682:	3f3f3f3f 3f3f3f3f 	.insn	8, 0x3f3f3f3f3f3f3f3f
    b68a:	3f3f3f3f 3f3f3f3f 	.insn	8, 0x3f3f3f3f3f3f3f3f
    b692:	3f3f3f3f 3f3f3f3f 	.insn	8, 0x3f3f3f3f3f3f3f3f
    b69a:	3f3f3f3f 3f3f3f3f 	.insn	8, 0x3f3f3f3f3f3f3f3f
    b6a2:	3f3f3f3f 3f3f3f3f 	.insn	8, 0x3f3f3f3f3f3f3f3f
    b6aa:	3f3f3f3f 3f3f3f3f 	.insn	8, 0x3f3f3f3f3f3f3f3f
    b6b2:	3f3f3f3f 3f3f3f3f 	.insn	8, 0x3f3f3f3f3f3f3f3f
    b6ba:	3f3f3f3f 3f3f3f3f 	.insn	8, 0x3f3f3f3f3f3f3f3f
    b6c2:	3f3f3f3f 3f3f3f3f 	.insn	8, 0x3f3f3f3f3f3f3f3f
    b6ca:	3f3f3f3f 3f3f3f3f 	.insn	8, 0x3f3f3f3f3f3f3f3f
    b6d2:	3f3f3f3f 3f3f3f3f 	.insn	8, 0x3f3f3f3f3f3f3f3f
    b6da:	3f3f3f3f 3f3f3f3f 	.insn	8, 0x3f3f3f3f3f3f3f3f
    b6e2:	3f3f3f3f 3f3f3f3f 	.insn	8, 0x3f3f3f3f3f3f3f3f
    b6ea:	3f3f3f3f 3f3f3f3f 	.insn	8, 0x3f3f3f3f3f3f3f3f
    b6f2:	3f3f3f3f 3f3f3f3f 	.insn	8, 0x3f3f3f3f3f3f3f3f
    b6fa:	3f3f3f3f 3f3f3f3f 	.insn	8, 0x3f3f3f3f3f3f3f3f
    b702:	3f3f3f3f 3f3f3f3f 	.insn	8, 0x3f3f3f3f3f3f3f3f
    b70a:	3f3f3f3f 3f3f3f3f 	.insn	8, 0x3f3f3f3f3f3f3f3f
    b712:	3f3f3f3f 3f3f3f3f 	.insn	8, 0x3f3f3f3f3f3f3f3f
    b71a:	3f3f3f3f 3f3f3f3f 	.insn	8, 0x3f3f3f3f3f3f3f3f
    b722:	3f3f3f3f 3f3f3f3f 	.insn	8, 0x3f3f3f3f3f3f3f3f
    b72a:	3f3f3f3f 3f3f3f3f 	.insn	8, 0x3f3f3f3f3f3f3f3f
    b732:	3f3f3f3f 3f3f3f3f 	.insn	8, 0x3f3f3f3f3f3f3f3f
    b73a:	3f3f3f3f 3f3f3f3f 	.insn	8, 0x3f3f3f3f3f3f3f3f
    b742:	3f3f3f3f 3f3f3f3f 	.insn	8, 0x3f3f3f3f3f3f3f3f
    b74a:	3f3f3f3f 3f3f3f3f 	.insn	8, 0x3f3f3f3f3f3f3f3f
    b752:	3f3f3f3f 3f3f3f3f 	.insn	8, 0x3f3f3f3f3f3f3f3f
    b75a:	3f3f3f3f 3f3f3f3f 	.insn	8, 0x3f3f3f3f3f3f3f3f
    b762:	3f3f3f3f 3f3f3f3f 	.insn	8, 0x3f3f3f3f3f3f3f3f
    b76a:	3f3f3f3f 3f3f3f3f 	.insn	8, 0x3f3f3f3f3f3f3f3f
    b772:	3f3f3f3f 3f3f3f3f 	.insn	8, 0x3f3f3f3f3f3f3f3f
    b77a:	3f3f3f3f 3f3f3f3f 	.insn	8, 0x3f3f3f3f3f3f3f3f
    b782:	3f3f3f3f 3f3f3f3f 	.insn	8, 0x3f3f3f3f3f3f3f3f
    b78a:	3f3f3f3f 3f3f3f3f 	.insn	8, 0x3f3f3f3f3f3f3f3f
    b792:	3f3f3f3f 3f3f3f3f 	.insn	8, 0x3f3f3f3f3f3f3f3f
    b79a:	3f3f3f3f 3f3f3f3f 	.insn	8, 0x3f3f3f3f3f3f3f3f
    b7a2:	3f3f3f3f 3f3f3f3f 	.insn	8, 0x3f3f3f3f3f3f3f3f
    b7aa:	3f3f3f3f 3f3f3f3f 	.insn	8, 0x3f3f3f3f3f3f3f3f
    b7b2:	3f3f3f3f 3f3f3f3f 	.insn	8, 0x3f3f3f3f3f3f3f3f
    b7ba:	3f3f3f3f 3f3f3f3f 	.insn	8, 0x3f3f3f3f3f3f3f3f
    b7c2:	3f3f3f3f 3f3f3f3f 	.insn	8, 0x3f3f3f3f3f3f3f3f
    b7ca:	3f3f3f3f 3f3f3f3f 	.insn	8, 0x3f3f3f3f3f3f3f3f
    b7d2:	3f3f3f3f 3f3f3f3f 	.insn	8, 0x3f3f3f3f3f3f3f3f
    b7da:	3f3f3f3f 3f3f3f3f 	.insn	8, 0x3f3f3f3f3f3f3f3f
    b7e2:	3f3f3f3f 3f3f3f3f 	.insn	8, 0x3f3f3f3f3f3f3f3f
    b7ea:	3f3f3f3f 3f3f3f3f 	.insn	8, 0x3f3f3f3f3f3f3f3f
    b7f2:	3f3f3f3f 3f3f3f3f 	.insn	8, 0x3f3f3f3f3f3f3f3f
    b7fa:	3f3f3f3f 3f3f3f3f 	.insn	8, 0x3f3f3f3f3f3f3f3f
    b802:	3f3f3f3f 3f3f3f3f 	.insn	8, 0x3f3f3f3f3f3f3f3f
    b80a:	3f3f3f3f 3f3f3f3f 	.insn	8, 0x3f3f3f3f3f3f3f3f
    b812:	3f3f3f3f 3f3f3f3f 	.insn	8, 0x3f3f3f3f3f3f3f3f
    b81a:	3f3f3f3f 3f3f3f3f 	.insn	8, 0x3f3f3f3f3f3f3f3f
    b822:	3f3f3f3f 3f3f3f3f 	.insn	8, 0x3f3f3f3f3f3f3f3f
    b82a:	3f3f3f3f 3f3f3f3f 	.insn	8, 0x3f3f3f3f3f3f3f3f
    b832:	3f3f3f3f 3f3f3f3f 	.insn	8, 0x3f3f3f3f3f3f3f3f
    b83a:	3f3f3f3f 3f3f3f3f 	.insn	8, 0x3f3f3f3f3f3f3f3f
    b842:	3f3f3f3f 3f3f3f3f 	.insn	8, 0x3f3f3f3f3f3f3f3f
    b84a:	3f3f3f3f 3f3f3f3f 	.insn	8, 0x3f3f3f3f3f3f3f3f
    b852:	3f3f3f3f 3f3f3f3f 	.insn	8, 0x3f3f3f3f3f3f3f3f
    b85a:	3f3f3f3f 3f3f3f3f 	.insn	8, 0x3f3f3f3f3f3f3f3f
    b862:	3f3f3f3f 3f3f3f3f 	.insn	8, 0x3f3f3f3f3f3f3f3f
    b86a:	3f3f3f3f 3f3f3f3f 	.insn	8, 0x3f3f3f3f3f3f3f3f
    b872:	3f3f3f3f 3f3f3f3f 	.insn	8, 0x3f3f3f3f3f3f3f3f
    b87a:	3f3f3f3f 3f3f3f3f 	.insn	8, 0x3f3f3f3f3f3f3f3f
    b882:	3f3f3f3f 3f3f3f3f 	.insn	8, 0x3f3f3f3f3f3f3f3f
    b88a:	3f3f3f3f 3f3f3f3f 	.insn	8, 0x3f3f3f3f3f3f3f3f
    b892:	3f3f3f3f 3f3f3f3f 	.insn	8, 0x3f3f3f3f3f3f3f3f
    b89a:	3f3f3f3f 3f3f3f3f 	.insn	8, 0x3f3f3f3f3f3f3f3f
    b8a2:	3f3f3f3f 3f3f3f3f 	.insn	8, 0x3f3f3f3f3f3f3f3f
    b8aa:	3f3f3f3f 3f3f3f3f 	.insn	8, 0x3f3f3f3f3f3f3f3f
    b8b2:	3f3f3f3f 3f3f3f3f 	.insn	8, 0x3f3f3f3f3f3f3f3f
    b8ba:	3f3f3f3f 3f3f3f3f 	.insn	8, 0x3f3f3f3f3f3f3f3f
    b8c2:	3f3f3f3f 3f3f3f3f 	.insn	8, 0x3f3f3f3f3f3f3f3f
    b8ca:	3f3f3f3f 3f3f3f3f 	.insn	8, 0x3f3f3f3f3f3f3f3f
    b8d2:	3f3f3f3f 3f3f3f3f 	.insn	8, 0x3f3f3f3f3f3f3f3f
    b8da:	3f3f3f3f 3f3f3f3f 	.insn	8, 0x3f3f3f3f3f3f3f3f
    b8e2:	3f3f3f3f 3f3f3f3f 	.insn	8, 0x3f3f3f3f3f3f3f3f
    b8ea:	3f3f3f3f 3f3f3f3f 	.insn	8, 0x3f3f3f3f3f3f3f3f
    b8f2:	3f3f3f3f 3f3f3f3f 	.insn	8, 0x3f3f3f3f3f3f3f3f
    b8fa:	3f3f3f3f 3f3f3f3f 	.insn	8, 0x3f3f3f3f3f3f3f3f
    b902:	3f3f3f3f 3f3f3f3f 	.insn	8, 0x3f3f3f3f3f3f3f3f
    b90a:	3f3f3f3f 3f3f3f3f 	.insn	8, 0x3f3f3f3f3f3f3f3f
    b912:	3f3f3f3f 3f3f3f3f 	.insn	8, 0x3f3f3f3f3f3f3f3f
    b91a:	3f3f3f3f 3f3f3f3f 	.insn	8, 0x3f3f3f3f3f3f3f3f
    b922:	3f3f3f3f 3f3f3f3f 	.insn	8, 0x3f3f3f3f3f3f3f3f
    b92a:	3f3f3f3f 3f3f3f3f 	.insn	8, 0x3f3f3f3f3f3f3f3f
    b932:	3f3f3f3f 3f3f3f3f 	.insn	8, 0x3f3f3f3f3f3f3f3f
    b93a:	3f3f3f3f 3f3f3f3f 	.insn	8, 0x3f3f3f3f3f3f3f3f
    b942:	3f3f3f3f 3f3f3f3f 	.insn	8, 0x3f3f3f3f3f3f3f3f
    b94a:	3f3f3f3f 3f3f3f3f 	.insn	8, 0x3f3f3f3f3f3f3f3f
    b952:	3f3f3f3f 3f3f3f3f 	.insn	8, 0x3f3f3f3f3f3f3f3f
    b95a:	3f3f3f3f 3f3f3f3f 	.insn	8, 0x3f3f3f3f3f3f3f3f
    b962:	3f3f3f3f 3f3f3f3f 	.insn	8, 0x3f3f3f3f3f3f3f3f
    b96a:	3f3f3f3f 3f3f3f3f 	.insn	8, 0x3f3f3f3f3f3f3f3f
    b972:	3f3f3f3f 3f3f3f3f 	.insn	8, 0x3f3f3f3f3f3f3f3f
    b97a:	3f3f3f3f 3f3f3f3f 	.insn	8, 0x3f3f3f3f3f3f3f3f
    b982:	3f3f3f3f 3f3f3f3f 	.insn	8, 0x3f3f3f3f3f3f3f3f
    b98a:	3f3f3f3f 3f3f3f3f 	.insn	8, 0x3f3f3f3f3f3f3f3f
    b992:	3f3f3f3f 3f3f3f3f 	.insn	8, 0x3f3f3f3f3f3f3f3f
    b99a:	3f3f3f3f 3f3f3f3f 	.insn	8, 0x3f3f3f3f3f3f3f3f
    b9a2:	3f3f3f3f 3f3f3f3f 	.insn	8, 0x3f3f3f3f3f3f3f3f
    b9aa:	3f3f3f3f 3f3f3f3f 	.insn	8, 0x3f3f3f3f3f3f3f3f
    b9b2:	3f3f3f3f 3f3f3f3f 	.insn	8, 0x3f3f3f3f3f3f3f3f
    b9ba:	3f3f3f3f 3f3f3f3f 	.insn	8, 0x3f3f3f3f3f3f3f3f
    b9c2:	3f3f3f3f 3f3f3f3f 	.insn	8, 0x3f3f3f3f3f3f3f3f
    b9ca:	3f3f3f3f 3f3f3f3f 	.insn	8, 0x3f3f3f3f3f3f3f3f
    b9d2:	3f3f3f3f 3f3f3f3f 	.insn	8, 0x3f3f3f3f3f3f3f3f
    b9da:	3f3f3f3f 3f3f3f3f 	.insn	8, 0x3f3f3f3f3f3f3f3f
    b9e2:	3f3f3f3f 3f3f3f3f 	.insn	8, 0x3f3f3f3f3f3f3f3f
    b9ea:	3f3f3f3f 3f3f3f3f 	.insn	8, 0x3f3f3f3f3f3f3f3f
    b9f2:	3f3f3f3f 3f3f3f3f 	.insn	8, 0x3f3f3f3f3f3f3f3f
    b9fa:	3f3f3f3f 3f3f3f3f 	.insn	8, 0x3f3f3f3f3f3f3f3f
    ba02:	3f3f3f3f 3f3f3f3f 	.insn	8, 0x3f3f3f3f3f3f3f3f
    ba0a:	3f3f3f3f 3f3f3f3f 	.insn	8, 0x3f3f3f3f3f3f3f3f
    ba12:	3f3f3f3f 3f3f3f3f 	.insn	8, 0x3f3f3f3f3f3f3f3f
    ba1a:	3f3f3f3f 3f3f3f3f 	.insn	8, 0x3f3f3f3f3f3f3f3f
    ba22:	3f3f3f3f 3f3f3f3f 	.insn	8, 0x3f3f3f3f3f3f3f3f
    ba2a:	3f3f3f3f 3f3f3f3f 	.insn	8, 0x3f3f3f3f3f3f3f3f
    ba32:	3f3f3f3f 3f3f3f3f 	.insn	8, 0x3f3f3f3f3f3f3f3f
    ba3a:	3f3f3f3f 3f3f3f3f 	.insn	8, 0x3f3f3f3f3f3f3f3f
    ba42:	3f3f3f3f 3f3f3f3f 	.insn	8, 0x3f3f3f3f3f3f3f3f
    ba4a:	3f3f3f3f 3f3f3f3f 	.insn	8, 0x3f3f3f3f3f3f3f3f
    ba52:	3f3f3f3f 3f3f3f3f 	.insn	8, 0x3f3f3f3f3f3f3f3f
    ba5a:	3f3f3f3f 3f3f3f3f 	.insn	8, 0x3f3f3f3f3f3f3f3f
    ba62:	3f3f3f3f 3f3f3f3f 	.insn	8, 0x3f3f3f3f3f3f3f3f
    ba6a:	3f3f3f3f 3f3f3f3f 	.insn	8, 0x3f3f3f3f3f3f3f3f
    ba72:	3f3f3f3f 3f3f3f3f 	.insn	8, 0x3f3f3f3f3f3f3f3f
    ba7a:	3f3f3f3f 3f3f3f3f 	.insn	8, 0x3f3f3f3f3f3f3f3f
    ba82:	3f3f3f3f 3f3f3f3f 	.insn	8, 0x3f3f3f3f3f3f3f3f
    ba8a:	3f3f3f3f 3f3f3f3f 	.insn	8, 0x3f3f3f3f3f3f3f3f
    ba92:	3f3f3f3f 3f3f3f3f 	.insn	8, 0x3f3f3f3f3f3f3f3f
    ba9a:	3f3f3f3f 3f3f3f3f 	.insn	8, 0x3f3f3f3f3f3f3f3f
    baa2:	3f3f3f3f 3f3f3f3f 	.insn	8, 0x3f3f3f3f3f3f3f3f
    baaa:	3f3f3f3f 3f3f3f3f 	.insn	8, 0x3f3f3f3f3f3f3f3f
    bab2:	3f3f3f3f 3f3f3f3f 	.insn	8, 0x3f3f3f3f3f3f3f3f
    baba:	3f3f3f3f 3f3f3f3f 	.insn	8, 0x3f3f3f3f3f3f3f3f
    bac2:	3f3f3f3f 3f3f3f3f 	.insn	8, 0x3f3f3f3f3f3f3f3f
    baca:	3f3f3f3f 3f3f3f3f 	.insn	8, 0x3f3f3f3f3f3f3f3f
    bad2:	3f3f3f3f 3f3f3f3f 	.insn	8, 0x3f3f3f3f3f3f3f3f
    bada:	3f3f3f3f 3f3f3f3f 	.insn	8, 0x3f3f3f3f3f3f3f3f
    bae2:	3f3f3f3f 3f3f3f3f 	.insn	8, 0x3f3f3f3f3f3f3f3f
    baea:	3f3f3f3f 3f3f3f3f 	.insn	8, 0x3f3f3f3f3f3f3f3f
    baf2:	3f3f3f3f 3f3f3f3f 	.insn	8, 0x3f3f3f3f3f3f3f3f
    bafa:	3f3f3f3f 3f3f3f3f 	.insn	8, 0x3f3f3f3f3f3f3f3f
    bb02:	3f3f3f3f 3f3f3f3f 	.insn	8, 0x3f3f3f3f3f3f3f3f
    bb0a:	3f3f3f3f 3f3f3f3f 	.insn	8, 0x3f3f3f3f3f3f3f3f
    bb12:	3f3f3f3f 3f3f3f3f 	.insn	8, 0x3f3f3f3f3f3f3f3f
    bb1a:	3f3f3f3f 3f3f3f3f 	.insn	8, 0x3f3f3f3f3f3f3f3f
    bb22:	3f3f3f3f 3f3f3f3f 	.insn	8, 0x3f3f3f3f3f3f3f3f
    bb2a:	3f3f3f3f 3f3f3f3f 	.insn	8, 0x3f3f3f3f3f3f3f3f
    bb32:	3f3f3f3f 3f3f3f3f 	.insn	8, 0x3f3f3f3f3f3f3f3f
    bb3a:	3f3f3f3f 3f3f3f3f 	.insn	8, 0x3f3f3f3f3f3f3f3f
    bb42:	3f3f3f3f 3f3f3f3f 	.insn	8, 0x3f3f3f3f3f3f3f3f
    bb4a:	3f3f3f3f 3f3f3f3f 	.insn	8, 0x3f3f3f3f3f3f3f3f
    bb52:	3f3f3f3f 3f3f3f3f 	.insn	8, 0x3f3f3f3f3f3f3f3f
    bb5a:	3f3f3f3f 3f3f3f3f 	.insn	8, 0x3f3f3f3f3f3f3f3f
    bb62:	3f3f3f3f 3f3f3f3f 	.insn	8, 0x3f3f3f3f3f3f3f3f
    bb6a:	3f3f3f3f 3f3f3f3f 	.insn	8, 0x3f3f3f3f3f3f3f3f
    bb72:	3f3f3f3f 3f3f3f3f 	.insn	8, 0x3f3f3f3f3f3f3f3f
    bb7a:	3f3f3f3f 3f3f3f3f 	.insn	8, 0x3f3f3f3f3f3f3f3f
    bb82:	3f3f3f3f 3f3f3f3f 	.insn	8, 0x3f3f3f3f3f3f3f3f
    bb8a:	3f3f3f3f 3f3f3f3f 	.insn	8, 0x3f3f3f3f3f3f3f3f
    bb92:	3f3f3f3f 3f3f3f3f 	.insn	8, 0x3f3f3f3f3f3f3f3f
    bb9a:	3f3f3f3f 3f3f3f3f 	.insn	8, 0x3f3f3f3f3f3f3f3f
    bba2:	3f3f3f3f 3f3f3f3f 	.insn	8, 0x3f3f3f3f3f3f3f3f
    bbaa:	3f3f3f3f 3f3f3f3f 	.insn	8, 0x3f3f3f3f3f3f3f3f
    bbb2:	3f3f3f3f 3f3f3f3f 	.insn	8, 0x3f3f3f3f3f3f3f3f
    bbba:	3f3f3f3f 3f3f3f3f 	.insn	8, 0x3f3f3f3f3f3f3f3f
    bbc2:	3f3f3f3f 3f3f3f3f 	.insn	8, 0x3f3f3f3f3f3f3f3f
    bbca:	3f3f3f3f 3f3f3f3f 	.insn	8, 0x3f3f3f3f3f3f3f3f
    bbd2:	3f3f3f3f 3f3f3f3f 	.insn	8, 0x3f3f3f3f3f3f3f3f
    bbda:	3f3f3f3f 3f3f3f3f 	.insn	8, 0x3f3f3f3f3f3f3f3f
    bbe2:	3f3f3f3f 3f3f3f3f 	.insn	8, 0x3f3f3f3f3f3f3f3f
    bbea:	3f3f3f3f 3f3f3f3f 	.insn	8, 0x3f3f3f3f3f3f3f3f
    bbf2:	3f3f3f3f 3f3f3f3f 	.insn	8, 0x3f3f3f3f3f3f3f3f
    bbfa:	3f3f3f3f 3f3f3f3f 	.insn	8, 0x3f3f3f3f3f3f3f3f
    bc02:	3f3f3f3f 3f3f3f3f 	.insn	8, 0x3f3f3f3f3f3f3f3f
    bc0a:	3f3f3f3f 3f3f3f3f 	.insn	8, 0x3f3f3f3f3f3f3f3f
    bc12:	3f3f3f3f 3f3f3f3f 	.insn	8, 0x3f3f3f3f3f3f3f3f
    bc1a:	3f3f3f3f 3f3f3f3f 	.insn	8, 0x3f3f3f3f3f3f3f3f
    bc22:	3f3f3f3f 3f3f3f3f 	.insn	8, 0x3f3f3f3f3f3f3f3f
    bc2a:	3f3f3f3f 3f3f3f3f 	.insn	8, 0x3f3f3f3f3f3f3f3f
    bc32:	3f3f3f3f 3f3f3f3f 	.insn	8, 0x3f3f3f3f3f3f3f3f
    bc3a:	3f3f3f3f 3f3f3f3f 	.insn	8, 0x3f3f3f3f3f3f3f3f
    bc42:	3f3f3f3f 3f3f3f3f 	.insn	8, 0x3f3f3f3f3f3f3f3f
    bc4a:	3f3f3f3f 3f3f3f3f 	.insn	8, 0x3f3f3f3f3f3f3f3f
    bc52:	3f3f3f3f 3f3f3f3f 	.insn	8, 0x3f3f3f3f3f3f3f3f
    bc5a:	3f3f3f3f 3f3f3f3f 	.insn	8, 0x3f3f3f3f3f3f3f3f
    bc62:	3f3f3f3f 3f3f3f3f 	.insn	8, 0x3f3f3f3f3f3f3f3f
    bc6a:	3f3f3f3f 3f3f3f3f 	.insn	8, 0x3f3f3f3f3f3f3f3f
    bc72:	3f3f3f3f 3f3f3f3f 	.insn	8, 0x3f3f3f3f3f3f3f3f
    bc7a:	3f3f3f3f 3f3f3f3f 	.insn	8, 0x3f3f3f3f3f3f3f3f
    bc82:	3f3f3f3f 3f3f3f3f 	.insn	8, 0x3f3f3f3f3f3f3f3f
    bc8a:	3f3f3f3f 3f3f3f3f 	.insn	8, 0x3f3f3f3f3f3f3f3f
    bc92:	3f3f3f3f 3f3f3f3f 	.insn	8, 0x3f3f3f3f3f3f3f3f
    bc9a:	3f3f3f3f 3f3f3f3f 	.insn	8, 0x3f3f3f3f3f3f3f3f
    bca2:	3f3f3f3f 3f3f3f3f 	.insn	8, 0x3f3f3f3f3f3f3f3f
    bcaa:	3f3f3f3f 3f3f3f3f 	.insn	8, 0x3f3f3f3f3f3f3f3f
    bcb2:	3f3f3f3f 3f3f3f3f 	.insn	8, 0x3f3f3f3f3f3f3f3f
    bcba:	3f3f3f3f 3f3f3f3f 	.insn	8, 0x3f3f3f3f3f3f3f3f
    bcc2:	3f3f3f3f 3f3f3f3f 	.insn	8, 0x3f3f3f3f3f3f3f3f
    bcca:	3f3f3f3f 3f3f3f3f 	.insn	8, 0x3f3f3f3f3f3f3f3f
    bcd2:	3f3f3f3f 3f3f3f3f 	.insn	8, 0x3f3f3f3f3f3f3f3f
    bcda:	3f3f3f3f 3f3f3f3f 	.insn	8, 0x3f3f3f3f3f3f3f3f
    bce2:	3f3f3f3f 3f3f3f3f 	.insn	8, 0x3f3f3f3f3f3f3f3f
    bcea:	3f3f3f3f 3f3f3f3f 	.insn	8, 0x3f3f3f3f3f3f3f3f
    bcf2:	3f3f3f3f 3f3f3f3f 	.insn	8, 0x3f3f3f3f3f3f3f3f
    bcfa:	3f3f3f3f 3f3f3f3f 	.insn	8, 0x3f3f3f3f3f3f3f3f
    bd02:	3f3f3f3f 3f3f3f3f 	.insn	8, 0x3f3f3f3f3f3f3f3f
    bd0a:	3f3f3f3f 3f3f3f3f 	.insn	8, 0x3f3f3f3f3f3f3f3f
    bd12:	3f3f3f3f 3f3f3f3f 	.insn	8, 0x3f3f3f3f3f3f3f3f
    bd1a:	3f3f3f3f 3f3f3f3f 	.insn	8, 0x3f3f3f3f3f3f3f3f
    bd22:	3f3f3f3f 3f3f3f3f 	.insn	8, 0x3f3f3f3f3f3f3f3f
    bd2a:	3f3f3f3f 3f3f3f3f 	.insn	8, 0x3f3f3f3f3f3f3f3f
    bd32:	3f3f3f3f 3f3f3f3f 	.insn	8, 0x3f3f3f3f3f3f3f3f
    bd3a:	3f3f3f3f 3f3f3f3f 	.insn	8, 0x3f3f3f3f3f3f3f3f
    bd42:	3f3f3f3f 3f3f3f3f 	.insn	8, 0x3f3f3f3f3f3f3f3f
    bd4a:	3f3f3f3f 3f3f3f3f 	.insn	8, 0x3f3f3f3f3f3f3f3f
    bd52:	3f3f3f3f 3f3f3f3f 	.insn	8, 0x3f3f3f3f3f3f3f3f
    bd5a:	3f3f3f3f 3f3f3f3f 	.insn	8, 0x3f3f3f3f3f3f3f3f
    bd62:	3f3f3f3f 3f3f3f3f 	.insn	8, 0x3f3f3f3f3f3f3f3f
    bd6a:	3f3f3f3f 3f3f3f3f 	.insn	8, 0x3f3f3f3f3f3f3f3f
    bd72:	3f3f3f3f 3f3f3f3f 	.insn	8, 0x3f3f3f3f3f3f3f3f
    bd7a:	3f3f3f3f 3f3f3f3f 	.insn	8, 0x3f3f3f3f3f3f3f3f
    bd82:	3f3f3f3f 3f3f3f3f 	.insn	8, 0x3f3f3f3f3f3f3f3f
    bd8a:	3f3f3f3f 3f3f3f3f 	.insn	8, 0x3f3f3f3f3f3f3f3f
    bd92:	3f3f3f3f 3f3f3f3f 	.insn	8, 0x3f3f3f3f3f3f3f3f
    bd9a:	3f3f3f3f 3f3f3f3f 	.insn	8, 0x3f3f3f3f3f3f3f3f
    bda2:	3f3f3f3f 3f3f3f3f 	.insn	8, 0x3f3f3f3f3f3f3f3f
    bdaa:	3f3f3f3f 3f3f3f3f 	.insn	8, 0x3f3f3f3f3f3f3f3f
    bdb2:	3f3f3f3f 3f3f3f3f 	.insn	8, 0x3f3f3f3f3f3f3f3f
    bdba:	3f3f3f3f 3f3f3f3f 	.insn	8, 0x3f3f3f3f3f3f3f3f
    bdc2:	3f3f3f3f 3f3f3f3f 	.insn	8, 0x3f3f3f3f3f3f3f3f
    bdca:	3f3f3f3f 3f3f3f3f 	.insn	8, 0x3f3f3f3f3f3f3f3f
    bdd2:	3f3f3f3f 3f3f3f3f 	.insn	8, 0x3f3f3f3f3f3f3f3f
    bdda:	3f3f3f3f 3f3f3f3f 	.insn	8, 0x3f3f3f3f3f3f3f3f
    bde2:	3f3f3f3f 3f3f3f3f 	.insn	8, 0x3f3f3f3f3f3f3f3f
    bdea:	3f3f3f3f 3f3f3f3f 	.insn	8, 0x3f3f3f3f3f3f3f3f
    bdf2:	3f3f3f3f 3f3f3f3f 	.insn	8, 0x3f3f3f3f3f3f3f3f
    bdfa:	3f3f3f3f 3f3f3f3f 	.insn	8, 0x3f3f3f3f3f3f3f3f
    be02:	3f3f3f3f 3f3f3f3f 	.insn	8, 0x3f3f3f3f3f3f3f3f
    be0a:	3f3f3f3f 3f3f3f3f 	.insn	8, 0x3f3f3f3f3f3f3f3f
    be12:	3f3f3f3f 3f3f3f3f 	.insn	8, 0x3f3f3f3f3f3f3f3f
    be1a:	3f3f3f3f 3f3f3f3f 	.insn	8, 0x3f3f3f3f3f3f3f3f
    be22:	3f3f3f3f 3f3f3f3f 	.insn	8, 0x3f3f3f3f3f3f3f3f
    be2a:	3f3f3f3f 3f3f3f3f 	.insn	8, 0x3f3f3f3f3f3f3f3f
    be32:	3f3f3f3f 3f3f3f3f 	.insn	8, 0x3f3f3f3f3f3f3f3f
    be3a:	3f3f3f3f 3f3f3f3f 	.insn	8, 0x3f3f3f3f3f3f3f3f
    be42:	3f3f3f3f 3f3f3f3f 	.insn	8, 0x3f3f3f3f3f3f3f3f
    be4a:	3f3f3f3f 3f3f3f3f 	.insn	8, 0x3f3f3f3f3f3f3f3f
    be52:	3f3f3f3f 3f3f3f3f 	.insn	8, 0x3f3f3f3f3f3f3f3f
    be5a:	3f3f3f3f 3f3f3f3f 	.insn	8, 0x3f3f3f3f3f3f3f3f
    be62:	3f3f3f3f 3f3f3f3f 	.insn	8, 0x3f3f3f3f3f3f3f3f
    be6a:	3f3f3f3f 3f3f3f3f 	.insn	8, 0x3f3f3f3f3f3f3f3f
    be72:	3f3f3f3f 3f3f3f3f 	.insn	8, 0x3f3f3f3f3f3f3f3f
    be7a:	3f3f3f3f 3f3f3f3f 	.insn	8, 0x3f3f3f3f3f3f3f3f
    be82:	3f3f3f3f 3f3f3f3f 	.insn	8, 0x3f3f3f3f3f3f3f3f
    be8a:	3f3f3f3f 3f3f3f3f 	.insn	8, 0x3f3f3f3f3f3f3f3f
    be92:	3f3f3f3f 3f3f3f3f 	.insn	8, 0x3f3f3f3f3f3f3f3f
    be9a:	3f3f3f3f 3f3f3f3f 	.insn	8, 0x3f3f3f3f3f3f3f3f
    bea2:	3f3f3f3f 3f3f3f3f 	.insn	8, 0x3f3f3f3f3f3f3f3f
    beaa:	3f3f3f3f 3f3f3f3f 	.insn	8, 0x3f3f3f3f3f3f3f3f
    beb2:	3f3f3f3f 3f3f3f3f 	.insn	8, 0x3f3f3f3f3f3f3f3f
    beba:	3f3f3f3f 3f3f3f3f 	.insn	8, 0x3f3f3f3f3f3f3f3f
    bec2:	3f3f3f3f 3f3f3f3f 	.insn	8, 0x3f3f3f3f3f3f3f3f
    beca:	3f3f3f3f 3f3f3f3f 	.insn	8, 0x3f3f3f3f3f3f3f3f
    bed2:	3f3f3f3f 3f3f3f3f 	.insn	8, 0x3f3f3f3f3f3f3f3f
    beda:	3f3f3f3f 3f3f3f3f 	.insn	8, 0x3f3f3f3f3f3f3f3f
    bee2:	3f3f3f3f 3f3f3f3f 	.insn	8, 0x3f3f3f3f3f3f3f3f
    beea:	3f3f3f3f 3f3f3f3f 	.insn	8, 0x3f3f3f3f3f3f3f3f
    bef2:	3f3f3f3f 3f3f3f3f 	.insn	8, 0x3f3f3f3f3f3f3f3f
    befa:	3f3f3f3f 3f3f3f3f 	.insn	8, 0x3f3f3f3f3f3f3f3f
    bf02:	3f3f3f3f 3f3f3f3f 	.insn	8, 0x3f3f3f3f3f3f3f3f
    bf0a:	3f3f3f3f 3f3f3f3f 	.insn	8, 0x3f3f3f3f3f3f3f3f
    bf12:	3f3f3f3f 3f3f3f3f 	.insn	8, 0x3f3f3f3f3f3f3f3f
    bf1a:	3f3f3f3f 3f3f3f3f 	.insn	8, 0x3f3f3f3f3f3f3f3f
    bf22:	3f3f3f3f 3f3f3f3f 	.insn	8, 0x3f3f3f3f3f3f3f3f
    bf2a:	3f3f3f3f 3f3f3f3f 	.insn	8, 0x3f3f3f3f3f3f3f3f
    bf32:	3f3f3f3f 3f3f3f3f 	.insn	8, 0x3f3f3f3f3f3f3f3f
    bf3a:	3f3f3f3f 3f3f3f3f 	.insn	8, 0x3f3f3f3f3f3f3f3f
    bf42:	3f3f3f3f 3f3f3f3f 	.insn	8, 0x3f3f3f3f3f3f3f3f
    bf4a:	3f3f3f3f 3f3f3f3f 	.insn	8, 0x3f3f3f3f3f3f3f3f
    bf52:	3f3f3f3f 3f3f3f3f 	.insn	8, 0x3f3f3f3f3f3f3f3f
    bf5a:	3f3f3f3f 3f3f3f3f 	.insn	8, 0x3f3f3f3f3f3f3f3f
    bf62:	3f3f3f3f 3f3f3f3f 	.insn	8, 0x3f3f3f3f3f3f3f3f
    bf6a:	3f3f3f3f 3f3f3f3f 	.insn	8, 0x3f3f3f3f3f3f3f3f
    bf72:	3f3f3f3f 3f3f3f3f 	.insn	8, 0x3f3f3f3f3f3f3f3f
    bf7a:	3f3f3f3f 3f3f3f3f 	.insn	8, 0x3f3f3f3f3f3f3f3f
    bf82:	3f3f3f3f 3f3f3f3f 	.insn	8, 0x3f3f3f3f3f3f3f3f
    bf8a:	3f3f3f3f 3f3f3f3f 	.insn	8, 0x3f3f3f3f3f3f3f3f
    bf92:	3f3f3f3f 3f3f3f3f 	.insn	8, 0x3f3f3f3f3f3f3f3f
    bf9a:	3f3f3f3f 3f3f3f3f 	.insn	8, 0x3f3f3f3f3f3f3f3f
    bfa2:	3f3f3f3f 3f3f3f3f 	.insn	8, 0x3f3f3f3f3f3f3f3f
    bfaa:	3f3f3f3f 3f3f3f3f 	.insn	8, 0x3f3f3f3f3f3f3f3f
    bfb2:	3f3f3f3f 3f3f3f3f 	.insn	8, 0x3f3f3f3f3f3f3f3f
    bfba:	3f3f3f3f 3f3f3f3f 	.insn	8, 0x3f3f3f3f3f3f3f3f
    bfc2:	3f3f3f3f 3f3f3f3f 	.insn	8, 0x3f3f3f3f3f3f3f3f
    bfca:	3f3f3f3f 3f3f3f3f 	.insn	8, 0x3f3f3f3f3f3f3f3f
    bfd2:	3f3f3f3f 3f3f3f3f 	.insn	8, 0x3f3f3f3f3f3f3f3f
    bfda:	3f3f3f3f 3f3f3f3f 	.insn	8, 0x3f3f3f3f3f3f3f3f
    bfe2:	3f3f3f3f 3f3f3f3f 	.insn	8, 0x3f3f3f3f3f3f3f3f
    bfea:	3f3f3f3f 3f3f3f3f 	.insn	8, 0x3f3f3f3f3f3f3f3f
    bff2:	3f3f3f3f 3f3f3f3f 	.insn	8, 0x3f3f3f3f3f3f3f3f
    bffa:	3f3f3f3f 3f3f3f3f 	.insn	8, 0x3f3f3f3f3f3f3f3f
    c002:	3f3f3f3f 3f3f3f3f 	.insn	8, 0x3f3f3f3f3f3f3f3f
    c00a:	3f3f3f3f 3f3f3f3f 	.insn	8, 0x3f3f3f3f3f3f3f3f
    c012:	3f3f3f3f 3f3f3f3f 	.insn	8, 0x3f3f3f3f3f3f3f3f
    c01a:	3f3f3f3f 3f3f3f3f 	.insn	8, 0x3f3f3f3f3f3f3f3f
    c022:	3f3f3f3f 3f3f3f3f 	.insn	8, 0x3f3f3f3f3f3f3f3f
    c02a:	3f3f3f3f 3f3f3f3f 	.insn	8, 0x3f3f3f3f3f3f3f3f
    c032:	3f3f3f3f 3f3f3f3f 	.insn	8, 0x3f3f3f3f3f3f3f3f
    c03a:	3f3f3f3f 3f3f3f3f 	.insn	8, 0x3f3f3f3f3f3f3f3f
    c042:	3f3f3f3f 3f3f3f3f 	.insn	8, 0x3f3f3f3f3f3f3f3f
    c04a:	3f3f3f3f 3f3f3f3f 	.insn	8, 0x3f3f3f3f3f3f3f3f
    c052:	3f3f3f3f 3f3f3f3f 	.insn	8, 0x3f3f3f3f3f3f3f3f
    c05a:	3f3f3f3f 3f3f3f3f 	.insn	8, 0x3f3f3f3f3f3f3f3f
    c062:	3f3f3f3f 3f3f3f3f 	.insn	8, 0x3f3f3f3f3f3f3f3f
    c06a:	3f3f3f3f 3f3f3f3f 	.insn	8, 0x3f3f3f3f3f3f3f3f
    c072:	3f3f3f3f 3f3f3f3f 	.insn	8, 0x3f3f3f3f3f3f3f3f
    c07a:	3f3f3f3f 3f3f3f3f 	.insn	8, 0x3f3f3f3f3f3f3f3f
    c082:	3f3f3f3f 3f3f3f3f 	.insn	8, 0x3f3f3f3f3f3f3f3f
    c08a:	3f3f3f3f 3f3f3f3f 	.insn	8, 0x3f3f3f3f3f3f3f3f
    c092:	3f3f3f3f 3f3f3f3f 	.insn	8, 0x3f3f3f3f3f3f3f3f
    c09a:	3f3f3f3f 3f3f3f3f 	.insn	8, 0x3f3f3f3f3f3f3f3f
    c0a2:	3f3f3f3f 3f3f3f3f 	.insn	8, 0x3f3f3f3f3f3f3f3f
    c0aa:	3f3f3f3f 3f3f3f3f 	.insn	8, 0x3f3f3f3f3f3f3f3f
    c0b2:	3f3f3f3f 3f3f3f3f 	.insn	8, 0x3f3f3f3f3f3f3f3f
    c0ba:	3f3f3f3f 3f3f3f3f 	.insn	8, 0x3f3f3f3f3f3f3f3f
    c0c2:	3f3f3f3f 3f3f3f3f 	.insn	8, 0x3f3f3f3f3f3f3f3f
    c0ca:	3f3f3f3f 3f3f3f3f 	.insn	8, 0x3f3f3f3f3f3f3f3f
    c0d2:	3f3f3f3f 3f3f3f3f 	.insn	8, 0x3f3f3f3f3f3f3f3f
    c0da:	3f3f3f3f 3f3f3f3f 	.insn	8, 0x3f3f3f3f3f3f3f3f
    c0e2:	3f3f3f3f 3f3f3f3f 	.insn	8, 0x3f3f3f3f3f3f3f3f
    c0ea:	3f3f3f3f 3f3f3f3f 	.insn	8, 0x3f3f3f3f3f3f3f3f
    c0f2:	3f3f3f3f 3f3f3f3f 	.insn	8, 0x3f3f3f3f3f3f3f3f
    c0fa:	3f3f3f3f 3f3f3f3f 	.insn	8, 0x3f3f3f3f3f3f3f3f
    c102:	3f3f3f3f 3f3f3f3f 	.insn	8, 0x3f3f3f3f3f3f3f3f
    c10a:	3f3f3f3f 3f3f3f3f 	.insn	8, 0x3f3f3f3f3f3f3f3f
    c112:	3f3f3f3f 3f3f3f3f 	.insn	8, 0x3f3f3f3f3f3f3f3f
    c11a:	3f3f3f3f 3f3f3f3f 	.insn	8, 0x3f3f3f3f3f3f3f3f
    c122:	3f3f3f3f 3f3f3f3f 	.insn	8, 0x3f3f3f3f3f3f3f3f
    c12a:	3f3f3f3f 3f3f3f3f 	.insn	8, 0x3f3f3f3f3f3f3f3f
    c132:	3f3f3f3f 3f3f3f3f 	.insn	8, 0x3f3f3f3f3f3f3f3f
    c13a:	3f3f3f3f 3f3f3f3f 	.insn	8, 0x3f3f3f3f3f3f3f3f
    c142:	3f3f3f3f 3f3f3f3f 	.insn	8, 0x3f3f3f3f3f3f3f3f
    c14a:	3f3f3f3f 3f3f3f3f 	.insn	8, 0x3f3f3f3f3f3f3f3f
    c152:	3f3f3f3f 3f3f3f3f 	.insn	8, 0x3f3f3f3f3f3f3f3f
    c15a:	3f3f3f3f 3f3f3f3f 	.insn	8, 0x3f3f3f3f3f3f3f3f
    c162:	3f3f3f3f 3f3f3f3f 	.insn	8, 0x3f3f3f3f3f3f3f3f
    c16a:	3f3f3f3f 3f3f3f3f 	.insn	8, 0x3f3f3f3f3f3f3f3f
    c172:	3f3f3f3f 3f3f3f3f 	.insn	8, 0x3f3f3f3f3f3f3f3f
    c17a:	3f3f3f3f 3f3f3f3f 	.insn	8, 0x3f3f3f3f3f3f3f3f
    c182:	3f3f3f3f 3f3f3f3f 	.insn	8, 0x3f3f3f3f3f3f3f3f
    c18a:	3f3f3f3f 3f3f3f3f 	.insn	8, 0x3f3f3f3f3f3f3f3f
    c192:	3f3f3f3f 3f3f3f3f 	.insn	8, 0x3f3f3f3f3f3f3f3f
    c19a:	3f3f3f3f 3f3f3f3f 	.insn	8, 0x3f3f3f3f3f3f3f3f
    c1a2:	3f3f3f3f 3f3f3f3f 	.insn	8, 0x3f3f3f3f3f3f3f3f
    c1aa:	3f3f3f3f 3f3f3f3f 	.insn	8, 0x3f3f3f3f3f3f3f3f
    c1b2:	3f3f3f3f 3f3f3f3f 	.insn	8, 0x3f3f3f3f3f3f3f3f
    c1ba:	3f3f3f3f 3f3f3f3f 	.insn	8, 0x3f3f3f3f3f3f3f3f
    c1c2:	3f3f3f3f 3f3f3f3f 	.insn	8, 0x3f3f3f3f3f3f3f3f
    c1ca:	3f3f3f3f 3f3f3f3f 	.insn	8, 0x3f3f3f3f3f3f3f3f
    c1d2:	3f3f3f3f 3f3f3f3f 	.insn	8, 0x3f3f3f3f3f3f3f3f
    c1da:	3f3f3f3f 3f3f3f3f 	.insn	8, 0x3f3f3f3f3f3f3f3f
    c1e2:	3f3f3f3f 3f3f3f3f 	.insn	8, 0x3f3f3f3f3f3f3f3f
    c1ea:	3f3f3f3f 3f3f3f3f 	.insn	8, 0x3f3f3f3f3f3f3f3f
    c1f2:	3f3f3f3f 3f3f3f3f 	.insn	8, 0x3f3f3f3f3f3f3f3f
    c1fa:	3f3f3f3f 3f3f3f3f 	.insn	8, 0x3f3f3f3f3f3f3f3f
    c202:	3f3f3f3f 3f3f3f3f 	.insn	8, 0x3f3f3f3f3f3f3f3f
    c20a:	3f3f3f3f 3f3f3f3f 	.insn	8, 0x3f3f3f3f3f3f3f3f
    c212:	3f3f3f3f 3f3f3f3f 	.insn	8, 0x3f3f3f3f3f3f3f3f
    c21a:	3f3f3f3f 3f3f3f3f 	.insn	8, 0x3f3f3f3f3f3f3f3f
    c222:	3f3f3f3f 3f3f3f3f 	.insn	8, 0x3f3f3f3f3f3f3f3f
    c22a:	3f3f3f3f 3f3f3f3f 	.insn	8, 0x3f3f3f3f3f3f3f3f
    c232:	3f3f3f3f 3f3f3f3f 	.insn	8, 0x3f3f3f3f3f3f3f3f
    c23a:	3f3f3f3f 3f3f3f3f 	.insn	8, 0x3f3f3f3f3f3f3f3f
    c242:	3f3f3f3f 3f3f3f3f 	.insn	8, 0x3f3f3f3f3f3f3f3f
    c24a:	3f3f3f3f 3f3f3f3f 	.insn	8, 0x3f3f3f3f3f3f3f3f
    c252:	3f3f3f3f 3f3f3f3f 	.insn	8, 0x3f3f3f3f3f3f3f3f
    c25a:	3f3f3f3f 3f3f3f3f 	.insn	8, 0x3f3f3f3f3f3f3f3f
    c262:	3f3f3f3f 3f3f3f3f 	.insn	8, 0x3f3f3f3f3f3f3f3f
    c26a:	3f3f3f3f 3f3f3f3f 	.insn	8, 0x3f3f3f3f3f3f3f3f
    c272:	3f3f3f3f 3f3f3f3f 	.insn	8, 0x3f3f3f3f3f3f3f3f
    c27a:	3f3f3f3f 3f3f3f3f 	.insn	8, 0x3f3f3f3f3f3f3f3f
    c282:	3f3f3f3f 3f3f3f3f 	.insn	8, 0x3f3f3f3f3f3f3f3f
    c28a:	3f3f3f3f 3f3f3f3f 	.insn	8, 0x3f3f3f3f3f3f3f3f
    c292:	3f3f3f3f 3f3f3f3f 	.insn	8, 0x3f3f3f3f3f3f3f3f
    c29a:	3f3f3f3f 3f3f3f3f 	.insn	8, 0x3f3f3f3f3f3f3f3f
    c2a2:	3f3f3f3f 3f3f3f3f 	.insn	8, 0x3f3f3f3f3f3f3f3f
    c2aa:	3f3f3f3f 3f3f3f3f 	.insn	8, 0x3f3f3f3f3f3f3f3f
    c2b2:	3f3f3f3f 3f3f3f3f 	.insn	8, 0x3f3f3f3f3f3f3f3f
    c2ba:	3f3f3f3f 3f3f3f3f 	.insn	8, 0x3f3f3f3f3f3f3f3f
    c2c2:	3f3f3f3f 3f3f3f3f 	.insn	8, 0x3f3f3f3f3f3f3f3f
    c2ca:	3f3f3f3f 3f3f3f3f 	.insn	8, 0x3f3f3f3f3f3f3f3f
    c2d2:	3f3f3f3f 3f3f3f3f 	.insn	8, 0x3f3f3f3f3f3f3f3f
    c2da:	3f3f3f3f 3f3f3f3f 	.insn	8, 0x3f3f3f3f3f3f3f3f
    c2e2:	3f3f3f3f 3f3f3f3f 	.insn	8, 0x3f3f3f3f3f3f3f3f
    c2ea:	3f3f3f3f 3f3f3f3f 	.insn	8, 0x3f3f3f3f3f3f3f3f
    c2f2:	3f3f3f3f 3f3f3f3f 	.insn	8, 0x3f3f3f3f3f3f3f3f
    c2fa:	3f3f3f3f 3f3f3f3f 	.insn	8, 0x3f3f3f3f3f3f3f3f
    c302:	3f3f3f3f 3f3f3f3f 	.insn	8, 0x3f3f3f3f3f3f3f3f
    c30a:	3f3f3f3f 3f3f3f3f 	.insn	8, 0x3f3f3f3f3f3f3f3f
    c312:	3f3f3f3f 3f3f3f3f 	.insn	8, 0x3f3f3f3f3f3f3f3f
    c31a:	3f3f3f3f 3f3f3f3f 	.insn	8, 0x3f3f3f3f3f3f3f3f
    c322:	3f3f3f3f 3f3f3f3f 	.insn	8, 0x3f3f3f3f3f3f3f3f
    c32a:	3f3f3f3f 3f3f3f3f 	.insn	8, 0x3f3f3f3f3f3f3f3f
    c332:	3f3f3f3f 3f3f3f3f 	.insn	8, 0x3f3f3f3f3f3f3f3f
    c33a:	3f3f3f3f 3f3f3f3f 	.insn	8, 0x3f3f3f3f3f3f3f3f
    c342:	3f3f3f3f 3f3f3f3f 	.insn	8, 0x3f3f3f3f3f3f3f3f
    c34a:	3f3f3f3f 3f3f3f3f 	.insn	8, 0x3f3f3f3f3f3f3f3f
    c352:	3f3f3f3f 3f3f3f3f 	.insn	8, 0x3f3f3f3f3f3f3f3f
    c35a:	3f3f3f3f 3f3f3f3f 	.insn	8, 0x3f3f3f3f3f3f3f3f
    c362:	3f3f3f3f 3f3f3f3f 	.insn	8, 0x3f3f3f3f3f3f3f3f
    c36a:	3f3f3f3f 3f3f3f3f 	.insn	8, 0x3f3f3f3f3f3f3f3f
    c372:	3f3f3f3f 3f3f3f3f 	.insn	8, 0x3f3f3f3f3f3f3f3f
    c37a:	3f3f3f3f 3f3f3f3f 	.insn	8, 0x3f3f3f3f3f3f3f3f
    c382:	3f3f3f3f 3f3f3f3f 	.insn	8, 0x3f3f3f3f3f3f3f3f
    c38a:	3f3f3f3f 3f3f3f3f 	.insn	8, 0x3f3f3f3f3f3f3f3f
    c392:	3f3f3f3f 3f3f3f3f 	.insn	8, 0x3f3f3f3f3f3f3f3f
    c39a:	3f3f3f3f 3f3f3f3f 	.insn	8, 0x3f3f3f3f3f3f3f3f
    c3a2:	3f3f3f3f 3f3f3f3f 	.insn	8, 0x3f3f3f3f3f3f3f3f
    c3aa:	3f3f3f3f 3f3f3f3f 	.insn	8, 0x3f3f3f3f3f3f3f3f
    c3b2:	3f3f3f3f 3f3f3f3f 	.insn	8, 0x3f3f3f3f3f3f3f3f
    c3ba:	3f3f3f3f 3f3f3f3f 	.insn	8, 0x3f3f3f3f3f3f3f3f
    c3c2:	3f3f3f3f 3f3f3f3f 	.insn	8, 0x3f3f3f3f3f3f3f3f
    c3ca:	3f3f3f3f 3f3f3f3f 	.insn	8, 0x3f3f3f3f3f3f3f3f
    c3d2:	3f3f3f3f 3f3f3f3f 	.insn	8, 0x3f3f3f3f3f3f3f3f
    c3da:	3f3f3f3f 3f3f3f3f 	.insn	8, 0x3f3f3f3f3f3f3f3f
    c3e2:	3f3f3f3f 3f3f3f3f 	.insn	8, 0x3f3f3f3f3f3f3f3f
    c3ea:	3f3f3f3f 3f3f3f3f 	.insn	8, 0x3f3f3f3f3f3f3f3f
    c3f2:	3f3f3f3f 3f3f3f3f 	.insn	8, 0x3f3f3f3f3f3f3f3f
    c3fa:	3f3f3f3f 3f3f3f3f 	.insn	8, 0x3f3f3f3f3f3f3f3f
    c402:	3f3f3f3f 3f3f3f3f 	.insn	8, 0x3f3f3f3f3f3f3f3f
    c40a:	3f3f3f3f 3f3f3f3f 	.insn	8, 0x3f3f3f3f3f3f3f3f
    c412:	3f3f3f3f 3f3f3f3f 	.insn	8, 0x3f3f3f3f3f3f3f3f
    c41a:	3f3f3f3f 3f3f3f3f 	.insn	8, 0x3f3f3f3f3f3f3f3f
    c422:	3f3f3f3f 3f3f3f3f 	.insn	8, 0x3f3f3f3f3f3f3f3f
    c42a:	3f3f3f3f 3f3f3f3f 	.insn	8, 0x3f3f3f3f3f3f3f3f
    c432:	3f3f3f3f 3f3f3f3f 	.insn	8, 0x3f3f3f3f3f3f3f3f
    c43a:	3f3f3f3f 3f3f3f3f 	.insn	8, 0x3f3f3f3f3f3f3f3f
    c442:	3f3f3f3f 3f3f3f3f 	.insn	8, 0x3f3f3f3f3f3f3f3f
    c44a:	3f3f3f3f 3f3f3f3f 	.insn	8, 0x3f3f3f3f3f3f3f3f
    c452:	3f3f3f3f 3f3f3f3f 	.insn	8, 0x3f3f3f3f3f3f3f3f
    c45a:	3f3f3f3f 3f3f3f3f 	.insn	8, 0x3f3f3f3f3f3f3f3f
    c462:	3f3f3f3f 3f3f3f3f 	.insn	8, 0x3f3f3f3f3f3f3f3f
    c46a:	3f3f3f3f 3f3f3f3f 	.insn	8, 0x3f3f3f3f3f3f3f3f
    c472:	3f3f3f3f 3f3f3f3f 	.insn	8, 0x3f3f3f3f3f3f3f3f
    c47a:	3f3f3f3f 3f3f3f3f 	.insn	8, 0x3f3f3f3f3f3f3f3f
    c482:	3f3f3f3f 3f3f3f3f 	.insn	8, 0x3f3f3f3f3f3f3f3f
    c48a:	3f3f3f3f 3f3f3f3f 	.insn	8, 0x3f3f3f3f3f3f3f3f
    c492:	3f3f3f3f 3f3f3f3f 	.insn	8, 0x3f3f3f3f3f3f3f3f
    c49a:	3f3f3f3f 3f3f3f3f 	.insn	8, 0x3f3f3f3f3f3f3f3f
    c4a2:	3f3f3f3f 3f3f3f3f 	.insn	8, 0x3f3f3f3f3f3f3f3f
    c4aa:	3f3f3f3f 3f3f3f3f 	.insn	8, 0x3f3f3f3f3f3f3f3f
    c4b2:	3f3f3f3f 3f3f3f3f 	.insn	8, 0x3f3f3f3f3f3f3f3f
    c4ba:	3f3f3f3f 3f3f3f3f 	.insn	8, 0x3f3f3f3f3f3f3f3f
    c4c2:	3f3f3f3f 3f3f3f3f 	.insn	8, 0x3f3f3f3f3f3f3f3f
    c4ca:	3f3f3f3f 3f3f3f3f 	.insn	8, 0x3f3f3f3f3f3f3f3f
    c4d2:	3f3f3f3f 3f3f3f3f 	.insn	8, 0x3f3f3f3f3f3f3f3f
    c4da:	3f3f3f3f 3f3f3f3f 	.insn	8, 0x3f3f3f3f3f3f3f3f
    c4e2:	3f3f3f3f 3f3f3f3f 	.insn	8, 0x3f3f3f3f3f3f3f3f
    c4ea:	3f3f3f3f 3f3f3f3f 	.insn	8, 0x3f3f3f3f3f3f3f3f
    c4f2:	3f3f3f3f 3f3f3f3f 	.insn	8, 0x3f3f3f3f3f3f3f3f
    c4fa:	3f3f3f3f 3f3f3f3f 	.insn	8, 0x3f3f3f3f3f3f3f3f
    c502:	3f3f3f3f 3f3f3f3f 	.insn	8, 0x3f3f3f3f3f3f3f3f
    c50a:	3f3f3f3f 3f3f3f3f 	.insn	8, 0x3f3f3f3f3f3f3f3f
    c512:	3f3f3f3f 3f3f3f3f 	.insn	8, 0x3f3f3f3f3f3f3f3f
    c51a:	3f3f3f3f 3f3f3f3f 	.insn	8, 0x3f3f3f3f3f3f3f3f
    c522:	3f3f3f3f 3f3f3f3f 	.insn	8, 0x3f3f3f3f3f3f3f3f
    c52a:	3f3f3f3f 3f3f3f3f 	.insn	8, 0x3f3f3f3f3f3f3f3f
    c532:	3f3f3f3f 3f3f3f3f 	.insn	8, 0x3f3f3f3f3f3f3f3f
    c53a:	3f3f3f3f 3f3f3f3f 	.insn	8, 0x3f3f3f3f3f3f3f3f
    c542:	3f3f3f3f 3f3f3f3f 	.insn	8, 0x3f3f3f3f3f3f3f3f
    c54a:	3f3f3f3f 3f3f3f3f 	.insn	8, 0x3f3f3f3f3f3f3f3f
    c552:	3f3f3f3f 3f3f3f3f 	.insn	8, 0x3f3f3f3f3f3f3f3f
    c55a:	3f3f3f3f 3f3f3f3f 	.insn	8, 0x3f3f3f3f3f3f3f3f
    c562:	3f3f3f3f 3f3f3f3f 	.insn	8, 0x3f3f3f3f3f3f3f3f
    c56a:	3f3f3f3f 3f3f3f3f 	.insn	8, 0x3f3f3f3f3f3f3f3f
    c572:	3f3f3f3f 3f3f3f3f 	.insn	8, 0x3f3f3f3f3f3f3f3f
    c57a:	3f3f3f3f 3f3f3f3f 	.insn	8, 0x3f3f3f3f3f3f3f3f
    c582:	3f3f3f3f 3f3f3f3f 	.insn	8, 0x3f3f3f3f3f3f3f3f
    c58a:	3f3f3f3f 3f3f3f3f 	.insn	8, 0x3f3f3f3f3f3f3f3f
    c592:	3f3f3f3f 3f3f3f3f 	.insn	8, 0x3f3f3f3f3f3f3f3f
    c59a:	3f3f3f3f 3f3f3f3f 	.insn	8, 0x3f3f3f3f3f3f3f3f
    c5a2:	3f3f3f3f 3f3f3f3f 	.insn	8, 0x3f3f3f3f3f3f3f3f
    c5aa:	3f3f3f3f 3f3f3f3f 	.insn	8, 0x3f3f3f3f3f3f3f3f
    c5b2:	3f3f3f3f 3f3f3f3f 	.insn	8, 0x3f3f3f3f3f3f3f3f
    c5ba:	3f3f3f3f 3f3f3f3f 	.insn	8, 0x3f3f3f3f3f3f3f3f
    c5c2:	3f3f3f3f 3f3f3f3f 	.insn	8, 0x3f3f3f3f3f3f3f3f
    c5ca:	3f3f3f3f 3f3f3f3f 	.insn	8, 0x3f3f3f3f3f3f3f3f
    c5d2:	3f3f3f3f 3f3f3f3f 	.insn	8, 0x3f3f3f3f3f3f3f3f
    c5da:	3f3f3f3f 3f3f3f3f 	.insn	8, 0x3f3f3f3f3f3f3f3f
    c5e2:	3f3f3f3f 3f3f3f3f 	.insn	8, 0x3f3f3f3f3f3f3f3f
    c5ea:	3f3f3f3f 3f3f3f3f 	.insn	8, 0x3f3f3f3f3f3f3f3f
    c5f2:	3f3f3f3f 3f3f3f3f 	.insn	8, 0x3f3f3f3f3f3f3f3f
    c5fa:	3f3f3f3f 3f3f3f3f 	.insn	8, 0x3f3f3f3f3f3f3f3f
    c602:	3f3f3f3f 3f3f3f3f 	.insn	8, 0x3f3f3f3f3f3f3f3f
    c60a:	3f3f3f3f 3f3f3f3f 	.insn	8, 0x3f3f3f3f3f3f3f3f
    c612:	3f3f3f3f 3f3f3f3f 	.insn	8, 0x3f3f3f3f3f3f3f3f
    c61a:	3f3f3f3f 3f3f3f3f 	.insn	8, 0x3f3f3f3f3f3f3f3f
    c622:	3f3f3f3f 3f3f3f3f 	.insn	8, 0x3f3f3f3f3f3f3f3f
    c62a:	3f3f3f3f 3f3f3f3f 	.insn	8, 0x3f3f3f3f3f3f3f3f
    c632:	3f3f3f3f 3f3f3f3f 	.insn	8, 0x3f3f3f3f3f3f3f3f
    c63a:	3f3f3f3f 3f3f3f3f 	.insn	8, 0x3f3f3f3f3f3f3f3f
    c642:	3f3f3f3f 3f3f3f3f 	.insn	8, 0x3f3f3f3f3f3f3f3f
    c64a:	3f3f3f3f 3f3f3f3f 	.insn	8, 0x3f3f3f3f3f3f3f3f
    c652:	3f3f3f3f 3f3f3f3f 	.insn	8, 0x3f3f3f3f3f3f3f3f
    c65a:	3f3f3f3f 3f3f3f3f 	.insn	8, 0x3f3f3f3f3f3f3f3f
    c662:	3f3f3f3f 3f3f3f3f 	.insn	8, 0x3f3f3f3f3f3f3f3f
    c66a:	3f3f3f3f 3f3f3f3f 	.insn	8, 0x3f3f3f3f3f3f3f3f
    c672:	3f3f3f3f 3f3f3f3f 	.insn	8, 0x3f3f3f3f3f3f3f3f
    c67a:	3f3f3f3f 3f3f3f3f 	.insn	8, 0x3f3f3f3f3f3f3f3f
    c682:	3f3f3f3f 3f3f3f3f 	.insn	8, 0x3f3f3f3f3f3f3f3f
    c68a:	3f3f3f3f 3f3f3f3f 	.insn	8, 0x3f3f3f3f3f3f3f3f
    c692:	3f3f3f3f 3f3f3f3f 	.insn	8, 0x3f3f3f3f3f3f3f3f
    c69a:	3f3f3f3f 3f3f3f3f 	.insn	8, 0x3f3f3f3f3f3f3f3f
    c6a2:	3f3f3f3f 3f3f3f3f 	.insn	8, 0x3f3f3f3f3f3f3f3f
    c6aa:	3f3f3f3f 3f3f3f3f 	.insn	8, 0x3f3f3f3f3f3f3f3f
    c6b2:	3f3f3f3f 3f3f3f3f 	.insn	8, 0x3f3f3f3f3f3f3f3f
    c6ba:	3f3f3f3f 3f3f3f3f 	.insn	8, 0x3f3f3f3f3f3f3f3f
    c6c2:	3f3f3f3f 3f3f3f3f 	.insn	8, 0x3f3f3f3f3f3f3f3f
    c6ca:	3f3f3f3f 3f3f3f3f 	.insn	8, 0x3f3f3f3f3f3f3f3f
    c6d2:	3f3f3f3f 3f3f3f3f 	.insn	8, 0x3f3f3f3f3f3f3f3f
    c6da:	3f3f3f3f 3f3f3f3f 	.insn	8, 0x3f3f3f3f3f3f3f3f
    c6e2:	3f3f3f3f 3f3f3f3f 	.insn	8, 0x3f3f3f3f3f3f3f3f
    c6ea:	3f3f3f3f 3f3f3f3f 	.insn	8, 0x3f3f3f3f3f3f3f3f
    c6f2:	3f3f3f3f 3f3f3f3f 	.insn	8, 0x3f3f3f3f3f3f3f3f
    c6fa:	3f3f3f3f 3f3f3f3f 	.insn	8, 0x3f3f3f3f3f3f3f3f
    c702:	3f3f3f3f 3f3f3f3f 	.insn	8, 0x3f3f3f3f3f3f3f3f
    c70a:	3f3f3f3f 3f3f3f3f 	.insn	8, 0x3f3f3f3f3f3f3f3f
    c712:	3f3f3f3f 3f3f3f3f 	.insn	8, 0x3f3f3f3f3f3f3f3f
    c71a:	3f3f3f3f 3f3f3f3f 	.insn	8, 0x3f3f3f3f3f3f3f3f
    c722:	3f3f3f3f 3f3f3f3f 	.insn	8, 0x3f3f3f3f3f3f3f3f
    c72a:	3f3f3f3f 3f3f3f3f 	.insn	8, 0x3f3f3f3f3f3f3f3f
    c732:	3f3f3f3f 3f3f3f3f 	.insn	8, 0x3f3f3f3f3f3f3f3f
    c73a:	3f3f3f3f 3f3f3f3f 	.insn	8, 0x3f3f3f3f3f3f3f3f
    c742:	3f3f3f3f 3f3f3f3f 	.insn	8, 0x3f3f3f3f3f3f3f3f
    c74a:	3f3f3f3f 3f3f3f3f 	.insn	8, 0x3f3f3f3f3f3f3f3f
    c752:	3f3f3f3f 3f3f3f3f 	.insn	8, 0x3f3f3f3f3f3f3f3f
    c75a:	3f3f3f3f 3f3f3f3f 	.insn	8, 0x3f3f3f3f3f3f3f3f
    c762:	3f3f3f3f 3f3f3f3f 	.insn	8, 0x3f3f3f3f3f3f3f3f
    c76a:	3f3f3f3f 3f3f3f3f 	.insn	8, 0x3f3f3f3f3f3f3f3f
    c772:	3f3f3f3f 3f3f3f3f 	.insn	8, 0x3f3f3f3f3f3f3f3f
    c77a:	3f3f3f3f 3f3f3f3f 	.insn	8, 0x3f3f3f3f3f3f3f3f
    c782:	3f3f3f3f 3f3f3f3f 	.insn	8, 0x3f3f3f3f3f3f3f3f
    c78a:	3f3f3f3f 3f3f3f3f 	.insn	8, 0x3f3f3f3f3f3f3f3f
    c792:	3f3f3f3f 3f3f3f3f 	.insn	8, 0x3f3f3f3f3f3f3f3f
    c79a:	3f3f3f3f 3f3f3f3f 	.insn	8, 0x3f3f3f3f3f3f3f3f
    c7a2:	3f3f3f3f 3f3f3f3f 	.insn	8, 0x3f3f3f3f3f3f3f3f
    c7aa:	3f3f3f3f 3f3f3f3f 	.insn	8, 0x3f3f3f3f3f3f3f3f
    c7b2:	3f3f3f3f 3f3f3f3f 	.insn	8, 0x3f3f3f3f3f3f3f3f
    c7ba:	3f3f3f3f 3f3f3f3f 	.insn	8, 0x3f3f3f3f3f3f3f3f
    c7c2:	3f3f3f3f 3f3f3f3f 	.insn	8, 0x3f3f3f3f3f3f3f3f
    c7ca:	3f3f3f3f 3f3f3f3f 	.insn	8, 0x3f3f3f3f3f3f3f3f
    c7d2:	3f3f3f3f 3f3f3f3f 	.insn	8, 0x3f3f3f3f3f3f3f3f
    c7da:	3f3f3f3f 3f3f3f3f 	.insn	8, 0x3f3f3f3f3f3f3f3f
    c7e2:	3f3f3f3f 3f3f3f3f 	.insn	8, 0x3f3f3f3f3f3f3f3f
    c7ea:	3f3f3f3f 3f3f3f3f 	.insn	8, 0x3f3f3f3f3f3f3f3f
    c7f2:	3f3f3f3f 3f3f3f3f 	.insn	8, 0x3f3f3f3f3f3f3f3f
    c7fa:	3f3f3f3f 3f3f3f3f 	.insn	8, 0x3f3f3f3f3f3f3f3f
    c802:	3f3f3f3f 3f3f3f3f 	.insn	8, 0x3f3f3f3f3f3f3f3f
    c80a:	3f3f3f3f 3f3f3f3f 	.insn	8, 0x3f3f3f3f3f3f3f3f
    c812:	3f3f3f3f 3f3f3f3f 	.insn	8, 0x3f3f3f3f3f3f3f3f
    c81a:	3f3f3f3f 3f3f3f3f 	.insn	8, 0x3f3f3f3f3f3f3f3f
    c822:	3f3f3f3f 3f3f3f3f 	.insn	8, 0x3f3f3f3f3f3f3f3f
    c82a:	3f3f3f3f 3f3f3f3f 	.insn	8, 0x3f3f3f3f3f3f3f3f
    c832:	3f3f3f3f 3f3f3f3f 	.insn	8, 0x3f3f3f3f3f3f3f3f
    c83a:	3f3f3f3f 3f3f3f3f 	.insn	8, 0x3f3f3f3f3f3f3f3f
    c842:	3f3f3f3f 3f3f3f3f 	.insn	8, 0x3f3f3f3f3f3f3f3f
    c84a:	3f3f3f3f 3f3f3f3f 	.insn	8, 0x3f3f3f3f3f3f3f3f
    c852:	3f3f3f3f 3f3f3f3f 	.insn	8, 0x3f3f3f3f3f3f3f3f
    c85a:	3f3f3f3f 3f3f3f3f 	.insn	8, 0x3f3f3f3f3f3f3f3f
    c862:	3f3f3f3f 3f3f3f3f 	.insn	8, 0x3f3f3f3f3f3f3f3f
    c86a:	3f3f3f3f 3f3f3f3f 	.insn	8, 0x3f3f3f3f3f3f3f3f
    c872:	3f3f3f3f 3f3f3f3f 	.insn	8, 0x3f3f3f3f3f3f3f3f
    c87a:	3f3f3f3f 3f3f3f3f 	.insn	8, 0x3f3f3f3f3f3f3f3f
    c882:	3f3f3f3f 3f3f3f3f 	.insn	8, 0x3f3f3f3f3f3f3f3f
    c88a:	3f3f3f3f 3f3f3f3f 	.insn	8, 0x3f3f3f3f3f3f3f3f
    c892:	3f3f3f3f 3f3f3f3f 	.insn	8, 0x3f3f3f3f3f3f3f3f
    c89a:	3f3f3f3f 3f3f3f3f 	.insn	8, 0x3f3f3f3f3f3f3f3f
    c8a2:	3f3f3f3f 3f3f3f3f 	.insn	8, 0x3f3f3f3f3f3f3f3f
    c8aa:	3f3f3f3f 3f3f3f3f 	.insn	8, 0x3f3f3f3f3f3f3f3f
    c8b2:	3f3f3f3f 3f3f3f3f 	.insn	8, 0x3f3f3f3f3f3f3f3f
    c8ba:	3f3f3f3f 3f3f3f3f 	.insn	8, 0x3f3f3f3f3f3f3f3f
    c8c2:	3f3f3f3f 3f3f3f3f 	.insn	8, 0x3f3f3f3f3f3f3f3f
    c8ca:	3f3f3f3f 3f3f3f3f 	.insn	8, 0x3f3f3f3f3f3f3f3f
    c8d2:	3f3f3f3f 3f3f3f3f 	.insn	8, 0x3f3f3f3f3f3f3f3f
    c8da:	3f3f3f3f 3f3f3f3f 	.insn	8, 0x3f3f3f3f3f3f3f3f
    c8e2:	3f3f3f3f 3f3f3f3f 	.insn	8, 0x3f3f3f3f3f3f3f3f
    c8ea:	3f3f3f3f 3f3f3f3f 	.insn	8, 0x3f3f3f3f3f3f3f3f
    c8f2:	3f3f3f3f 3f3f3f3f 	.insn	8, 0x3f3f3f3f3f3f3f3f
    c8fa:	3f3f3f3f 3f3f3f3f 	.insn	8, 0x3f3f3f3f3f3f3f3f
    c902:	3f3f3f3f 3f3f3f3f 	.insn	8, 0x3f3f3f3f3f3f3f3f
    c90a:	3f3f3f3f 3f3f3f3f 	.insn	8, 0x3f3f3f3f3f3f3f3f
    c912:	3f3f3f3f 3f3f3f3f 	.insn	8, 0x3f3f3f3f3f3f3f3f
    c91a:	3f3f3f3f 3f3f3f3f 	.insn	8, 0x3f3f3f3f3f3f3f3f
    c922:	3f3f3f3f 3f3f3f3f 	.insn	8, 0x3f3f3f3f3f3f3f3f
    c92a:	3f3f3f3f 3f3f3f3f 	.insn	8, 0x3f3f3f3f3f3f3f3f
    c932:	3f3f3f3f 3f3f3f3f 	.insn	8, 0x3f3f3f3f3f3f3f3f
    c93a:	3f3f3f3f 3f3f3f3f 	.insn	8, 0x3f3f3f3f3f3f3f3f
    c942:	3f3f3f3f 3f3f3f3f 	.insn	8, 0x3f3f3f3f3f3f3f3f
    c94a:	3f3f3f3f 3f3f3f3f 	.insn	8, 0x3f3f3f3f3f3f3f3f
    c952:	3f3f3f3f 3f3f3f3f 	.insn	8, 0x3f3f3f3f3f3f3f3f
    c95a:	3f3f3f3f 3f3f3f3f 	.insn	8, 0x3f3f3f3f3f3f3f3f
    c962:	3f3f3f3f 3f3f3f3f 	.insn	8, 0x3f3f3f3f3f3f3f3f
    c96a:	3f3f3f3f 3f3f3f3f 	.insn	8, 0x3f3f3f3f3f3f3f3f
    c972:	3f3f3f3f 3f3f3f3f 	.insn	8, 0x3f3f3f3f3f3f3f3f
    c97a:	3f3f3f3f 3f3f3f3f 	.insn	8, 0x3f3f3f3f3f3f3f3f
    c982:	3f3f3f3f 3f3f3f3f 	.insn	8, 0x3f3f3f3f3f3f3f3f
    c98a:	3f3f3f3f 3f3f3f3f 	.insn	8, 0x3f3f3f3f3f3f3f3f
    c992:	3f3f3f3f 3f3f3f3f 	.insn	8, 0x3f3f3f3f3f3f3f3f
    c99a:	3f3f3f3f 3f3f3f3f 	.insn	8, 0x3f3f3f3f3f3f3f3f
    c9a2:	3f3f3f3f 3f3f3f3f 	.insn	8, 0x3f3f3f3f3f3f3f3f
    c9aa:	3f3f3f3f 3f3f3f3f 	.insn	8, 0x3f3f3f3f3f3f3f3f
    c9b2:	3f3f3f3f 3f3f3f3f 	.insn	8, 0x3f3f3f3f3f3f3f3f
    c9ba:	3f3f3f3f 3f3f3f3f 	.insn	8, 0x3f3f3f3f3f3f3f3f
    c9c2:	3f3f3f3f 3f3f3f3f 	.insn	8, 0x3f3f3f3f3f3f3f3f
    c9ca:	3f3f3f3f 3f3f3f3f 	.insn	8, 0x3f3f3f3f3f3f3f3f
    c9d2:	3f3f3f3f 3f3f3f3f 	.insn	8, 0x3f3f3f3f3f3f3f3f
    c9da:	3f3f3f3f 3f3f3f3f 	.insn	8, 0x3f3f3f3f3f3f3f3f
    c9e2:	3f3f3f3f 3f3f3f3f 	.insn	8, 0x3f3f3f3f3f3f3f3f
    c9ea:	3f3f3f3f 3f3f3f3f 	.insn	8, 0x3f3f3f3f3f3f3f3f
    c9f2:	3f3f3f3f 3f3f3f3f 	.insn	8, 0x3f3f3f3f3f3f3f3f
    c9fa:	3f3f3f3f 3f3f3f3f 	.insn	8, 0x3f3f3f3f3f3f3f3f
    ca02:	3f3f3f3f 3f3f3f3f 	.insn	8, 0x3f3f3f3f3f3f3f3f
    ca0a:	3f3f3f3f 3f3f3f3f 	.insn	8, 0x3f3f3f3f3f3f3f3f
    ca12:	3f3f3f3f 3f3f3f3f 	.insn	8, 0x3f3f3f3f3f3f3f3f
    ca1a:	3f3f3f3f 3f3f3f3f 	.insn	8, 0x3f3f3f3f3f3f3f3f
    ca22:	3f3f3f3f 3f3f3f3f 	.insn	8, 0x3f3f3f3f3f3f3f3f
    ca2a:	3f3f3f3f 3f3f3f3f 	.insn	8, 0x3f3f3f3f3f3f3f3f
    ca32:	3f3f3f3f 3f3f3f3f 	.insn	8, 0x3f3f3f3f3f3f3f3f
    ca3a:	3f3f3f3f 3f3f3f3f 	.insn	8, 0x3f3f3f3f3f3f3f3f
    ca42:	3f3f3f3f 3f3f3f3f 	.insn	8, 0x3f3f3f3f3f3f3f3f
    ca4a:	3f3f3f3f 3f3f3f3f 	.insn	8, 0x3f3f3f3f3f3f3f3f
    ca52:	3f3f3f3f 3f3f3f3f 	.insn	8, 0x3f3f3f3f3f3f3f3f
    ca5a:	3f3f3f3f 3f3f3f3f 	.insn	8, 0x3f3f3f3f3f3f3f3f
    ca62:	3f3f3f3f 3f3f3f3f 	.insn	8, 0x3f3f3f3f3f3f3f3f
    ca6a:	3f3f3f3f 3f3f3f3f 	.insn	8, 0x3f3f3f3f3f3f3f3f
    ca72:	3f3f3f3f 3f3f3f3f 	.insn	8, 0x3f3f3f3f3f3f3f3f
    ca7a:	3f3f3f3f 3f3f3f3f 	.insn	8, 0x3f3f3f3f3f3f3f3f
    ca82:	3f3f3f3f 3f3f3f3f 	.insn	8, 0x3f3f3f3f3f3f3f3f
    ca8a:	3f3f3f3f 3f3f3f3f 	.insn	8, 0x3f3f3f3f3f3f3f3f
    ca92:	3f3f3f3f 3f3f3f3f 	.insn	8, 0x3f3f3f3f3f3f3f3f
    ca9a:	3f3f3f3f 3f3f3f3f 	.insn	8, 0x3f3f3f3f3f3f3f3f
    caa2:	3f3f3f3f 3f3f3f3f 	.insn	8, 0x3f3f3f3f3f3f3f3f
    caaa:	3f3f3f3f 3f3f3f3f 	.insn	8, 0x3f3f3f3f3f3f3f3f
    cab2:	3f3f3f3f 3f3f3f3f 	.insn	8, 0x3f3f3f3f3f3f3f3f
    caba:	3f3f3f3f 3f3f3f3f 	.insn	8, 0x3f3f3f3f3f3f3f3f
    cac2:	3f3f3f3f 3f3f3f3f 	.insn	8, 0x3f3f3f3f3f3f3f3f
    caca:	3f3f3f3f 3f3f3f3f 	.insn	8, 0x3f3f3f3f3f3f3f3f
    cad2:	3f3f3f3f 3f3f3f3f 	.insn	8, 0x3f3f3f3f3f3f3f3f
    cada:	3f3f3f3f 3f3f3f3f 	.insn	8, 0x3f3f3f3f3f3f3f3f
    cae2:	3f3f3f3f 3f3f3f3f 	.insn	8, 0x3f3f3f3f3f3f3f3f
    caea:	3f3f3f3f 3f3f3f3f 	.insn	8, 0x3f3f3f3f3f3f3f3f
    caf2:	3f3f3f3f 3f3f3f3f 	.insn	8, 0x3f3f3f3f3f3f3f3f
    cafa:	3f3f3f3f 3f3f3f3f 	.insn	8, 0x3f3f3f3f3f3f3f3f
    cb02:	3f3f3f3f 3f3f3f3f 	.insn	8, 0x3f3f3f3f3f3f3f3f
    cb0a:	3f3f3f3f 3f3f3f3f 	.insn	8, 0x3f3f3f3f3f3f3f3f
    cb12:	3f3f3f3f 3f3f3f3f 	.insn	8, 0x3f3f3f3f3f3f3f3f
    cb1a:	3f3f3f3f 3f3f3f3f 	.insn	8, 0x3f3f3f3f3f3f3f3f
    cb22:	3f3f3f3f 3f3f3f3f 	.insn	8, 0x3f3f3f3f3f3f3f3f
    cb2a:	3f3f3f3f 3f3f3f3f 	.insn	8, 0x3f3f3f3f3f3f3f3f
    cb32:	3f3f3f3f 3f3f3f3f 	.insn	8, 0x3f3f3f3f3f3f3f3f
    cb3a:	3f3f3f3f 3f3f3f3f 	.insn	8, 0x3f3f3f3f3f3f3f3f
    cb42:	3f3f3f3f 3f3f3f3f 	.insn	8, 0x3f3f3f3f3f3f3f3f
    cb4a:	3f3f3f3f 3f3f3f3f 	.insn	8, 0x3f3f3f3f3f3f3f3f
    cb52:	3f3f3f3f 3f3f3f3f 	.insn	8, 0x3f3f3f3f3f3f3f3f
    cb5a:	3f3f3f3f 3f3f3f3f 	.insn	8, 0x3f3f3f3f3f3f3f3f
    cb62:	3f3f3f3f 3f3f3f3f 	.insn	8, 0x3f3f3f3f3f3f3f3f
    cb6a:	3f3f3f3f 3f3f3f3f 	.insn	8, 0x3f3f3f3f3f3f3f3f
    cb72:	3f3f3f3f 3f3f3f3f 	.insn	8, 0x3f3f3f3f3f3f3f3f
    cb7a:	3f3f3f3f 3f3f3f3f 	.insn	8, 0x3f3f3f3f3f3f3f3f
    cb82:	3f3f3f3f 3f3f3f3f 	.insn	8, 0x3f3f3f3f3f3f3f3f
    cb8a:	3f3f3f3f 3f3f3f3f 	.insn	8, 0x3f3f3f3f3f3f3f3f
    cb92:	3f3f3f3f 3f3f3f3f 	.insn	8, 0x3f3f3f3f3f3f3f3f
    cb9a:	3f3f3f3f 3f3f3f3f 	.insn	8, 0x3f3f3f3f3f3f3f3f
    cba2:	3f3f3f3f 3f3f3f3f 	.insn	8, 0x3f3f3f3f3f3f3f3f
    cbaa:	3f3f3f3f 3f3f3f3f 	.insn	8, 0x3f3f3f3f3f3f3f3f
    cbb2:	3f3f3f3f 3f3f3f3f 	.insn	8, 0x3f3f3f3f3f3f3f3f
    cbba:	3f3f3f3f 3f3f3f3f 	.insn	8, 0x3f3f3f3f3f3f3f3f
    cbc2:	3f3f3f3f 3f3f3f3f 	.insn	8, 0x3f3f3f3f3f3f3f3f
    cbca:	3f3f3f3f 3f3f3f3f 	.insn	8, 0x3f3f3f3f3f3f3f3f
    cbd2:	3f3f3f3f 3f3f3f3f 	.insn	8, 0x3f3f3f3f3f3f3f3f
    cbda:	3f3f3f3f 3f3f3f3f 	.insn	8, 0x3f3f3f3f3f3f3f3f
    cbe2:	3f3f3f3f 3f3f3f3f 	.insn	8, 0x3f3f3f3f3f3f3f3f
    cbea:	3f3f3f3f 3f3f3f3f 	.insn	8, 0x3f3f3f3f3f3f3f3f
    cbf2:	3f3f3f3f 3f3f3f3f 	.insn	8, 0x3f3f3f3f3f3f3f3f
    cbfa:	3f3f3f3f 3f3f3f3f 	.insn	8, 0x3f3f3f3f3f3f3f3f
    cc02:	3f3f3f3f 3f3f3f3f 	.insn	8, 0x3f3f3f3f3f3f3f3f
    cc0a:	3f3f3f3f 3f3f3f3f 	.insn	8, 0x3f3f3f3f3f3f3f3f
    cc12:	3f3f3f3f 3f3f3f3f 	.insn	8, 0x3f3f3f3f3f3f3f3f
    cc1a:	3f3f3f3f 3f3f3f3f 	.insn	8, 0x3f3f3f3f3f3f3f3f
    cc22:	3f3f3f3f 3f3f3f3f 	.insn	8, 0x3f3f3f3f3f3f3f3f
    cc2a:	3f3f3f3f 3f3f3f3f 	.insn	8, 0x3f3f3f3f3f3f3f3f
    cc32:	3f3f3f3f 3f3f3f3f 	.insn	8, 0x3f3f3f3f3f3f3f3f
    cc3a:	3f3f3f3f 3f3f3f3f 	.insn	8, 0x3f3f3f3f3f3f3f3f
    cc42:	3f3f3f3f 3f3f3f3f 	.insn	8, 0x3f3f3f3f3f3f3f3f
    cc4a:	3f3f3f3f 3f3f3f3f 	.insn	8, 0x3f3f3f3f3f3f3f3f
    cc52:	3f3f3f3f 3f3f3f3f 	.insn	8, 0x3f3f3f3f3f3f3f3f
    cc5a:	3f3f3f3f 3f3f3f3f 	.insn	8, 0x3f3f3f3f3f3f3f3f
    cc62:	3f3f3f3f 3f3f3f3f 	.insn	8, 0x3f3f3f3f3f3f3f3f
    cc6a:	3f3f3f3f 3f3f3f3f 	.insn	8, 0x3f3f3f3f3f3f3f3f
    cc72:	3f3f3f3f 3f3f3f3f 	.insn	8, 0x3f3f3f3f3f3f3f3f
    cc7a:	3f3f3f3f 3f3f3f3f 	.insn	8, 0x3f3f3f3f3f3f3f3f
    cc82:	3f3f3f3f 3f3f3f3f 	.insn	8, 0x3f3f3f3f3f3f3f3f
    cc8a:	3f3f3f3f 3f3f3f3f 	.insn	8, 0x3f3f3f3f3f3f3f3f
    cc92:	3f3f3f3f 3f3f3f3f 	.insn	8, 0x3f3f3f3f3f3f3f3f
    cc9a:	3f3f3f3f 3f3f3f3f 	.insn	8, 0x3f3f3f3f3f3f3f3f
    cca2:	3f3f3f3f 3f3f3f3f 	.insn	8, 0x3f3f3f3f3f3f3f3f
    ccaa:	3f3f3f3f 3f3f3f3f 	.insn	8, 0x3f3f3f3f3f3f3f3f
    ccb2:	3f3f3f3f 3f3f3f3f 	.insn	8, 0x3f3f3f3f3f3f3f3f
    ccba:	3f3f3f3f 3f3f3f3f 	.insn	8, 0x3f3f3f3f3f3f3f3f
    ccc2:	3f3f3f3f 3f3f3f3f 	.insn	8, 0x3f3f3f3f3f3f3f3f
    ccca:	3f3f3f3f 3f3f3f3f 	.insn	8, 0x3f3f3f3f3f3f3f3f
    ccd2:	3f3f3f3f 3f3f3f3f 	.insn	8, 0x3f3f3f3f3f3f3f3f
    ccda:	3f3f3f3f 3f3f3f3f 	.insn	8, 0x3f3f3f3f3f3f3f3f
    cce2:	3f3f3f3f 3f3f3f3f 	.insn	8, 0x3f3f3f3f3f3f3f3f
    ccea:	3f3f3f3f 3f3f3f3f 	.insn	8, 0x3f3f3f3f3f3f3f3f
    ccf2:	3f3f3f3f 3f3f3f3f 	.insn	8, 0x3f3f3f3f3f3f3f3f
    ccfa:	3f3f3f3f 3f3f3f3f 	.insn	8, 0x3f3f3f3f3f3f3f3f
    cd02:	3f3f3f3f 3f3f3f3f 	.insn	8, 0x3f3f3f3f3f3f3f3f
    cd0a:	3f3f3f3f 3f3f3f3f 	.insn	8, 0x3f3f3f3f3f3f3f3f
    cd12:	3f3f3f3f 3f3f3f3f 	.insn	8, 0x3f3f3f3f3f3f3f3f
    cd1a:	3f3f3f3f 3f3f3f3f 	.insn	8, 0x3f3f3f3f3f3f3f3f
    cd22:	3f3f3f3f 3f3f3f3f 	.insn	8, 0x3f3f3f3f3f3f3f3f
    cd2a:	3f3f3f3f 3f3f3f3f 	.insn	8, 0x3f3f3f3f3f3f3f3f
    cd32:	3f3f3f3f 3f3f3f3f 	.insn	8, 0x3f3f3f3f3f3f3f3f
    cd3a:	3f3f3f3f 3f3f3f3f 	.insn	8, 0x3f3f3f3f3f3f3f3f
    cd42:	3f3f3f3f 3f3f3f3f 	.insn	8, 0x3f3f3f3f3f3f3f3f
    cd4a:	3f3f3f3f 3f3f3f3f 	.insn	8, 0x3f3f3f3f3f3f3f3f
    cd52:	3f3f3f3f 3f3f3f3f 	.insn	8, 0x3f3f3f3f3f3f3f3f
    cd5a:	3f3f3f3f 3f3f3f3f 	.insn	8, 0x3f3f3f3f3f3f3f3f
    cd62:	3f3f3f3f 3f3f3f3f 	.insn	8, 0x3f3f3f3f3f3f3f3f
    cd6a:	3f3f3f3f 3f3f3f3f 	.insn	8, 0x3f3f3f3f3f3f3f3f
    cd72:	3f3f3f3f 3f3f3f3f 	.insn	8, 0x3f3f3f3f3f3f3f3f
    cd7a:	3f3f3f3f 3f3f3f3f 	.insn	8, 0x3f3f3f3f3f3f3f3f
    cd82:	3f3f3f3f 3f3f3f3f 	.insn	8, 0x3f3f3f3f3f3f3f3f
    cd8a:	3f3f3f3f 3f3f3f3f 	.insn	8, 0x3f3f3f3f3f3f3f3f
    cd92:	3f3f3f3f 3f3f3f3f 	.insn	8, 0x3f3f3f3f3f3f3f3f
    cd9a:	3f3f3f3f 3f3f3f3f 	.insn	8, 0x3f3f3f3f3f3f3f3f
    cda2:	3f3f3f3f 3f3f3f3f 	.insn	8, 0x3f3f3f3f3f3f3f3f
    cdaa:	3f3f3f3f 3f3f3f3f 	.insn	8, 0x3f3f3f3f3f3f3f3f
    cdb2:	3f3f3f3f 3f3f3f3f 	.insn	8, 0x3f3f3f3f3f3f3f3f
    cdba:	3f3f3f3f 3f3f3f3f 	.insn	8, 0x3f3f3f3f3f3f3f3f
    cdc2:	3f3f3f3f 3f3f3f3f 	.insn	8, 0x3f3f3f3f3f3f3f3f
    cdca:	3f3f3f3f 3f3f3f3f 	.insn	8, 0x3f3f3f3f3f3f3f3f
    cdd2:	3f3f3f3f 3f3f3f3f 	.insn	8, 0x3f3f3f3f3f3f3f3f
    cdda:	3f3f3f3f 3f3f3f3f 	.insn	8, 0x3f3f3f3f3f3f3f3f
    cde2:	3f3f3f3f 3f3f3f3f 	.insn	8, 0x3f3f3f3f3f3f3f3f
    cdea:	3f3f3f3f 3f3f3f3f 	.insn	8, 0x3f3f3f3f3f3f3f3f
    cdf2:	3f3f3f3f 3f3f3f3f 	.insn	8, 0x3f3f3f3f3f3f3f3f
    cdfa:	3f3f3f3f 3f3f3f3f 	.insn	8, 0x3f3f3f3f3f3f3f3f
    ce02:	3f3f3f3f 3f3f3f3f 	.insn	8, 0x3f3f3f3f3f3f3f3f
    ce0a:	3f3f3f3f 3f3f3f3f 	.insn	8, 0x3f3f3f3f3f3f3f3f
    ce12:	3f3f3f3f 3f3f3f3f 	.insn	8, 0x3f3f3f3f3f3f3f3f
    ce1a:	3f3f3f3f 3f3f3f3f 	.insn	8, 0x3f3f3f3f3f3f3f3f
    ce22:	3f3f3f3f 3f3f3f3f 	.insn	8, 0x3f3f3f3f3f3f3f3f
    ce2a:	3f3f3f3f 3f3f3f3f 	.insn	8, 0x3f3f3f3f3f3f3f3f
    ce32:	3f3f3f3f 3f3f3f3f 	.insn	8, 0x3f3f3f3f3f3f3f3f
    ce3a:	3f3f3f3f 3f3f3f3f 	.insn	8, 0x3f3f3f3f3f3f3f3f
    ce42:	3f3f3f3f 3f3f3f3f 	.insn	8, 0x3f3f3f3f3f3f3f3f
    ce4a:	3f3f3f3f 3f3f3f3f 	.insn	8, 0x3f3f3f3f3f3f3f3f
    ce52:	3f3f3f3f 3f3f3f3f 	.insn	8, 0x3f3f3f3f3f3f3f3f
    ce5a:	3f3f3f3f 3f3f3f3f 	.insn	8, 0x3f3f3f3f3f3f3f3f
    ce62:	3f3f3f3f 3f3f3f3f 	.insn	8, 0x3f3f3f3f3f3f3f3f
    ce6a:	3f3f3f3f 3f3f3f3f 	.insn	8, 0x3f3f3f3f3f3f3f3f
    ce72:	3f3f3f3f 3f3f3f3f 	.insn	8, 0x3f3f3f3f3f3f3f3f
    ce7a:	3f3f3f3f 3f3f3f3f 	.insn	8, 0x3f3f3f3f3f3f3f3f
    ce82:	3f3f3f3f 3f3f3f3f 	.insn	8, 0x3f3f3f3f3f3f3f3f
    ce8a:	3f3f3f3f 3f3f3f3f 	.insn	8, 0x3f3f3f3f3f3f3f3f
    ce92:	3f3f3f3f 3f3f3f3f 	.insn	8, 0x3f3f3f3f3f3f3f3f
    ce9a:	3f3f3f3f 3f3f3f3f 	.insn	8, 0x3f3f3f3f3f3f3f3f
    cea2:	3f3f3f3f 3f3f3f3f 	.insn	8, 0x3f3f3f3f3f3f3f3f
    ceaa:	3f3f3f3f 3f3f3f3f 	.insn	8, 0x3f3f3f3f3f3f3f3f
    ceb2:	3f3f3f3f 3f3f3f3f 	.insn	8, 0x3f3f3f3f3f3f3f3f
    ceba:	3f3f3f3f 3f3f3f3f 	.insn	8, 0x3f3f3f3f3f3f3f3f
    cec2:	3f3f3f3f 3f3f3f3f 	.insn	8, 0x3f3f3f3f3f3f3f3f
    ceca:	3f3f3f3f 3f3f3f3f 	.insn	8, 0x3f3f3f3f3f3f3f3f
    ced2:	3f3f3f3f 3f3f3f3f 	.insn	8, 0x3f3f3f3f3f3f3f3f
    ceda:	3f3f3f3f 3f3f3f3f 	.insn	8, 0x3f3f3f3f3f3f3f3f
    cee2:	3f3f3f3f 3f3f3f3f 	.insn	8, 0x3f3f3f3f3f3f3f3f
    ceea:	3f3f3f3f 3f3f3f3f 	.insn	8, 0x3f3f3f3f3f3f3f3f
    cef2:	3f3f3f3f 3f3f3f3f 	.insn	8, 0x3f3f3f3f3f3f3f3f
    cefa:	3f3f3f3f 3f3f3f3f 	.insn	8, 0x3f3f3f3f3f3f3f3f
    cf02:	3f3f3f3f 3f3f3f3f 	.insn	8, 0x3f3f3f3f3f3f3f3f
    cf0a:	3f3f3f3f 3f3f3f3f 	.insn	8, 0x3f3f3f3f3f3f3f3f
    cf12:	3f3f3f3f 3f3f3f3f 	.insn	8, 0x3f3f3f3f3f3f3f3f
    cf1a:	3f3f3f3f 3f3f3f3f 	.insn	8, 0x3f3f3f3f3f3f3f3f
    cf22:	3f3f3f3f 3f3f3f3f 	.insn	8, 0x3f3f3f3f3f3f3f3f
    cf2a:	3f3f3f3f 3f3f3f3f 	.insn	8, 0x3f3f3f3f3f3f3f3f
    cf32:	3f3f3f3f 3f3f3f3f 	.insn	8, 0x3f3f3f3f3f3f3f3f
    cf3a:	3f3f3f3f 3f3f3f3f 	.insn	8, 0x3f3f3f3f3f3f3f3f
    cf42:	3f3f3f3f 3f3f3f3f 	.insn	8, 0x3f3f3f3f3f3f3f3f
    cf4a:	3f3f3f3f 3f3f3f3f 	.insn	8, 0x3f3f3f3f3f3f3f3f
    cf52:	3f3f3f3f 3f3f3f3f 	.insn	8, 0x3f3f3f3f3f3f3f3f
    cf5a:	3f3f3f3f 3f3f3f3f 	.insn	8, 0x3f3f3f3f3f3f3f3f
    cf62:	3f3f3f3f 3f3f3f3f 	.insn	8, 0x3f3f3f3f3f3f3f3f
    cf6a:	3f3f3f3f 3f3f3f3f 	.insn	8, 0x3f3f3f3f3f3f3f3f
    cf72:	3f3f3f3f 3f3f3f3f 	.insn	8, 0x3f3f3f3f3f3f3f3f
    cf7a:	3f3f3f3f 3f3f3f3f 	.insn	8, 0x3f3f3f3f3f3f3f3f
    cf82:	3f3f3f3f 3f3f3f3f 	.insn	8, 0x3f3f3f3f3f3f3f3f
    cf8a:	3f3f3f3f 3f3f3f3f 	.insn	8, 0x3f3f3f3f3f3f3f3f
    cf92:	3f3f3f3f 3f3f3f3f 	.insn	8, 0x3f3f3f3f3f3f3f3f
    cf9a:	3f3f3f3f 3f3f3f3f 	.insn	8, 0x3f3f3f3f3f3f3f3f
    cfa2:	3f3f3f3f 3f3f3f3f 	.insn	8, 0x3f3f3f3f3f3f3f3f
    cfaa:	3f3f3f3f 3f3f3f3f 	.insn	8, 0x3f3f3f3f3f3f3f3f
    cfb2:	3f3f3f3f 3f3f3f3f 	.insn	8, 0x3f3f3f3f3f3f3f3f
    cfba:	3f3f3f3f 3f3f3f3f 	.insn	8, 0x3f3f3f3f3f3f3f3f
    cfc2:	3f3f3f3f 3f3f3f3f 	.insn	8, 0x3f3f3f3f3f3f3f3f
    cfca:	3f3f3f3f 3f3f3f3f 	.insn	8, 0x3f3f3f3f3f3f3f3f
    cfd2:	3f3f3f3f 3f3f3f3f 	.insn	8, 0x3f3f3f3f3f3f3f3f
    cfda:	3f3f3f3f 3f3f3f3f 	.insn	8, 0x3f3f3f3f3f3f3f3f
    cfe2:	3f3f3f3f 3f3f3f3f 	.insn	8, 0x3f3f3f3f3f3f3f3f
    cfea:	3f3f3f3f 3f3f3f3f 	.insn	8, 0x3f3f3f3f3f3f3f3f
    cff2:	3f3f3f3f 3f3f3f3f 	.insn	8, 0x3f3f3f3f3f3f3f3f
    cffa:	3f3f3f3f 3f3f3f3f 	.insn	8, 0x3f3f3f3f3f3f3f3f
    d002:	3f3f3f3f 3f3f3f3f 	.insn	8, 0x3f3f3f3f3f3f3f3f
    d00a:	3f3f3f3f 3f3f3f3f 	.insn	8, 0x3f3f3f3f3f3f3f3f
    d012:	3f3f3f3f 3f3f3f3f 	.insn	8, 0x3f3f3f3f3f3f3f3f
    d01a:	3f3f3f3f 3f3f3f3f 	.insn	8, 0x3f3f3f3f3f3f3f3f
    d022:	3f3f3f3f 3f3f3f3f 	.insn	8, 0x3f3f3f3f3f3f3f3f
    d02a:	3f3f3f3f 3f3f3f3f 	.insn	8, 0x3f3f3f3f3f3f3f3f
    d032:	3f3f3f3f 3f3f3f3f 	.insn	8, 0x3f3f3f3f3f3f3f3f
    d03a:	3f3f3f3f 3f3f3f3f 	.insn	8, 0x3f3f3f3f3f3f3f3f
    d042:	3f3f3f3f 3f3f3f3f 	.insn	8, 0x3f3f3f3f3f3f3f3f
    d04a:	3f3f3f3f 3f3f3f3f 	.insn	8, 0x3f3f3f3f3f3f3f3f
    d052:	3f3f3f3f 3f3f3f3f 	.insn	8, 0x3f3f3f3f3f3f3f3f
    d05a:	3f3f3f3f 3f3f3f3f 	.insn	8, 0x3f3f3f3f3f3f3f3f
    d062:	3f3f3f3f 3f3f3f3f 	.insn	8, 0x3f3f3f3f3f3f3f3f
    d06a:	3f3f3f3f 3f3f3f3f 	.insn	8, 0x3f3f3f3f3f3f3f3f
    d072:	3f3f3f3f 3f3f3f3f 	.insn	8, 0x3f3f3f3f3f3f3f3f
    d07a:	3f3f3f3f 3f3f3f3f 	.insn	8, 0x3f3f3f3f3f3f3f3f
    d082:	3f3f3f3f 3f3f3f3f 	.insn	8, 0x3f3f3f3f3f3f3f3f
    d08a:	3f3f3f3f 3f3f3f3f 	.insn	8, 0x3f3f3f3f3f3f3f3f
    d092:	3f3f3f3f 3f3f3f3f 	.insn	8, 0x3f3f3f3f3f3f3f3f
    d09a:	3f3f3f3f 3f3f3f3f 	.insn	8, 0x3f3f3f3f3f3f3f3f
    d0a2:	3f3f3f3f 3f3f3f3f 	.insn	8, 0x3f3f3f3f3f3f3f3f
    d0aa:	3f3f3f3f 3f3f3f3f 	.insn	8, 0x3f3f3f3f3f3f3f3f
    d0b2:	3f3f3f3f 3f3f3f3f 	.insn	8, 0x3f3f3f3f3f3f3f3f
    d0ba:	3f3f3f3f 3f3f3f3f 	.insn	8, 0x3f3f3f3f3f3f3f3f
    d0c2:	3f3f3f3f 3f3f3f3f 	.insn	8, 0x3f3f3f3f3f3f3f3f
    d0ca:	3f3f3f3f 3f3f3f3f 	.insn	8, 0x3f3f3f3f3f3f3f3f
    d0d2:	3f3f3f3f 3f3f3f3f 	.insn	8, 0x3f3f3f3f3f3f3f3f
    d0da:	3f3f3f3f 3f3f3f3f 	.insn	8, 0x3f3f3f3f3f3f3f3f
    d0e2:	3f3f3f3f 3f3f3f3f 	.insn	8, 0x3f3f3f3f3f3f3f3f
    d0ea:	3f3f3f3f 3f3f3f3f 	.insn	8, 0x3f3f3f3f3f3f3f3f
    d0f2:	3f3f3f3f 3f3f3f3f 	.insn	8, 0x3f3f3f3f3f3f3f3f
    d0fa:	3f3f3f3f 3f3f3f3f 	.insn	8, 0x3f3f3f3f3f3f3f3f
    d102:	3f3f3f3f 3f3f3f3f 	.insn	8, 0x3f3f3f3f3f3f3f3f
    d10a:	3f3f3f3f 3f3f3f3f 	.insn	8, 0x3f3f3f3f3f3f3f3f
    d112:	3f3f3f3f 3f3f3f3f 	.insn	8, 0x3f3f3f3f3f3f3f3f
    d11a:	3f3f3f3f 3f3f3f3f 	.insn	8, 0x3f3f3f3f3f3f3f3f
    d122:	3f3f3f3f 3f3f3f3f 	.insn	8, 0x3f3f3f3f3f3f3f3f
    d12a:	3f3f3f3f 3f3f3f3f 	.insn	8, 0x3f3f3f3f3f3f3f3f
    d132:	3f3f3f3f 3f3f3f3f 	.insn	8, 0x3f3f3f3f3f3f3f3f
    d13a:	3f3f3f3f 3f3f3f3f 	.insn	8, 0x3f3f3f3f3f3f3f3f
    d142:	3f3f3f3f 3f3f3f3f 	.insn	8, 0x3f3f3f3f3f3f3f3f
    d14a:	3f3f3f3f 3f3f3f3f 	.insn	8, 0x3f3f3f3f3f3f3f3f
    d152:	3f3f3f3f 3f3f3f3f 	.insn	8, 0x3f3f3f3f3f3f3f3f
    d15a:	3f3f3f3f 3f3f3f3f 	.insn	8, 0x3f3f3f3f3f3f3f3f
    d162:	3f3f3f3f 3f3f3f3f 	.insn	8, 0x3f3f3f3f3f3f3f3f
    d16a:	3f3f3f3f 3f3f3f3f 	.insn	8, 0x3f3f3f3f3f3f3f3f
    d172:	3f3f3f3f 3f3f3f3f 	.insn	8, 0x3f3f3f3f3f3f3f3f
    d17a:	3f3f3f3f 3f3f3f3f 	.insn	8, 0x3f3f3f3f3f3f3f3f
    d182:	3f3f3f3f 3f3f3f3f 	.insn	8, 0x3f3f3f3f3f3f3f3f
    d18a:	3f3f3f3f 3f3f3f3f 	.insn	8, 0x3f3f3f3f3f3f3f3f
    d192:	3f3f3f3f 3f3f3f3f 	.insn	8, 0x3f3f3f3f3f3f3f3f
    d19a:	3f3f3f3f 3f3f3f3f 	.insn	8, 0x3f3f3f3f3f3f3f3f
    d1a2:	3f3f3f3f 3f3f3f3f 	.insn	8, 0x3f3f3f3f3f3f3f3f
    d1aa:	3f3f3f3f 3f3f3f3f 	.insn	8, 0x3f3f3f3f3f3f3f3f
    d1b2:	3f3f3f3f 3f3f3f3f 	.insn	8, 0x3f3f3f3f3f3f3f3f
    d1ba:	3f3f3f3f 3f3f3f3f 	.insn	8, 0x3f3f3f3f3f3f3f3f
    d1c2:	3f3f3f3f 3f3f3f3f 	.insn	8, 0x3f3f3f3f3f3f3f3f
    d1ca:	3f3f3f3f 3f3f3f3f 	.insn	8, 0x3f3f3f3f3f3f3f3f
    d1d2:	3f3f3f3f 3f3f3f3f 	.insn	8, 0x3f3f3f3f3f3f3f3f
    d1da:	3f3f3f3f 3f3f3f3f 	.insn	8, 0x3f3f3f3f3f3f3f3f
    d1e2:	3f3f3f3f 3f3f3f3f 	.insn	8, 0x3f3f3f3f3f3f3f3f
    d1ea:	3f3f3f3f 3f3f3f3f 	.insn	8, 0x3f3f3f3f3f3f3f3f
    d1f2:	3f3f3f3f 3f3f3f3f 	.insn	8, 0x3f3f3f3f3f3f3f3f
    d1fa:	3f3f3f3f 3f3f3f3f 	.insn	8, 0x3f3f3f3f3f3f3f3f
    d202:	3f3f3f3f 3f3f3f3f 	.insn	8, 0x3f3f3f3f3f3f3f3f
    d20a:	3f3f3f3f 3f3f3f3f 	.insn	8, 0x3f3f3f3f3f3f3f3f
    d212:	3f3f3f3f 3f3f3f3f 	.insn	8, 0x3f3f3f3f3f3f3f3f
    d21a:	3f3f3f3f 3f3f3f3f 	.insn	8, 0x3f3f3f3f3f3f3f3f
    d222:	3f3f3f3f 3f3f3f3f 	.insn	8, 0x3f3f3f3f3f3f3f3f
    d22a:	3f3f3f3f 3f3f3f3f 	.insn	8, 0x3f3f3f3f3f3f3f3f
    d232:	3f3f3f3f 3f3f3f3f 	.insn	8, 0x3f3f3f3f3f3f3f3f
    d23a:	3f3f3f3f 3f3f3f3f 	.insn	8, 0x3f3f3f3f3f3f3f3f
    d242:	3f3f3f3f 3f3f3f3f 	.insn	8, 0x3f3f3f3f3f3f3f3f
    d24a:	3f3f3f3f 3f3f3f3f 	.insn	8, 0x3f3f3f3f3f3f3f3f
    d252:	3f3f3f3f 3f3f3f3f 	.insn	8, 0x3f3f3f3f3f3f3f3f
    d25a:	3f3f3f3f 3f3f3f3f 	.insn	8, 0x3f3f3f3f3f3f3f3f
    d262:	3f3f3f3f 3f3f3f3f 	.insn	8, 0x3f3f3f3f3f3f3f3f
    d26a:	3f3f3f3f 3f3f3f3f 	.insn	8, 0x3f3f3f3f3f3f3f3f
    d272:	3f3f3f3f 3f3f3f3f 	.insn	8, 0x3f3f3f3f3f3f3f3f
    d27a:	3f3f3f3f 3f3f3f3f 	.insn	8, 0x3f3f3f3f3f3f3f3f
    d282:	3f3f3f3f 3f3f3f3f 	.insn	8, 0x3f3f3f3f3f3f3f3f
    d28a:	3f3f3f3f 3f3f3f3f 	.insn	8, 0x3f3f3f3f3f3f3f3f
    d292:	3f3f3f3f 3f3f3f3f 	.insn	8, 0x3f3f3f3f3f3f3f3f
    d29a:	3f3f3f3f 3f3f3f3f 	.insn	8, 0x3f3f3f3f3f3f3f3f
    d2a2:	3f3f3f3f 3f3f3f3f 	.insn	8, 0x3f3f3f3f3f3f3f3f
    d2aa:	3f3f3f3f 3f3f3f3f 	.insn	8, 0x3f3f3f3f3f3f3f3f
    d2b2:	3f3f3f3f 3f3f3f3f 	.insn	8, 0x3f3f3f3f3f3f3f3f
    d2ba:	3f3f3f3f 3f3f3f3f 	.insn	8, 0x3f3f3f3f3f3f3f3f
    d2c2:	3f3f3f3f 3f3f3f3f 	.insn	8, 0x3f3f3f3f3f3f3f3f
    d2ca:	3f3f3f3f 3f3f3f3f 	.insn	8, 0x3f3f3f3f3f3f3f3f
    d2d2:	3f3f3f3f 3f3f3f3f 	.insn	8, 0x3f3f3f3f3f3f3f3f
    d2da:	3f3f3f3f 3f3f3f3f 	.insn	8, 0x3f3f3f3f3f3f3f3f
    d2e2:	3f3f3f3f 3f3f3f3f 	.insn	8, 0x3f3f3f3f3f3f3f3f
    d2ea:	3f3f3f3f 3f3f3f3f 	.insn	8, 0x3f3f3f3f3f3f3f3f
    d2f2:	3f3f3f3f 3f3f3f3f 	.insn	8, 0x3f3f3f3f3f3f3f3f
    d2fa:	3f3f3f3f 3f3f3f3f 	.insn	8, 0x3f3f3f3f3f3f3f3f
    d302:	3f3f3f3f 3f3f3f3f 	.insn	8, 0x3f3f3f3f3f3f3f3f
    d30a:	3f3f3f3f 3f3f3f3f 	.insn	8, 0x3f3f3f3f3f3f3f3f
    d312:	3f3f3f3f 3f3f3f3f 	.insn	8, 0x3f3f3f3f3f3f3f3f
    d31a:	3f3f3f3f 3f3f3f3f 	.insn	8, 0x3f3f3f3f3f3f3f3f
    d322:	3f3f3f3f 3f3f3f3f 	.insn	8, 0x3f3f3f3f3f3f3f3f
    d32a:	3f3f3f3f 3f3f3f3f 	.insn	8, 0x3f3f3f3f3f3f3f3f
    d332:	3f3f3f3f 3f3f3f3f 	.insn	8, 0x3f3f3f3f3f3f3f3f
    d33a:	3f3f3f3f 3f3f3f3f 	.insn	8, 0x3f3f3f3f3f3f3f3f
    d342:	3f3f3f3f 3f3f3f3f 	.insn	8, 0x3f3f3f3f3f3f3f3f
    d34a:	3f3f3f3f 3f3f3f3f 	.insn	8, 0x3f3f3f3f3f3f3f3f
    d352:	3f3f3f3f 3f3f3f3f 	.insn	8, 0x3f3f3f3f3f3f3f3f
    d35a:	3f3f3f3f 3f3f3f3f 	.insn	8, 0x3f3f3f3f3f3f3f3f
    d362:	3f3f3f3f 3f3f3f3f 	.insn	8, 0x3f3f3f3f3f3f3f3f
    d36a:	3f3f3f3f 3f3f3f3f 	.insn	8, 0x3f3f3f3f3f3f3f3f
    d372:	3f3f3f3f 3f3f3f3f 	.insn	8, 0x3f3f3f3f3f3f3f3f
    d37a:	3f3f3f3f 3f3f3f3f 	.insn	8, 0x3f3f3f3f3f3f3f3f
    d382:	3f3f3f3f 3f3f3f3f 	.insn	8, 0x3f3f3f3f3f3f3f3f
    d38a:	3f3f3f3f 3f3f3f3f 	.insn	8, 0x3f3f3f3f3f3f3f3f
    d392:	3f3f3f3f 3f3f3f3f 	.insn	8, 0x3f3f3f3f3f3f3f3f
    d39a:	3f3f3f3f 3f3f3f3f 	.insn	8, 0x3f3f3f3f3f3f3f3f
    d3a2:	3f3f3f3f 3f3f3f3f 	.insn	8, 0x3f3f3f3f3f3f3f3f
    d3aa:	3f3f3f3f 3f3f3f3f 	.insn	8, 0x3f3f3f3f3f3f3f3f
    d3b2:	3f3f3f3f 3f3f3f3f 	.insn	8, 0x3f3f3f3f3f3f3f3f
    d3ba:	3f3f3f3f 3f3f3f3f 	.insn	8, 0x3f3f3f3f3f3f3f3f
    d3c2:	3f3f3f3f 3f3f3f3f 	.insn	8, 0x3f3f3f3f3f3f3f3f
    d3ca:	3f3f3f3f 3f3f3f3f 	.insn	8, 0x3f3f3f3f3f3f3f3f
    d3d2:	3f3f3f3f 3f3f3f3f 	.insn	8, 0x3f3f3f3f3f3f3f3f
    d3da:	3f3f3f3f 3f3f3f3f 	.insn	8, 0x3f3f3f3f3f3f3f3f
    d3e2:	3f3f3f3f 3f3f3f3f 	.insn	8, 0x3f3f3f3f3f3f3f3f
    d3ea:	3f3f3f3f 3f3f3f3f 	.insn	8, 0x3f3f3f3f3f3f3f3f
    d3f2:	3f3f3f3f 3f3f3f3f 	.insn	8, 0x3f3f3f3f3f3f3f3f
    d3fa:	3f3f3f3f 3f3f3f3f 	.insn	8, 0x3f3f3f3f3f3f3f3f
    d402:	3f3f3f3f 3f3f3f3f 	.insn	8, 0x3f3f3f3f3f3f3f3f
    d40a:	3f3f3f3f 3f3f3f3f 	.insn	8, 0x3f3f3f3f3f3f3f3f
    d412:	3f3f3f3f 3f3f3f3f 	.insn	8, 0x3f3f3f3f3f3f3f3f
    d41a:	3f3f3f3f 3f3f3f3f 	.insn	8, 0x3f3f3f3f3f3f3f3f
    d422:	3f3f3f3f 3f3f3f3f 	.insn	8, 0x3f3f3f3f3f3f3f3f
    d42a:	3f3f3f3f 3f3f3f3f 	.insn	8, 0x3f3f3f3f3f3f3f3f
    d432:	3f3f3f3f 3f3f3f3f 	.insn	8, 0x3f3f3f3f3f3f3f3f
    d43a:	3f3f3f3f 3f3f3f3f 	.insn	8, 0x3f3f3f3f3f3f3f3f
    d442:	3f3f3f3f 3f3f3f3f 	.insn	8, 0x3f3f3f3f3f3f3f3f
    d44a:	3f3f3f3f 3f3f3f3f 	.insn	8, 0x3f3f3f3f3f3f3f3f
    d452:	3f3f3f3f 3f3f3f3f 	.insn	8, 0x3f3f3f3f3f3f3f3f
    d45a:	3f3f3f3f 3f3f3f3f 	.insn	8, 0x3f3f3f3f3f3f3f3f
    d462:	3f3f3f3f 3f3f3f3f 	.insn	8, 0x3f3f3f3f3f3f3f3f
    d46a:	3f3f3f3f 3f3f3f3f 	.insn	8, 0x3f3f3f3f3f3f3f3f
    d472:	3f3f3f3f 3f3f3f3f 	.insn	8, 0x3f3f3f3f3f3f3f3f
    d47a:	3f3f3f3f 3f3f3f3f 	.insn	8, 0x3f3f3f3f3f3f3f3f
    d482:	3f3f3f3f 3f3f3f3f 	.insn	8, 0x3f3f3f3f3f3f3f3f
    d48a:	3f3f3f3f 3f3f3f3f 	.insn	8, 0x3f3f3f3f3f3f3f3f
    d492:	3f3f3f3f 3f3f3f3f 	.insn	8, 0x3f3f3f3f3f3f3f3f
    d49a:	3f3f3f3f 3f3f3f3f 	.insn	8, 0x3f3f3f3f3f3f3f3f
    d4a2:	3f3f3f3f 3f3f3f3f 	.insn	8, 0x3f3f3f3f3f3f3f3f
    d4aa:	3f3f3f3f 3f3f3f3f 	.insn	8, 0x3f3f3f3f3f3f3f3f
    d4b2:	3f3f3f3f 3f3f3f3f 	.insn	8, 0x3f3f3f3f3f3f3f3f
    d4ba:	3f3f3f3f 3f3f3f3f 	.insn	8, 0x3f3f3f3f3f3f3f3f
    d4c2:	3f3f3f3f 3f3f3f3f 	.insn	8, 0x3f3f3f3f3f3f3f3f
    d4ca:	3f3f3f3f 3f3f3f3f 	.insn	8, 0x3f3f3f3f3f3f3f3f
    d4d2:	3f3f3f3f 3f3f3f3f 	.insn	8, 0x3f3f3f3f3f3f3f3f
    d4da:	3f3f3f3f 3f3f3f3f 	.insn	8, 0x3f3f3f3f3f3f3f3f
    d4e2:	3f3f3f3f 3f3f3f3f 	.insn	8, 0x3f3f3f3f3f3f3f3f
    d4ea:	3f3f3f3f 3f3f3f3f 	.insn	8, 0x3f3f3f3f3f3f3f3f
    d4f2:	3f3f3f3f 3f3f3f3f 	.insn	8, 0x3f3f3f3f3f3f3f3f
    d4fa:	3f3f3f3f 3f3f3f3f 	.insn	8, 0x3f3f3f3f3f3f3f3f
    d502:	3f3f3f3f 3f3f3f3f 	.insn	8, 0x3f3f3f3f3f3f3f3f
    d50a:	3f3f3f3f 3f3f3f3f 	.insn	8, 0x3f3f3f3f3f3f3f3f
    d512:	3f3f3f3f 3f3f3f3f 	.insn	8, 0x3f3f3f3f3f3f3f3f
    d51a:	3f3f3f3f 3f3f3f3f 	.insn	8, 0x3f3f3f3f3f3f3f3f
    d522:	3f3f3f3f 3f3f3f3f 	.insn	8, 0x3f3f3f3f3f3f3f3f
    d52a:	3f3f3f3f 3f3f3f3f 	.insn	8, 0x3f3f3f3f3f3f3f3f
    d532:	3f3f3f3f 3f3f3f3f 	.insn	8, 0x3f3f3f3f3f3f3f3f
    d53a:	3f3f3f3f 3f3f3f3f 	.insn	8, 0x3f3f3f3f3f3f3f3f
    d542:	3f3f3f3f 3f3f3f3f 	.insn	8, 0x3f3f3f3f3f3f3f3f
    d54a:	3f3f3f3f 3f3f3f3f 	.insn	8, 0x3f3f3f3f3f3f3f3f
    d552:	3f3f3f3f 3f3f3f3f 	.insn	8, 0x3f3f3f3f3f3f3f3f
    d55a:	3f3f3f3f 3f3f3f3f 	.insn	8, 0x3f3f3f3f3f3f3f3f
    d562:	3f3f3f3f 3f3f3f3f 	.insn	8, 0x3f3f3f3f3f3f3f3f
    d56a:	3f3f3f3f 3f3f3f3f 	.insn	8, 0x3f3f3f3f3f3f3f3f
    d572:	3f3f3f3f 3f3f3f3f 	.insn	8, 0x3f3f3f3f3f3f3f3f
    d57a:	3f3f3f3f 3f3f3f3f 	.insn	8, 0x3f3f3f3f3f3f3f3f
    d582:	3f3f3f3f 3f3f3f3f 	.insn	8, 0x3f3f3f3f3f3f3f3f
    d58a:	3f3f3f3f 3f3f3f3f 	.insn	8, 0x3f3f3f3f3f3f3f3f
    d592:	3f3f3f3f 3f3f3f3f 	.insn	8, 0x3f3f3f3f3f3f3f3f
    d59a:	3f3f3f3f 3f3f3f3f 	.insn	8, 0x3f3f3f3f3f3f3f3f
    d5a2:	3f3f3f3f 3f3f3f3f 	.insn	8, 0x3f3f3f3f3f3f3f3f
    d5aa:	3f3f3f3f 3f3f3f3f 	.insn	8, 0x3f3f3f3f3f3f3f3f
    d5b2:	3f3f3f3f 3f3f3f3f 	.insn	8, 0x3f3f3f3f3f3f3f3f
    d5ba:	3f3f3f3f 3f3f3f3f 	.insn	8, 0x3f3f3f3f3f3f3f3f
    d5c2:	3f3f3f3f 3f3f3f3f 	.insn	8, 0x3f3f3f3f3f3f3f3f
    d5ca:	3f3f3f3f 3f3f3f3f 	.insn	8, 0x3f3f3f3f3f3f3f3f
    d5d2:	3f3f3f3f 3f3f3f3f 	.insn	8, 0x3f3f3f3f3f3f3f3f
    d5da:	3f3f3f3f 3f3f3f3f 	.insn	8, 0x3f3f3f3f3f3f3f3f
    d5e2:	3f3f3f3f 3f3f3f3f 	.insn	8, 0x3f3f3f3f3f3f3f3f
    d5ea:	3f3f3f3f 3f3f3f3f 	.insn	8, 0x3f3f3f3f3f3f3f3f
    d5f2:	3f3f3f3f 3f3f3f3f 	.insn	8, 0x3f3f3f3f3f3f3f3f
    d5fa:	3f3f3f3f 3f3f3f3f 	.insn	8, 0x3f3f3f3f3f3f3f3f
    d602:	3f3f3f3f 3f3f3f3f 	.insn	8, 0x3f3f3f3f3f3f3f3f
    d60a:	3f3f3f3f 3f3f3f3f 	.insn	8, 0x3f3f3f3f3f3f3f3f
    d612:	3f3f3f3f 3f3f3f3f 	.insn	8, 0x3f3f3f3f3f3f3f3f
    d61a:	3f3f3f3f 3f3f3f3f 	.insn	8, 0x3f3f3f3f3f3f3f3f
    d622:	3f3f3f3f 3f3f3f3f 	.insn	8, 0x3f3f3f3f3f3f3f3f
    d62a:	3f3f3f3f 3f3f3f3f 	.insn	8, 0x3f3f3f3f3f3f3f3f
    d632:	3f3f3f3f 3f3f3f3f 	.insn	8, 0x3f3f3f3f3f3f3f3f
    d63a:	3f3f3f3f 3f3f3f3f 	.insn	8, 0x3f3f3f3f3f3f3f3f
    d642:	3f3f3f3f 3f3f3f3f 	.insn	8, 0x3f3f3f3f3f3f3f3f
    d64a:	3f3f3f3f 3f3f3f3f 	.insn	8, 0x3f3f3f3f3f3f3f3f
    d652:	3f3f3f3f 3f3f3f3f 	.insn	8, 0x3f3f3f3f3f3f3f3f
    d65a:	3f3f3f3f 3f3f3f3f 	.insn	8, 0x3f3f3f3f3f3f3f3f
    d662:	3f3f3f3f 3f3f3f3f 	.insn	8, 0x3f3f3f3f3f3f3f3f
    d66a:	3f3f3f3f 3f3f3f3f 	.insn	8, 0x3f3f3f3f3f3f3f3f
    d672:	3f3f3f3f 3f3f3f3f 	.insn	8, 0x3f3f3f3f3f3f3f3f
    d67a:	3f3f3f3f 3f3f3f3f 	.insn	8, 0x3f3f3f3f3f3f3f3f
    d682:	3f3f3f3f 3f3f3f3f 	.insn	8, 0x3f3f3f3f3f3f3f3f
    d68a:	3f3f3f3f 3f3f3f3f 	.insn	8, 0x3f3f3f3f3f3f3f3f
    d692:	3f3f3f3f 3f3f3f3f 	.insn	8, 0x3f3f3f3f3f3f3f3f
    d69a:	3f3f3f3f 3f3f3f3f 	.insn	8, 0x3f3f3f3f3f3f3f3f
    d6a2:	3f3f3f3f 3f3f3f3f 	.insn	8, 0x3f3f3f3f3f3f3f3f
    d6aa:	3f3f3f3f 3f3f3f3f 	.insn	8, 0x3f3f3f3f3f3f3f3f
    d6b2:	3f3f3f3f 3f3f3f3f 	.insn	8, 0x3f3f3f3f3f3f3f3f
    d6ba:	3f3f3f3f 3f3f3f3f 	.insn	8, 0x3f3f3f3f3f3f3f3f
    d6c2:	3f3f3f3f 3f3f3f3f 	.insn	8, 0x3f3f3f3f3f3f3f3f
    d6ca:	3f3f3f3f 3f3f3f3f 	.insn	8, 0x3f3f3f3f3f3f3f3f
    d6d2:	3f3f3f3f 3f3f3f3f 	.insn	8, 0x3f3f3f3f3f3f3f3f
    d6da:	3f3f3f3f 3f3f3f3f 	.insn	8, 0x3f3f3f3f3f3f3f3f
    d6e2:	3f3f3f3f 3f3f3f3f 	.insn	8, 0x3f3f3f3f3f3f3f3f
    d6ea:	3f3f3f3f 3f3f3f3f 	.insn	8, 0x3f3f3f3f3f3f3f3f
    d6f2:	3f3f3f3f 3f3f3f3f 	.insn	8, 0x3f3f3f3f3f3f3f3f
    d6fa:	3f3f3f3f 3f3f3f3f 	.insn	8, 0x3f3f3f3f3f3f3f3f
    d702:	3f3f3f3f 3f3f3f3f 	.insn	8, 0x3f3f3f3f3f3f3f3f
    d70a:	3f3f3f3f 3f3f3f3f 	.insn	8, 0x3f3f3f3f3f3f3f3f
    d712:	3f3f3f3f 3f3f3f3f 	.insn	8, 0x3f3f3f3f3f3f3f3f
    d71a:	3f3f3f3f 3f3f3f3f 	.insn	8, 0x3f3f3f3f3f3f3f3f
    d722:	3f3f3f3f 3f3f3f3f 	.insn	8, 0x3f3f3f3f3f3f3f3f
    d72a:	3f3f3f3f 3f3f3f3f 	.insn	8, 0x3f3f3f3f3f3f3f3f
    d732:	3f3f3f3f 3f3f3f3f 	.insn	8, 0x3f3f3f3f3f3f3f3f
    d73a:	3f3f3f3f 3f3f3f3f 	.insn	8, 0x3f3f3f3f3f3f3f3f
    d742:	3f3f3f3f 3f3f3f3f 	.insn	8, 0x3f3f3f3f3f3f3f3f
    d74a:	3f3f3f3f 3f3f3f3f 	.insn	8, 0x3f3f3f3f3f3f3f3f
    d752:	3f3f3f3f 3f3f3f3f 	.insn	8, 0x3f3f3f3f3f3f3f3f
    d75a:	3f3f3f3f 3f3f3f3f 	.insn	8, 0x3f3f3f3f3f3f3f3f
    d762:	3f3f3f3f 3f3f3f3f 	.insn	8, 0x3f3f3f3f3f3f3f3f
    d76a:	3f3f3f3f 3f3f3f3f 	.insn	8, 0x3f3f3f3f3f3f3f3f
    d772:	3f3f3f3f 3f3f3f3f 	.insn	8, 0x3f3f3f3f3f3f3f3f
    d77a:	3f3f3f3f 3f3f3f3f 	.insn	8, 0x3f3f3f3f3f3f3f3f
    d782:	3f3f3f3f 3f3f3f3f 	.insn	8, 0x3f3f3f3f3f3f3f3f
    d78a:	3f3f3f3f 3f3f3f3f 	.insn	8, 0x3f3f3f3f3f3f3f3f
    d792:	3f3f3f3f 3f3f3f3f 	.insn	8, 0x3f3f3f3f3f3f3f3f
    d79a:	3f3f3f3f 3f3f3f3f 	.insn	8, 0x3f3f3f3f3f3f3f3f
    d7a2:	3f3f3f3f 3f3f3f3f 	.insn	8, 0x3f3f3f3f3f3f3f3f
    d7aa:	3f3f3f3f 3f3f3f3f 	.insn	8, 0x3f3f3f3f3f3f3f3f
    d7b2:	3f3f3f3f 3f3f3f3f 	.insn	8, 0x3f3f3f3f3f3f3f3f
    d7ba:	3f3f3f3f 3f3f3f3f 	.insn	8, 0x3f3f3f3f3f3f3f3f
    d7c2:	3f3f3f3f 3f3f3f3f 	.insn	8, 0x3f3f3f3f3f3f3f3f
    d7ca:	3f3f3f3f 3f3f3f3f 	.insn	8, 0x3f3f3f3f3f3f3f3f
    d7d2:	3f3f3f3f 3f3f3f3f 	.insn	8, 0x3f3f3f3f3f3f3f3f
    d7da:	3f3f3f3f 3f3f3f3f 	.insn	8, 0x3f3f3f3f3f3f3f3f
    d7e2:	3f3f3f3f 3f3f3f3f 	.insn	8, 0x3f3f3f3f3f3f3f3f
    d7ea:	3f3f3f3f 3f3f3f3f 	.insn	8, 0x3f3f3f3f3f3f3f3f
    d7f2:	3f3f3f3f 3f3f3f3f 	.insn	8, 0x3f3f3f3f3f3f3f3f
    d7fa:	3f3f3f3f 3f3f3f3f 	.insn	8, 0x3f3f3f3f3f3f3f3f
    d802:	3f3f3f3f 3f3f3f3f 	.insn	8, 0x3f3f3f3f3f3f3f3f
    d80a:	3f3f3f3f 3f3f3f3f 	.insn	8, 0x3f3f3f3f3f3f3f3f
    d812:	3f3f3f3f 3f3f3f3f 	.insn	8, 0x3f3f3f3f3f3f3f3f
    d81a:	3f3f3f3f 3f3f3f3f 	.insn	8, 0x3f3f3f3f3f3f3f3f
    d822:	3f3f3f3f 3f3f3f3f 	.insn	8, 0x3f3f3f3f3f3f3f3f
    d82a:	3f3f3f3f 3f3f3f3f 	.insn	8, 0x3f3f3f3f3f3f3f3f
    d832:	3f3f3f3f 3f3f3f3f 	.insn	8, 0x3f3f3f3f3f3f3f3f
    d83a:	3f3f3f3f 3f3f3f3f 	.insn	8, 0x3f3f3f3f3f3f3f3f
    d842:	3f3f3f3f 3f3f3f3f 	.insn	8, 0x3f3f3f3f3f3f3f3f
    d84a:	3f3f3f3f 3f3f3f3f 	.insn	8, 0x3f3f3f3f3f3f3f3f
    d852:	3f3f3f3f 3f3f3f3f 	.insn	8, 0x3f3f3f3f3f3f3f3f
    d85a:	3f3f3f3f 3f3f3f3f 	.insn	8, 0x3f3f3f3f3f3f3f3f
    d862:	3f3f3f3f 3f3f3f3f 	.insn	8, 0x3f3f3f3f3f3f3f3f
    d86a:	3f3f3f3f 3f3f3f3f 	.insn	8, 0x3f3f3f3f3f3f3f3f
    d872:	3f3f3f3f 3f3f3f3f 	.insn	8, 0x3f3f3f3f3f3f3f3f
    d87a:	3f3f3f3f 3f3f3f3f 	.insn	8, 0x3f3f3f3f3f3f3f3f
    d882:	3f3f3f3f 3f3f3f3f 	.insn	8, 0x3f3f3f3f3f3f3f3f
    d88a:	3f3f3f3f 3f3f3f3f 	.insn	8, 0x3f3f3f3f3f3f3f3f
    d892:	3f3f3f3f 3f3f3f3f 	.insn	8, 0x3f3f3f3f3f3f3f3f
    d89a:	3f3f3f3f 3f3f3f3f 	.insn	8, 0x3f3f3f3f3f3f3f3f
    d8a2:	3f3f3f3f 3f3f3f3f 	.insn	8, 0x3f3f3f3f3f3f3f3f
    d8aa:	3f3f3f3f 3f3f3f3f 	.insn	8, 0x3f3f3f3f3f3f3f3f
    d8b2:	3f3f3f3f 3f3f3f3f 	.insn	8, 0x3f3f3f3f3f3f3f3f
    d8ba:	3f3f3f3f 3f3f3f3f 	.insn	8, 0x3f3f3f3f3f3f3f3f
    d8c2:	3f3f3f3f 3f3f3f3f 	.insn	8, 0x3f3f3f3f3f3f3f3f
    d8ca:	3f3f3f3f 3f3f3f3f 	.insn	8, 0x3f3f3f3f3f3f3f3f
    d8d2:	3f3f3f3f 3f3f3f3f 	.insn	8, 0x3f3f3f3f3f3f3f3f
    d8da:	3f3f3f3f 3f3f3f3f 	.insn	8, 0x3f3f3f3f3f3f3f3f
    d8e2:	3f3f3f3f 3f3f3f3f 	.insn	8, 0x3f3f3f3f3f3f3f3f
    d8ea:	3f3f3f3f 3f3f3f3f 	.insn	8, 0x3f3f3f3f3f3f3f3f
    d8f2:	3f3f3f3f 3f3f3f3f 	.insn	8, 0x3f3f3f3f3f3f3f3f
    d8fa:	3f3f3f3f 3f3f3f3f 	.insn	8, 0x3f3f3f3f3f3f3f3f
    d902:	3f3f3f3f 3f3f3f3f 	.insn	8, 0x3f3f3f3f3f3f3f3f
    d90a:	3f3f3f3f 3f3f3f3f 	.insn	8, 0x3f3f3f3f3f3f3f3f
    d912:	3f3f3f3f 3f3f3f3f 	.insn	8, 0x3f3f3f3f3f3f3f3f
    d91a:	3f3f3f3f 3f3f3f3f 	.insn	8, 0x3f3f3f3f3f3f3f3f
    d922:	3f3f3f3f 3f3f3f3f 	.insn	8, 0x3f3f3f3f3f3f3f3f
    d92a:	3f3f3f3f 3f3f3f3f 	.insn	8, 0x3f3f3f3f3f3f3f3f
    d932:	3f3f3f3f 3f3f3f3f 	.insn	8, 0x3f3f3f3f3f3f3f3f
    d93a:	3f3f3f3f 3f3f3f3f 	.insn	8, 0x3f3f3f3f3f3f3f3f
    d942:	3f3f3f3f 3f3f3f3f 	.insn	8, 0x3f3f3f3f3f3f3f3f
    d94a:	3f3f3f3f 3f3f3f3f 	.insn	8, 0x3f3f3f3f3f3f3f3f
    d952:	3f3f3f3f 3f3f3f3f 	.insn	8, 0x3f3f3f3f3f3f3f3f
    d95a:	3f3f3f3f 3f3f3f3f 	.insn	8, 0x3f3f3f3f3f3f3f3f
    d962:	3f3f3f3f 3f3f3f3f 	.insn	8, 0x3f3f3f3f3f3f3f3f
    d96a:	3f3f3f3f 3f3f3f3f 	.insn	8, 0x3f3f3f3f3f3f3f3f
    d972:	3f3f3f3f 3f3f3f3f 	.insn	8, 0x3f3f3f3f3f3f3f3f
    d97a:	3f3f3f3f 3f3f3f3f 	.insn	8, 0x3f3f3f3f3f3f3f3f
    d982:	3f3f3f3f 3f3f3f3f 	.insn	8, 0x3f3f3f3f3f3f3f3f
    d98a:	3f3f3f3f 3f3f3f3f 	.insn	8, 0x3f3f3f3f3f3f3f3f
    d992:	3f3f3f3f 3f3f3f3f 	.insn	8, 0x3f3f3f3f3f3f3f3f
    d99a:	3f3f3f3f 3f3f3f3f 	.insn	8, 0x3f3f3f3f3f3f3f3f
    d9a2:	3f3f3f3f 3f3f3f3f 	.insn	8, 0x3f3f3f3f3f3f3f3f
    d9aa:	3f3f3f3f 3f3f3f3f 	.insn	8, 0x3f3f3f3f3f3f3f3f
    d9b2:	3f3f3f3f 3f3f3f3f 	.insn	8, 0x3f3f3f3f3f3f3f3f
    d9ba:	3f3f3f3f 3f3f3f3f 	.insn	8, 0x3f3f3f3f3f3f3f3f
    d9c2:	3f3f3f3f 3f3f3f3f 	.insn	8, 0x3f3f3f3f3f3f3f3f
    d9ca:	3f3f3f3f 3f3f3f3f 	.insn	8, 0x3f3f3f3f3f3f3f3f
    d9d2:	3f3f3f3f 3f3f3f3f 	.insn	8, 0x3f3f3f3f3f3f3f3f
    d9da:	3f3f3f3f 3f3f3f3f 	.insn	8, 0x3f3f3f3f3f3f3f3f
    d9e2:	3f3f3f3f 3f3f3f3f 	.insn	8, 0x3f3f3f3f3f3f3f3f
    d9ea:	3f3f3f3f 3f3f3f3f 	.insn	8, 0x3f3f3f3f3f3f3f3f
    d9f2:	3f3f3f3f 3f3f3f3f 	.insn	8, 0x3f3f3f3f3f3f3f3f
    d9fa:	3f3f3f3f 3f3f3f3f 	.insn	8, 0x3f3f3f3f3f3f3f3f
    da02:	3f3f3f3f 3f3f3f3f 	.insn	8, 0x3f3f3f3f3f3f3f3f
    da0a:	3f3f3f3f 3f3f3f3f 	.insn	8, 0x3f3f3f3f3f3f3f3f
    da12:	3f3f3f3f 3f3f3f3f 	.insn	8, 0x3f3f3f3f3f3f3f3f
    da1a:	3f3f3f3f 3f3f3f3f 	.insn	8, 0x3f3f3f3f3f3f3f3f
    da22:	3f3f3f3f 3f3f3f3f 	.insn	8, 0x3f3f3f3f3f3f3f3f
    da2a:	3f3f3f3f 3f3f3f3f 	.insn	8, 0x3f3f3f3f3f3f3f3f
    da32:	3f3f3f3f 3f3f3f3f 	.insn	8, 0x3f3f3f3f3f3f3f3f
    da3a:	3f3f3f3f 3f3f3f3f 	.insn	8, 0x3f3f3f3f3f3f3f3f
    da42:	3f3f3f3f 3f3f3f3f 	.insn	8, 0x3f3f3f3f3f3f3f3f
    da4a:	3f3f3f3f 3f3f3f3f 	.insn	8, 0x3f3f3f3f3f3f3f3f
    da52:	3f3f3f3f 3f3f3f3f 	.insn	8, 0x3f3f3f3f3f3f3f3f
    da5a:	3f3f3f3f 3f3f3f3f 	.insn	8, 0x3f3f3f3f3f3f3f3f
    da62:	3f3f3f3f 3f3f3f3f 	.insn	8, 0x3f3f3f3f3f3f3f3f
    da6a:	3f3f3f3f 3f3f3f3f 	.insn	8, 0x3f3f3f3f3f3f3f3f
    da72:	3f3f3f3f 3f3f3f3f 	.insn	8, 0x3f3f3f3f3f3f3f3f
    da7a:	3f3f3f3f 3f3f3f3f 	.insn	8, 0x3f3f3f3f3f3f3f3f
    da82:	3f3f3f3f 3f3f3f3f 	.insn	8, 0x3f3f3f3f3f3f3f3f
    da8a:	3f3f3f3f 3f3f3f3f 	.insn	8, 0x3f3f3f3f3f3f3f3f
    da92:	3f3f3f3f 3f3f3f3f 	.insn	8, 0x3f3f3f3f3f3f3f3f
    da9a:	3f3f3f3f 3f3f3f3f 	.insn	8, 0x3f3f3f3f3f3f3f3f
    daa2:	3f3f3f3f 3f3f3f3f 	.insn	8, 0x3f3f3f3f3f3f3f3f
    daaa:	3f3f3f3f 3f3f3f3f 	.insn	8, 0x3f3f3f3f3f3f3f3f
    dab2:	3f3f3f3f 3f3f3f3f 	.insn	8, 0x3f3f3f3f3f3f3f3f
    daba:	3f3f3f3f 3f3f3f3f 	.insn	8, 0x3f3f3f3f3f3f3f3f
    dac2:	3f3f3f3f 3f3f3f3f 	.insn	8, 0x3f3f3f3f3f3f3f3f
    daca:	3f3f3f3f 3f3f3f3f 	.insn	8, 0x3f3f3f3f3f3f3f3f
    dad2:	3f3f3f3f 3f3f3f3f 	.insn	8, 0x3f3f3f3f3f3f3f3f
    dada:	3f3f3f3f 3f3f3f3f 	.insn	8, 0x3f3f3f3f3f3f3f3f
    dae2:	3f3f3f3f 3f3f3f3f 	.insn	8, 0x3f3f3f3f3f3f3f3f
    daea:	3f3f3f3f 3f3f3f3f 	.insn	8, 0x3f3f3f3f3f3f3f3f
    daf2:	3f3f3f3f 3f3f3f3f 	.insn	8, 0x3f3f3f3f3f3f3f3f
    dafa:	3f3f3f3f 3f3f3f3f 	.insn	8, 0x3f3f3f3f3f3f3f3f
    db02:	3f3f3f3f 3f3f3f3f 	.insn	8, 0x3f3f3f3f3f3f3f3f
    db0a:	3f3f3f3f 3f3f3f3f 	.insn	8, 0x3f3f3f3f3f3f3f3f
    db12:	3f3f3f3f 3f3f3f3f 	.insn	8, 0x3f3f3f3f3f3f3f3f
    db1a:	3f3f3f3f 3f3f3f3f 	.insn	8, 0x3f3f3f3f3f3f3f3f
    db22:	3f3f3f3f 3f3f3f3f 	.insn	8, 0x3f3f3f3f3f3f3f3f
    db2a:	3f3f3f3f 3f3f3f3f 	.insn	8, 0x3f3f3f3f3f3f3f3f
    db32:	3f3f3f3f 3f3f3f3f 	.insn	8, 0x3f3f3f3f3f3f3f3f
    db3a:	3f3f3f3f 3f3f3f3f 	.insn	8, 0x3f3f3f3f3f3f3f3f
    db42:	3f3f3f3f 3f3f3f3f 	.insn	8, 0x3f3f3f3f3f3f3f3f
    db4a:	3f3f3f3f 3f3f3f3f 	.insn	8, 0x3f3f3f3f3f3f3f3f
    db52:	3f3f3f3f 3f3f3f3f 	.insn	8, 0x3f3f3f3f3f3f3f3f
    db5a:	3f3f3f3f 3f3f3f3f 	.insn	8, 0x3f3f3f3f3f3f3f3f
    db62:	3f3f3f3f 3f3f3f3f 	.insn	8, 0x3f3f3f3f3f3f3f3f
    db6a:	3f3f3f3f 3f3f3f3f 	.insn	8, 0x3f3f3f3f3f3f3f3f
    db72:	3f3f3f3f 3f3f3f3f 	.insn	8, 0x3f3f3f3f3f3f3f3f
    db7a:	3f3f3f3f 3f3f3f3f 	.insn	8, 0x3f3f3f3f3f3f3f3f
    db82:	3f3f3f3f 3f3f3f3f 	.insn	8, 0x3f3f3f3f3f3f3f3f
    db8a:	3f3f3f3f 3f3f3f3f 	.insn	8, 0x3f3f3f3f3f3f3f3f
    db92:	3f3f3f3f 3f3f3f3f 	.insn	8, 0x3f3f3f3f3f3f3f3f
    db9a:	3f3f3f3f 3f3f3f3f 	.insn	8, 0x3f3f3f3f3f3f3f3f
    dba2:	3f3f3f3f 3f3f3f3f 	.insn	8, 0x3f3f3f3f3f3f3f3f
    dbaa:	3f3f3f3f 3f3f3f3f 	.insn	8, 0x3f3f3f3f3f3f3f3f
    dbb2:	3f3f3f3f 3f3f3f3f 	.insn	8, 0x3f3f3f3f3f3f3f3f
    dbba:	3f3f3f3f 3f3f3f3f 	.insn	8, 0x3f3f3f3f3f3f3f3f
    dbc2:	3f3f3f3f 3f3f3f3f 	.insn	8, 0x3f3f3f3f3f3f3f3f
    dbca:	3f3f3f3f 3f3f3f3f 	.insn	8, 0x3f3f3f3f3f3f3f3f
    dbd2:	3f3f3f3f 3f3f3f3f 	.insn	8, 0x3f3f3f3f3f3f3f3f
    dbda:	3f3f3f3f 3f3f3f3f 	.insn	8, 0x3f3f3f3f3f3f3f3f
    dbe2:	3f3f3f3f 3f3f3f3f 	.insn	8, 0x3f3f3f3f3f3f3f3f
    dbea:	3f3f3f3f 3f3f3f3f 	.insn	8, 0x3f3f3f3f3f3f3f3f
    dbf2:	3f3f3f3f 3f3f3f3f 	.insn	8, 0x3f3f3f3f3f3f3f3f
    dbfa:	3f3f3f3f 3f3f3f3f 	.insn	8, 0x3f3f3f3f3f3f3f3f
    dc02:	3f3f3f3f 3f3f3f3f 	.insn	8, 0x3f3f3f3f3f3f3f3f
    dc0a:	3f3f3f3f 3f3f3f3f 	.insn	8, 0x3f3f3f3f3f3f3f3f
    dc12:	3f3f3f3f 3f3f3f3f 	.insn	8, 0x3f3f3f3f3f3f3f3f
    dc1a:	3f3f3f3f 3f3f3f3f 	.insn	8, 0x3f3f3f3f3f3f3f3f
    dc22:	3f3f3f3f 3f3f3f3f 	.insn	8, 0x3f3f3f3f3f3f3f3f
    dc2a:	3f3f3f3f 3f3f3f3f 	.insn	8, 0x3f3f3f3f3f3f3f3f
    dc32:	3f3f3f3f 3f3f3f3f 	.insn	8, 0x3f3f3f3f3f3f3f3f
    dc3a:	3f3f3f3f 3f3f3f3f 	.insn	8, 0x3f3f3f3f3f3f3f3f
    dc42:	3f3f3f3f 3f3f3f3f 	.insn	8, 0x3f3f3f3f3f3f3f3f
    dc4a:	3f3f3f3f 3f3f3f3f 	.insn	8, 0x3f3f3f3f3f3f3f3f
    dc52:	3f3f3f3f 3f3f3f3f 	.insn	8, 0x3f3f3f3f3f3f3f3f
    dc5a:	3f3f3f3f 3f3f3f3f 	.insn	8, 0x3f3f3f3f3f3f3f3f
    dc62:	3f3f3f3f 3f3f3f3f 	.insn	8, 0x3f3f3f3f3f3f3f3f
    dc6a:	3f3f3f3f 3f3f3f3f 	.insn	8, 0x3f3f3f3f3f3f3f3f
    dc72:	3f3f3f3f 3f3f3f3f 	.insn	8, 0x3f3f3f3f3f3f3f3f
    dc7a:	3f3f3f3f 3f3f3f3f 	.insn	8, 0x3f3f3f3f3f3f3f3f
    dc82:	3f3f3f3f 3f3f3f3f 	.insn	8, 0x3f3f3f3f3f3f3f3f
    dc8a:	3f3f3f3f 3f3f3f3f 	.insn	8, 0x3f3f3f3f3f3f3f3f
    dc92:	3f3f3f3f 3f3f3f3f 	.insn	8, 0x3f3f3f3f3f3f3f3f
    dc9a:	3f3f3f3f 3f3f3f3f 	.insn	8, 0x3f3f3f3f3f3f3f3f
    dca2:	3f3f3f3f 3f3f3f3f 	.insn	8, 0x3f3f3f3f3f3f3f3f
    dcaa:	3f3f3f3f 3f3f3f3f 	.insn	8, 0x3f3f3f3f3f3f3f3f
    dcb2:	3f3f3f3f 3f3f3f3f 	.insn	8, 0x3f3f3f3f3f3f3f3f
    dcba:	3f3f3f3f 3f3f3f3f 	.insn	8, 0x3f3f3f3f3f3f3f3f
    dcc2:	3f3f3f3f 3f3f3f3f 	.insn	8, 0x3f3f3f3f3f3f3f3f
    dcca:	3f3f3f3f 3f3f3f3f 	.insn	8, 0x3f3f3f3f3f3f3f3f
    dcd2:	3f3f3f3f 3f3f3f3f 	.insn	8, 0x3f3f3f3f3f3f3f3f
    dcda:	3f3f3f3f 3f3f3f3f 	.insn	8, 0x3f3f3f3f3f3f3f3f
    dce2:	3f3f3f3f 3f3f3f3f 	.insn	8, 0x3f3f3f3f3f3f3f3f
    dcea:	3f3f3f3f 3f3f3f3f 	.insn	8, 0x3f3f3f3f3f3f3f3f
    dcf2:	3f3f3f3f 3f3f3f3f 	.insn	8, 0x3f3f3f3f3f3f3f3f
    dcfa:	3f3f3f3f 3f3f3f3f 	.insn	8, 0x3f3f3f3f3f3f3f3f
    dd02:	3f3f3f3f 3f3f3f3f 	.insn	8, 0x3f3f3f3f3f3f3f3f
    dd0a:	3f3f3f3f 3f3f3f3f 	.insn	8, 0x3f3f3f3f3f3f3f3f
    dd12:	3f3f3f3f 3f3f3f3f 	.insn	8, 0x3f3f3f3f3f3f3f3f
    dd1a:	3f3f3f3f 3f3f3f3f 	.insn	8, 0x3f3f3f3f3f3f3f3f
    dd22:	3f3f3f3f 3f3f3f3f 	.insn	8, 0x3f3f3f3f3f3f3f3f
    dd2a:	3f3f3f3f 3f3f3f3f 	.insn	8, 0x3f3f3f3f3f3f3f3f
    dd32:	3f3f3f3f 3f3f3f3f 	.insn	8, 0x3f3f3f3f3f3f3f3f
    dd3a:	3f3f3f3f 3f3f3f3f 	.insn	8, 0x3f3f3f3f3f3f3f3f
    dd42:	3f3f3f3f 3f3f3f3f 	.insn	8, 0x3f3f3f3f3f3f3f3f
    dd4a:	3f3f3f3f 3f3f3f3f 	.insn	8, 0x3f3f3f3f3f3f3f3f
    dd52:	3f3f3f3f 3f3f3f3f 	.insn	8, 0x3f3f3f3f3f3f3f3f
    dd5a:	3f3f3f3f 3f3f3f3f 	.insn	8, 0x3f3f3f3f3f3f3f3f
    dd62:	3f3f3f3f 3f3f3f3f 	.insn	8, 0x3f3f3f3f3f3f3f3f
    dd6a:	3f3f3f3f 3f3f3f3f 	.insn	8, 0x3f3f3f3f3f3f3f3f
    dd72:	3f3f3f3f 3f3f3f3f 	.insn	8, 0x3f3f3f3f3f3f3f3f
    dd7a:	3f3f3f3f 3f3f3f3f 	.insn	8, 0x3f3f3f3f3f3f3f3f
    dd82:	3f3f3f3f 3f3f3f3f 	.insn	8, 0x3f3f3f3f3f3f3f3f
    dd8a:	3f3f3f3f 3f3f3f3f 	.insn	8, 0x3f3f3f3f3f3f3f3f
    dd92:	3f3f3f3f 3f3f3f3f 	.insn	8, 0x3f3f3f3f3f3f3f3f
    dd9a:	3f3f3f3f 3f3f3f3f 	.insn	8, 0x3f3f3f3f3f3f3f3f
    dda2:	3f3f3f3f 3f3f3f3f 	.insn	8, 0x3f3f3f3f3f3f3f3f
    ddaa:	3f3f3f3f 3f3f3f3f 	.insn	8, 0x3f3f3f3f3f3f3f3f
    ddb2:	3f3f3f3f 3f3f3f3f 	.insn	8, 0x3f3f3f3f3f3f3f3f
    ddba:	3f3f3f3f 3f3f3f3f 	.insn	8, 0x3f3f3f3f3f3f3f3f
    ddc2:	3f3f3f3f 3f3f3f3f 	.insn	8, 0x3f3f3f3f3f3f3f3f
    ddca:	3f3f3f3f 3f3f3f3f 	.insn	8, 0x3f3f3f3f3f3f3f3f
    ddd2:	3f3f3f3f 3f3f3f3f 	.insn	8, 0x3f3f3f3f3f3f3f3f
    ddda:	3f3f3f3f 3f3f3f3f 	.insn	8, 0x3f3f3f3f3f3f3f3f
    dde2:	3f3f3f3f 3f3f3f3f 	.insn	8, 0x3f3f3f3f3f3f3f3f
    ddea:	3f3f3f3f 3f3f3f3f 	.insn	8, 0x3f3f3f3f3f3f3f3f
    ddf2:	3f3f3f3f 3f3f3f3f 	.insn	8, 0x3f3f3f3f3f3f3f3f
    ddfa:	3f3f3f3f 3f3f3f3f 	.insn	8, 0x3f3f3f3f3f3f3f3f
    de02:	3f3f3f3f 3f3f3f3f 	.insn	8, 0x3f3f3f3f3f3f3f3f
    de0a:	3f3f3f3f 3f3f3f3f 	.insn	8, 0x3f3f3f3f3f3f3f3f
    de12:	3f3f3f3f 3f3f3f3f 	.insn	8, 0x3f3f3f3f3f3f3f3f
    de1a:	3f3f3f3f 3f3f3f3f 	.insn	8, 0x3f3f3f3f3f3f3f3f
    de22:	3f3f3f3f 3f3f3f3f 	.insn	8, 0x3f3f3f3f3f3f3f3f
    de2a:	3f3f3f3f 3f3f3f3f 	.insn	8, 0x3f3f3f3f3f3f3f3f
    de32:	3f3f3f3f 3f3f3f3f 	.insn	8, 0x3f3f3f3f3f3f3f3f
    de3a:	3f3f3f3f 3f3f3f3f 	.insn	8, 0x3f3f3f3f3f3f3f3f
    de42:	3f3f3f3f 3f3f3f3f 	.insn	8, 0x3f3f3f3f3f3f3f3f
    de4a:	3f3f3f3f 3f3f3f3f 	.insn	8, 0x3f3f3f3f3f3f3f3f
    de52:	3f3f3f3f 3f3f3f3f 	.insn	8, 0x3f3f3f3f3f3f3f3f
    de5a:	3f3f3f3f 3f3f3f3f 	.insn	8, 0x3f3f3f3f3f3f3f3f
    de62:	3f3f3f3f 3f3f3f3f 	.insn	8, 0x3f3f3f3f3f3f3f3f
    de6a:	3f3f3f3f 3f3f3f3f 	.insn	8, 0x3f3f3f3f3f3f3f3f
    de72:	3f3f3f3f 3f3f3f3f 	.insn	8, 0x3f3f3f3f3f3f3f3f
    de7a:	3f3f3f3f 3f3f3f3f 	.insn	8, 0x3f3f3f3f3f3f3f3f
    de82:	3f3f3f3f 3f3f3f3f 	.insn	8, 0x3f3f3f3f3f3f3f3f
    de8a:	3f3f3f3f 3f3f3f3f 	.insn	8, 0x3f3f3f3f3f3f3f3f
    de92:	3f3f3f3f 3f3f3f3f 	.insn	8, 0x3f3f3f3f3f3f3f3f
    de9a:	3f3f3f3f 3f3f3f3f 	.insn	8, 0x3f3f3f3f3f3f3f3f
    dea2:	3f3f3f3f 3f3f3f3f 	.insn	8, 0x3f3f3f3f3f3f3f3f
    deaa:	3f3f3f3f 3f3f3f3f 	.insn	8, 0x3f3f3f3f3f3f3f3f
    deb2:	3f3f3f3f 3f3f3f3f 	.insn	8, 0x3f3f3f3f3f3f3f3f
    deba:	3f3f3f3f 3f3f3f3f 	.insn	8, 0x3f3f3f3f3f3f3f3f
    dec2:	3f3f3f3f 3f3f3f3f 	.insn	8, 0x3f3f3f3f3f3f3f3f
    deca:	3f3f3f3f 3f3f3f3f 	.insn	8, 0x3f3f3f3f3f3f3f3f
    ded2:	3f3f3f3f 3f3f3f3f 	.insn	8, 0x3f3f3f3f3f3f3f3f
    deda:	3f3f3f3f 3f3f3f3f 	.insn	8, 0x3f3f3f3f3f3f3f3f
    dee2:	3f3f3f3f 3f3f3f3f 	.insn	8, 0x3f3f3f3f3f3f3f3f
    deea:	3f3f3f3f 3f3f3f3f 	.insn	8, 0x3f3f3f3f3f3f3f3f
    def2:	3f3f3f3f 3f3f3f3f 	.insn	8, 0x3f3f3f3f3f3f3f3f
    defa:	3f3f3f3f 3f3f3f3f 	.insn	8, 0x3f3f3f3f3f3f3f3f
    df02:	3f3f3f3f 3f3f3f3f 	.insn	8, 0x3f3f3f3f3f3f3f3f
    df0a:	3f3f3f3f 3f3f3f3f 	.insn	8, 0x3f3f3f3f3f3f3f3f
    df12:	3f3f3f3f 3f3f3f3f 	.insn	8, 0x3f3f3f3f3f3f3f3f
    df1a:	3f3f3f3f 3f3f3f3f 	.insn	8, 0x3f3f3f3f3f3f3f3f
    df22:	3f3f3f3f 3f3f3f3f 	.insn	8, 0x3f3f3f3f3f3f3f3f
    df2a:	3f3f3f3f 3f3f3f3f 	.insn	8, 0x3f3f3f3f3f3f3f3f
    df32:	3f3f3f3f 3f3f3f3f 	.insn	8, 0x3f3f3f3f3f3f3f3f
    df3a:	3f3f3f3f 3f3f3f3f 	.insn	8, 0x3f3f3f3f3f3f3f3f
    df42:	3f3f3f3f 3f3f3f3f 	.insn	8, 0x3f3f3f3f3f3f3f3f
    df4a:	3f3f3f3f 3f3f3f3f 	.insn	8, 0x3f3f3f3f3f3f3f3f
    df52:	3f3f3f3f 3f3f3f3f 	.insn	8, 0x3f3f3f3f3f3f3f3f
    df5a:	3f3f3f3f 3f3f3f3f 	.insn	8, 0x3f3f3f3f3f3f3f3f
    df62:	3f3f3f3f 3f3f3f3f 	.insn	8, 0x3f3f3f3f3f3f3f3f
    df6a:	3f3f3f3f 3f3f3f3f 	.insn	8, 0x3f3f3f3f3f3f3f3f
    df72:	3f3f3f3f 3f3f3f3f 	.insn	8, 0x3f3f3f3f3f3f3f3f
    df7a:	3f3f3f3f 3f3f3f3f 	.insn	8, 0x3f3f3f3f3f3f3f3f
    df82:	3f3f3f3f 3f3f3f3f 	.insn	8, 0x3f3f3f3f3f3f3f3f
    df8a:	3f3f3f3f 3f3f3f3f 	.insn	8, 0x3f3f3f3f3f3f3f3f
    df92:	3f3f3f3f 3f3f3f3f 	.insn	8, 0x3f3f3f3f3f3f3f3f
    df9a:	3f3f3f3f 3f3f3f3f 	.insn	8, 0x3f3f3f3f3f3f3f3f
    dfa2:	3f3f3f3f 3f3f3f3f 	.insn	8, 0x3f3f3f3f3f3f3f3f
    dfaa:	3f3f3f3f 3f3f3f3f 	.insn	8, 0x3f3f3f3f3f3f3f3f
    dfb2:	3f3f3f3f 3f3f3f3f 	.insn	8, 0x3f3f3f3f3f3f3f3f
    dfba:	3f3f3f3f 3f3f3f3f 	.insn	8, 0x3f3f3f3f3f3f3f3f
    dfc2:	3f3f3f3f 3f3f3f3f 	.insn	8, 0x3f3f3f3f3f3f3f3f
    dfca:	3f3f3f3f 3f3f3f3f 	.insn	8, 0x3f3f3f3f3f3f3f3f
    dfd2:	3f3f3f3f 3f3f3f3f 	.insn	8, 0x3f3f3f3f3f3f3f3f
    dfda:	3f3f3f3f 3f3f3f3f 	.insn	8, 0x3f3f3f3f3f3f3f3f
    dfe2:	3f3f3f3f 3f3f3f3f 	.insn	8, 0x3f3f3f3f3f3f3f3f
    dfea:	3f3f3f3f 3f3f3f3f 	.insn	8, 0x3f3f3f3f3f3f3f3f
    dff2:	3f3f3f3f 3f3f3f3f 	.insn	8, 0x3f3f3f3f3f3f3f3f
    dffa:	3f3f3f3f 3f3f3f3f 	.insn	8, 0x3f3f3f3f3f3f3f3f
    e002:	3f3f3f3f 3f3f3f3f 	.insn	8, 0x3f3f3f3f3f3f3f3f
    e00a:	3f3f3f3f 3f3f3f3f 	.insn	8, 0x3f3f3f3f3f3f3f3f
    e012:	3f3f3f3f 3f3f3f3f 	.insn	8, 0x3f3f3f3f3f3f3f3f
    e01a:	3f3f3f3f 3f3f3f3f 	.insn	8, 0x3f3f3f3f3f3f3f3f
    e022:	3f3f3f3f 3f3f3f3f 	.insn	8, 0x3f3f3f3f3f3f3f3f
    e02a:	3f3f3f3f 3f3f3f3f 	.insn	8, 0x3f3f3f3f3f3f3f3f
    e032:	3f3f3f3f 3f3f3f3f 	.insn	8, 0x3f3f3f3f3f3f3f3f
    e03a:	3f3f3f3f 3f3f3f3f 	.insn	8, 0x3f3f3f3f3f3f3f3f
    e042:	3f3f3f3f 3f3f3f3f 	.insn	8, 0x3f3f3f3f3f3f3f3f
    e04a:	3f3f3f3f 3f3f3f3f 	.insn	8, 0x3f3f3f3f3f3f3f3f
    e052:	3f3f3f3f 3f3f3f3f 	.insn	8, 0x3f3f3f3f3f3f3f3f
    e05a:	3f3f3f3f 3f3f3f3f 	.insn	8, 0x3f3f3f3f3f3f3f3f
    e062:	3f3f3f3f 3f3f3f3f 	.insn	8, 0x3f3f3f3f3f3f3f3f
    e06a:	3f3f3f3f 3f3f3f3f 	.insn	8, 0x3f3f3f3f3f3f3f3f
    e072:	3f3f3f3f 3f3f3f3f 	.insn	8, 0x3f3f3f3f3f3f3f3f
    e07a:	3f3f3f3f 3f3f3f3f 	.insn	8, 0x3f3f3f3f3f3f3f3f
    e082:	3f3f3f3f 3f3f3f3f 	.insn	8, 0x3f3f3f3f3f3f3f3f
    e08a:	3f3f3f3f 3f3f3f3f 	.insn	8, 0x3f3f3f3f3f3f3f3f
    e092:	3f3f3f3f 3f3f3f3f 	.insn	8, 0x3f3f3f3f3f3f3f3f
    e09a:	3f3f3f3f 3f3f3f3f 	.insn	8, 0x3f3f3f3f3f3f3f3f
    e0a2:	3f3f3f3f 3f3f3f3f 	.insn	8, 0x3f3f3f3f3f3f3f3f
    e0aa:	3f3f3f3f 3f3f3f3f 	.insn	8, 0x3f3f3f3f3f3f3f3f
    e0b2:	3f3f3f3f 3f3f3f3f 	.insn	8, 0x3f3f3f3f3f3f3f3f
    e0ba:	3f3f3f3f 3f3f3f3f 	.insn	8, 0x3f3f3f3f3f3f3f3f
    e0c2:	3f3f3f3f 3f3f3f3f 	.insn	8, 0x3f3f3f3f3f3f3f3f
    e0ca:	3f3f3f3f 3f3f3f3f 	.insn	8, 0x3f3f3f3f3f3f3f3f
    e0d2:	3f3f3f3f 3f3f3f3f 	.insn	8, 0x3f3f3f3f3f3f3f3f
    e0da:	3f3f3f3f 3f3f3f3f 	.insn	8, 0x3f3f3f3f3f3f3f3f
    e0e2:	3f3f3f3f 3f3f3f3f 	.insn	8, 0x3f3f3f3f3f3f3f3f
    e0ea:	3f3f3f3f 3f3f3f3f 	.insn	8, 0x3f3f3f3f3f3f3f3f
    e0f2:	3f3f3f3f 3f3f3f3f 	.insn	8, 0x3f3f3f3f3f3f3f3f
    e0fa:	3f3f3f3f 3f3f3f3f 	.insn	8, 0x3f3f3f3f3f3f3f3f
    e102:	3f3f3f3f 3f3f3f3f 	.insn	8, 0x3f3f3f3f3f3f3f3f
    e10a:	3f3f3f3f 3f3f3f3f 	.insn	8, 0x3f3f3f3f3f3f3f3f
    e112:	3f3f3f3f 3f3f3f3f 	.insn	8, 0x3f3f3f3f3f3f3f3f
    e11a:	3f3f3f3f 3f3f3f3f 	.insn	8, 0x3f3f3f3f3f3f3f3f
    e122:	3f3f3f3f 3f3f3f3f 	.insn	8, 0x3f3f3f3f3f3f3f3f
    e12a:	3f3f3f3f 3f3f3f3f 	.insn	8, 0x3f3f3f3f3f3f3f3f
    e132:	3f3f3f3f 3f3f3f3f 	.insn	8, 0x3f3f3f3f3f3f3f3f
    e13a:	3f3f3f3f 3f3f3f3f 	.insn	8, 0x3f3f3f3f3f3f3f3f
    e142:	3f3f3f3f 3f3f3f3f 	.insn	8, 0x3f3f3f3f3f3f3f3f
    e14a:	3f3f3f3f 3f3f3f3f 	.insn	8, 0x3f3f3f3f3f3f3f3f
    e152:	3f3f3f3f 3f3f3f3f 	.insn	8, 0x3f3f3f3f3f3f3f3f
    e15a:	3f3f3f3f 3f3f3f3f 	.insn	8, 0x3f3f3f3f3f3f3f3f
    e162:	3f3f3f3f 3f3f3f3f 	.insn	8, 0x3f3f3f3f3f3f3f3f
    e16a:	3f3f3f3f 3f3f3f3f 	.insn	8, 0x3f3f3f3f3f3f3f3f
    e172:	3f3f3f3f 3f3f3f3f 	.insn	8, 0x3f3f3f3f3f3f3f3f
    e17a:	3f3f3f3f 3f3f3f3f 	.insn	8, 0x3f3f3f3f3f3f3f3f
    e182:	3f3f3f3f 3f3f3f3f 	.insn	8, 0x3f3f3f3f3f3f3f3f
    e18a:	3f3f3f3f 3f3f3f3f 	.insn	8, 0x3f3f3f3f3f3f3f3f
    e192:	3f3f3f3f 3f3f3f3f 	.insn	8, 0x3f3f3f3f3f3f3f3f
    e19a:	3f3f3f3f 3f3f3f3f 	.insn	8, 0x3f3f3f3f3f3f3f3f
    e1a2:	3f3f3f3f 3f3f3f3f 	.insn	8, 0x3f3f3f3f3f3f3f3f
    e1aa:	3f3f3f3f 3f3f3f3f 	.insn	8, 0x3f3f3f3f3f3f3f3f
    e1b2:	3f3f3f3f 3f3f3f3f 	.insn	8, 0x3f3f3f3f3f3f3f3f
    e1ba:	3f3f3f3f 3f3f3f3f 	.insn	8, 0x3f3f3f3f3f3f3f3f
    e1c2:	3f3f3f3f 3f3f3f3f 	.insn	8, 0x3f3f3f3f3f3f3f3f
    e1ca:	3f3f3f3f 3f3f3f3f 	.insn	8, 0x3f3f3f3f3f3f3f3f
    e1d2:	3f3f3f3f 3f3f3f3f 	.insn	8, 0x3f3f3f3f3f3f3f3f
    e1da:	3f3f3f3f 3f3f3f3f 	.insn	8, 0x3f3f3f3f3f3f3f3f
    e1e2:	3f3f3f3f 3f3f3f3f 	.insn	8, 0x3f3f3f3f3f3f3f3f
    e1ea:	3f3f3f3f 3f3f3f3f 	.insn	8, 0x3f3f3f3f3f3f3f3f
    e1f2:	3f3f3f3f 3f3f3f3f 	.insn	8, 0x3f3f3f3f3f3f3f3f
    e1fa:	3f3f3f3f 3f3f3f3f 	.insn	8, 0x3f3f3f3f3f3f3f3f
    e202:	3f3f3f3f 3f3f3f3f 	.insn	8, 0x3f3f3f3f3f3f3f3f
    e20a:	3f3f3f3f 3f3f3f3f 	.insn	8, 0x3f3f3f3f3f3f3f3f
    e212:	3f3f3f3f 3f3f3f3f 	.insn	8, 0x3f3f3f3f3f3f3f3f
    e21a:	3f3f3f3f 3f3f3f3f 	.insn	8, 0x3f3f3f3f3f3f3f3f
    e222:	3f3f3f3f 3f3f3f3f 	.insn	8, 0x3f3f3f3f3f3f3f3f
    e22a:	3f3f3f3f 3f3f3f3f 	.insn	8, 0x3f3f3f3f3f3f3f3f
    e232:	3f3f3f3f 3f3f3f3f 	.insn	8, 0x3f3f3f3f3f3f3f3f
    e23a:	3f3f3f3f 3f3f3f3f 	.insn	8, 0x3f3f3f3f3f3f3f3f
    e242:	3f3f3f3f 3f3f3f3f 	.insn	8, 0x3f3f3f3f3f3f3f3f
    e24a:	3f3f3f3f 3f3f3f3f 	.insn	8, 0x3f3f3f3f3f3f3f3f
    e252:	3f3f3f3f 3f3f3f3f 	.insn	8, 0x3f3f3f3f3f3f3f3f
    e25a:	3f3f3f3f 3f3f3f3f 	.insn	8, 0x3f3f3f3f3f3f3f3f
    e262:	3f3f3f3f 3f3f3f3f 	.insn	8, 0x3f3f3f3f3f3f3f3f
    e26a:	3f3f3f3f 3f3f3f3f 	.insn	8, 0x3f3f3f3f3f3f3f3f
    e272:	3f3f3f3f 3f3f3f3f 	.insn	8, 0x3f3f3f3f3f3f3f3f
    e27a:	3f3f3f3f 3f3f3f3f 	.insn	8, 0x3f3f3f3f3f3f3f3f
    e282:	3f3f3f3f 3f3f3f3f 	.insn	8, 0x3f3f3f3f3f3f3f3f
    e28a:	3f3f3f3f 3f3f3f3f 	.insn	8, 0x3f3f3f3f3f3f3f3f
    e292:	3f3f3f3f 3f3f3f3f 	.insn	8, 0x3f3f3f3f3f3f3f3f
    e29a:	3f3f3f3f 3f3f3f3f 	.insn	8, 0x3f3f3f3f3f3f3f3f
    e2a2:	3f3f3f3f 3f3f3f3f 	.insn	8, 0x3f3f3f3f3f3f3f3f
    e2aa:	3f3f3f3f 3f3f3f3f 	.insn	8, 0x3f3f3f3f3f3f3f3f
    e2b2:	3f3f3f3f 3f3f3f3f 	.insn	8, 0x3f3f3f3f3f3f3f3f
    e2ba:	3f3f3f3f 3f3f3f3f 	.insn	8, 0x3f3f3f3f3f3f3f3f
    e2c2:	3f3f3f3f 3f3f3f3f 	.insn	8, 0x3f3f3f3f3f3f3f3f
    e2ca:	3f3f3f3f 3f3f3f3f 	.insn	8, 0x3f3f3f3f3f3f3f3f
    e2d2:	3f3f3f3f 3f3f3f3f 	.insn	8, 0x3f3f3f3f3f3f3f3f
    e2da:	3f3f3f3f 3f3f3f3f 	.insn	8, 0x3f3f3f3f3f3f3f3f
    e2e2:	3f3f3f3f 3f3f3f3f 	.insn	8, 0x3f3f3f3f3f3f3f3f
    e2ea:	3f3f3f3f 3f3f3f3f 	.insn	8, 0x3f3f3f3f3f3f3f3f
    e2f2:	3f3f3f3f 3f3f3f3f 	.insn	8, 0x3f3f3f3f3f3f3f3f
    e2fa:	3f3f3f3f 3f3f3f3f 	.insn	8, 0x3f3f3f3f3f3f3f3f
    e302:	3f3f3f3f 3f3f3f3f 	.insn	8, 0x3f3f3f3f3f3f3f3f
    e30a:	3f3f3f3f 3f3f3f3f 	.insn	8, 0x3f3f3f3f3f3f3f3f
    e312:	3f3f3f3f 3f3f3f3f 	.insn	8, 0x3f3f3f3f3f3f3f3f
    e31a:	3f3f3f3f 3f3f3f3f 	.insn	8, 0x3f3f3f3f3f3f3f3f
    e322:	3f3f3f3f 3f3f3f3f 	.insn	8, 0x3f3f3f3f3f3f3f3f
    e32a:	3f3f3f3f 3f3f3f3f 	.insn	8, 0x3f3f3f3f3f3f3f3f
    e332:	3f3f3f3f 3f3f3f3f 	.insn	8, 0x3f3f3f3f3f3f3f3f
    e33a:	3f3f3f3f 3f3f3f3f 	.insn	8, 0x3f3f3f3f3f3f3f3f
    e342:	3f3f3f3f 3f3f3f3f 	.insn	8, 0x3f3f3f3f3f3f3f3f
    e34a:	3f3f3f3f 3f3f3f3f 	.insn	8, 0x3f3f3f3f3f3f3f3f
    e352:	3f3f3f3f 3f3f3f3f 	.insn	8, 0x3f3f3f3f3f3f3f3f
    e35a:	3f3f3f3f 3f3f3f3f 	.insn	8, 0x3f3f3f3f3f3f3f3f
    e362:	3f3f3f3f 3f3f3f3f 	.insn	8, 0x3f3f3f3f3f3f3f3f
    e36a:	3f3f3f3f 3f3f3f3f 	.insn	8, 0x3f3f3f3f3f3f3f3f
    e372:	3f3f3f3f 3f3f3f3f 	.insn	8, 0x3f3f3f3f3f3f3f3f
    e37a:	3f3f3f3f 3f3f3f3f 	.insn	8, 0x3f3f3f3f3f3f3f3f
    e382:	3f3f3f3f 3f3f3f3f 	.insn	8, 0x3f3f3f3f3f3f3f3f
    e38a:	3f3f3f3f 3f3f3f3f 	.insn	8, 0x3f3f3f3f3f3f3f3f
    e392:	3f3f3f3f 3f3f3f3f 	.insn	8, 0x3f3f3f3f3f3f3f3f
    e39a:	3f3f3f3f 3f3f3f3f 	.insn	8, 0x3f3f3f3f3f3f3f3f
    e3a2:	3f3f3f3f 3f3f3f3f 	.insn	8, 0x3f3f3f3f3f3f3f3f
    e3aa:	3f3f3f3f 3f3f3f3f 	.insn	8, 0x3f3f3f3f3f3f3f3f
    e3b2:	3f3f3f3f 3f3f3f3f 	.insn	8, 0x3f3f3f3f3f3f3f3f
    e3ba:	3f3f3f3f 3f3f3f3f 	.insn	8, 0x3f3f3f3f3f3f3f3f
    e3c2:	3f3f3f3f 3f3f3f3f 	.insn	8, 0x3f3f3f3f3f3f3f3f
    e3ca:	3f3f3f3f 3f3f3f3f 	.insn	8, 0x3f3f3f3f3f3f3f3f
    e3d2:	3f3f3f3f 3f3f3f3f 	.insn	8, 0x3f3f3f3f3f3f3f3f
    e3da:	3f3f3f3f 3f3f3f3f 	.insn	8, 0x3f3f3f3f3f3f3f3f
    e3e2:	3f3f3f3f 3f3f3f3f 	.insn	8, 0x3f3f3f3f3f3f3f3f
    e3ea:	3f3f3f3f 3f3f3f3f 	.insn	8, 0x3f3f3f3f3f3f3f3f
    e3f2:	3f3f3f3f 3f3f3f3f 	.insn	8, 0x3f3f3f3f3f3f3f3f
    e3fa:	3f3f3f3f 3f3f3f3f 	.insn	8, 0x3f3f3f3f3f3f3f3f
    e402:	3f3f3f3f 3f3f3f3f 	.insn	8, 0x3f3f3f3f3f3f3f3f
    e40a:	3f3f3f3f 3f3f3f3f 	.insn	8, 0x3f3f3f3f3f3f3f3f
    e412:	3f3f3f3f 3f3f3f3f 	.insn	8, 0x3f3f3f3f3f3f3f3f
    e41a:	3f3f3f3f 3f3f3f3f 	.insn	8, 0x3f3f3f3f3f3f3f3f
    e422:	3f3f3f3f 3f3f3f3f 	.insn	8, 0x3f3f3f3f3f3f3f3f
    e42a:	3f3f3f3f 3f3f3f3f 	.insn	8, 0x3f3f3f3f3f3f3f3f
    e432:	3f3f3f3f 3f3f3f3f 	.insn	8, 0x3f3f3f3f3f3f3f3f
    e43a:	3f3f3f3f 3f3f3f3f 	.insn	8, 0x3f3f3f3f3f3f3f3f
    e442:	3f3f3f3f 3f3f3f3f 	.insn	8, 0x3f3f3f3f3f3f3f3f
    e44a:	3f3f3f3f 3f3f3f3f 	.insn	8, 0x3f3f3f3f3f3f3f3f
    e452:	3f3f3f3f 3f3f3f3f 	.insn	8, 0x3f3f3f3f3f3f3f3f
    e45a:	3f3f3f3f 3f3f3f3f 	.insn	8, 0x3f3f3f3f3f3f3f3f
    e462:	3f3f3f3f 3f3f3f3f 	.insn	8, 0x3f3f3f3f3f3f3f3f
    e46a:	3f3f3f3f 3f3f3f3f 	.insn	8, 0x3f3f3f3f3f3f3f3f
    e472:	3f3f3f3f 3f3f3f3f 	.insn	8, 0x3f3f3f3f3f3f3f3f
    e47a:	3f3f3f3f 3f3f3f3f 	.insn	8, 0x3f3f3f3f3f3f3f3f
    e482:	3f3f3f3f 3f3f3f3f 	.insn	8, 0x3f3f3f3f3f3f3f3f
    e48a:	3f3f3f3f 3f3f3f3f 	.insn	8, 0x3f3f3f3f3f3f3f3f
    e492:	3f3f3f3f 3f3f3f3f 	.insn	8, 0x3f3f3f3f3f3f3f3f
    e49a:	3f3f3f3f 3f3f3f3f 	.insn	8, 0x3f3f3f3f3f3f3f3f
    e4a2:	3f3f3f3f 3f3f3f3f 	.insn	8, 0x3f3f3f3f3f3f3f3f
    e4aa:	3f3f3f3f 3f3f3f3f 	.insn	8, 0x3f3f3f3f3f3f3f3f
    e4b2:	3f3f3f3f 3f3f3f3f 	.insn	8, 0x3f3f3f3f3f3f3f3f
    e4ba:	3f3f3f3f 3f3f3f3f 	.insn	8, 0x3f3f3f3f3f3f3f3f
    e4c2:	3f3f3f3f 3f3f3f3f 	.insn	8, 0x3f3f3f3f3f3f3f3f
    e4ca:	3f3f3f3f 3f3f3f3f 	.insn	8, 0x3f3f3f3f3f3f3f3f
    e4d2:	3f3f3f3f 3f3f3f3f 	.insn	8, 0x3f3f3f3f3f3f3f3f
    e4da:	3f3f3f3f 3f3f3f3f 	.insn	8, 0x3f3f3f3f3f3f3f3f
    e4e2:	3f3f3f3f 3f3f3f3f 	.insn	8, 0x3f3f3f3f3f3f3f3f
    e4ea:	3f3f3f3f 3f3f3f3f 	.insn	8, 0x3f3f3f3f3f3f3f3f
    e4f2:	3f3f3f3f 3f3f3f3f 	.insn	8, 0x3f3f3f3f3f3f3f3f
    e4fa:	3f3f3f3f 3f3f3f3f 	.insn	8, 0x3f3f3f3f3f3f3f3f
    e502:	3f3f3f3f 3f3f3f3f 	.insn	8, 0x3f3f3f3f3f3f3f3f
    e50a:	3f3f3f3f 3f3f3f3f 	.insn	8, 0x3f3f3f3f3f3f3f3f
    e512:	3f3f3f3f 3f3f3f3f 	.insn	8, 0x3f3f3f3f3f3f3f3f
    e51a:	3f3f3f3f 3f3f3f3f 	.insn	8, 0x3f3f3f3f3f3f3f3f
    e522:	3f3f3f3f 3f3f3f3f 	.insn	8, 0x3f3f3f3f3f3f3f3f
    e52a:	3f3f3f3f 3f3f3f3f 	.insn	8, 0x3f3f3f3f3f3f3f3f
    e532:	3f3f3f3f 3f3f3f3f 	.insn	8, 0x3f3f3f3f3f3f3f3f
    e53a:	3f3f3f3f 3f3f3f3f 	.insn	8, 0x3f3f3f3f3f3f3f3f
    e542:	3f3f3f3f 3f3f3f3f 	.insn	8, 0x3f3f3f3f3f3f3f3f
    e54a:	3f3f3f3f 3f3f3f3f 	.insn	8, 0x3f3f3f3f3f3f3f3f
    e552:	3f3f3f3f 3f3f3f3f 	.insn	8, 0x3f3f3f3f3f3f3f3f
    e55a:	3f3f3f3f 3f3f3f3f 	.insn	8, 0x3f3f3f3f3f3f3f3f
    e562:	3f3f3f3f 3f3f3f3f 	.insn	8, 0x3f3f3f3f3f3f3f3f
    e56a:	3f3f3f3f 3f3f3f3f 	.insn	8, 0x3f3f3f3f3f3f3f3f
    e572:	3f3f3f3f 3f3f3f3f 	.insn	8, 0x3f3f3f3f3f3f3f3f
    e57a:	3f3f3f3f 3f3f3f3f 	.insn	8, 0x3f3f3f3f3f3f3f3f
    e582:	3f3f3f3f 3f3f3f3f 	.insn	8, 0x3f3f3f3f3f3f3f3f
    e58a:	3f3f3f3f 3f3f3f3f 	.insn	8, 0x3f3f3f3f3f3f3f3f
    e592:	3f3f3f3f 3f3f3f3f 	.insn	8, 0x3f3f3f3f3f3f3f3f
    e59a:	3f3f3f3f 3f3f3f3f 	.insn	8, 0x3f3f3f3f3f3f3f3f
    e5a2:	3f3f3f3f 3f3f3f3f 	.insn	8, 0x3f3f3f3f3f3f3f3f
    e5aa:	3f3f3f3f 3f3f3f3f 	.insn	8, 0x3f3f3f3f3f3f3f3f
    e5b2:	3f3f3f3f 3f3f3f3f 	.insn	8, 0x3f3f3f3f3f3f3f3f
    e5ba:	3f3f3f3f 3f3f3f3f 	.insn	8, 0x3f3f3f3f3f3f3f3f
    e5c2:	3f3f3f3f 3f3f3f3f 	.insn	8, 0x3f3f3f3f3f3f3f3f
    e5ca:	3f3f3f3f 3f3f3f3f 	.insn	8, 0x3f3f3f3f3f3f3f3f
    e5d2:	3f3f3f3f 3f3f3f3f 	.insn	8, 0x3f3f3f3f3f3f3f3f
    e5da:	3f3f3f3f 3f3f3f3f 	.insn	8, 0x3f3f3f3f3f3f3f3f
    e5e2:	3f3f3f3f 3f3f3f3f 	.insn	8, 0x3f3f3f3f3f3f3f3f
    e5ea:	3f3f3f3f 3f3f3f3f 	.insn	8, 0x3f3f3f3f3f3f3f3f
    e5f2:	3f3f3f3f 3f3f3f3f 	.insn	8, 0x3f3f3f3f3f3f3f3f
    e5fa:	3f3f3f3f 3f3f3f3f 	.insn	8, 0x3f3f3f3f3f3f3f3f
    e602:	3f3f3f3f 3f3f3f3f 	.insn	8, 0x3f3f3f3f3f3f3f3f
    e60a:	3f3f3f3f 3f3f3f3f 	.insn	8, 0x3f3f3f3f3f3f3f3f
    e612:	3f3f3f3f 3f3f3f3f 	.insn	8, 0x3f3f3f3f3f3f3f3f
    e61a:	3f3f3f3f 3f3f3f3f 	.insn	8, 0x3f3f3f3f3f3f3f3f
    e622:	3f3f3f3f 3f3f3f3f 	.insn	8, 0x3f3f3f3f3f3f3f3f
    e62a:	3f3f3f3f 3f3f3f3f 	.insn	8, 0x3f3f3f3f3f3f3f3f
    e632:	3f3f3f3f 3f3f3f3f 	.insn	8, 0x3f3f3f3f3f3f3f3f
    e63a:	3f3f3f3f 3f3f3f3f 	.insn	8, 0x3f3f3f3f3f3f3f3f
    e642:	3f3f3f3f 3f3f3f3f 	.insn	8, 0x3f3f3f3f3f3f3f3f
    e64a:	3f3f3f3f 3f3f3f3f 	.insn	8, 0x3f3f3f3f3f3f3f3f
    e652:	3f3f3f3f 3f3f3f3f 	.insn	8, 0x3f3f3f3f3f3f3f3f
    e65a:	3f3f3f3f 3f3f3f3f 	.insn	8, 0x3f3f3f3f3f3f3f3f
    e662:	3f3f3f3f 3f3f3f3f 	.insn	8, 0x3f3f3f3f3f3f3f3f
    e66a:	3f3f3f3f 3f3f3f3f 	.insn	8, 0x3f3f3f3f3f3f3f3f
    e672:	3f3f3f3f 3f3f3f3f 	.insn	8, 0x3f3f3f3f3f3f3f3f
    e67a:	3f3f3f3f 3f3f3f3f 	.insn	8, 0x3f3f3f3f3f3f3f3f
    e682:	3f3f3f3f 3f3f3f3f 	.insn	8, 0x3f3f3f3f3f3f3f3f
    e68a:	3f3f3f3f 3f3f3f3f 	.insn	8, 0x3f3f3f3f3f3f3f3f
    e692:	3f3f3f3f 3f3f3f3f 	.insn	8, 0x3f3f3f3f3f3f3f3f
    e69a:	3f3f3f3f 3f3f3f3f 	.insn	8, 0x3f3f3f3f3f3f3f3f
    e6a2:	3f3f3f3f 3f3f3f3f 	.insn	8, 0x3f3f3f3f3f3f3f3f
    e6aa:	3f3f3f3f 3f3f3f3f 	.insn	8, 0x3f3f3f3f3f3f3f3f
    e6b2:	3f3f3f3f 3f3f3f3f 	.insn	8, 0x3f3f3f3f3f3f3f3f
    e6ba:	3f3f3f3f 3f3f3f3f 	.insn	8, 0x3f3f3f3f3f3f3f3f
    e6c2:	3f3f3f3f 3f3f3f3f 	.insn	8, 0x3f3f3f3f3f3f3f3f
    e6ca:	3f3f3f3f 3f3f3f3f 	.insn	8, 0x3f3f3f3f3f3f3f3f
    e6d2:	3f3f3f3f 3f3f3f3f 	.insn	8, 0x3f3f3f3f3f3f3f3f
    e6da:	3f3f3f3f 3f3f3f3f 	.insn	8, 0x3f3f3f3f3f3f3f3f
    e6e2:	3f3f3f3f 3f3f3f3f 	.insn	8, 0x3f3f3f3f3f3f3f3f
    e6ea:	3f3f3f3f 3f3f3f3f 	.insn	8, 0x3f3f3f3f3f3f3f3f
    e6f2:	3f3f3f3f 3f3f3f3f 	.insn	8, 0x3f3f3f3f3f3f3f3f
    e6fa:	3f3f3f3f 3f3f3f3f 	.insn	8, 0x3f3f3f3f3f3f3f3f
    e702:	3f3f3f3f 3f3f3f3f 	.insn	8, 0x3f3f3f3f3f3f3f3f
    e70a:	3f3f3f3f 3f3f3f3f 	.insn	8, 0x3f3f3f3f3f3f3f3f
    e712:	3f3f3f3f 3f3f3f3f 	.insn	8, 0x3f3f3f3f3f3f3f3f
    e71a:	3f3f3f3f 3f3f3f3f 	.insn	8, 0x3f3f3f3f3f3f3f3f
    e722:	3f3f3f3f 3f3f3f3f 	.insn	8, 0x3f3f3f3f3f3f3f3f
    e72a:	3f3f3f3f 3f3f3f3f 	.insn	8, 0x3f3f3f3f3f3f3f3f
    e732:	3f3f3f3f 3f3f3f3f 	.insn	8, 0x3f3f3f3f3f3f3f3f
    e73a:	3f3f3f3f 3f3f3f3f 	.insn	8, 0x3f3f3f3f3f3f3f3f
    e742:	3f3f3f3f 3f3f3f3f 	.insn	8, 0x3f3f3f3f3f3f3f3f
    e74a:	3f3f3f3f 3f3f3f3f 	.insn	8, 0x3f3f3f3f3f3f3f3f
    e752:	3f3f3f3f 3f3f3f3f 	.insn	8, 0x3f3f3f3f3f3f3f3f
    e75a:	3f3f3f3f 3f3f3f3f 	.insn	8, 0x3f3f3f3f3f3f3f3f
    e762:	3f3f3f3f 3f3f3f3f 	.insn	8, 0x3f3f3f3f3f3f3f3f
    e76a:	3f3f3f3f 3f3f3f3f 	.insn	8, 0x3f3f3f3f3f3f3f3f
    e772:	3f3f3f3f 3f3f3f3f 	.insn	8, 0x3f3f3f3f3f3f3f3f
    e77a:	3f3f3f3f 3f3f3f3f 	.insn	8, 0x3f3f3f3f3f3f3f3f
    e782:	3f3f3f3f 3f3f3f3f 	.insn	8, 0x3f3f3f3f3f3f3f3f
    e78a:	3f3f3f3f 3f3f3f3f 	.insn	8, 0x3f3f3f3f3f3f3f3f
    e792:	3f3f3f3f 3f3f3f3f 	.insn	8, 0x3f3f3f3f3f3f3f3f
    e79a:	3f3f3f3f 3f3f3f3f 	.insn	8, 0x3f3f3f3f3f3f3f3f
    e7a2:	3f3f3f3f 3f3f3f3f 	.insn	8, 0x3f3f3f3f3f3f3f3f
    e7aa:	3f3f3f3f 3f3f3f3f 	.insn	8, 0x3f3f3f3f3f3f3f3f
    e7b2:	3f3f3f3f 3f3f3f3f 	.insn	8, 0x3f3f3f3f3f3f3f3f
    e7ba:	3f3f3f3f 3f3f3f3f 	.insn	8, 0x3f3f3f3f3f3f3f3f
    e7c2:	3f3f3f3f 3f3f3f3f 	.insn	8, 0x3f3f3f3f3f3f3f3f
    e7ca:	3f3f3f3f 3f3f3f3f 	.insn	8, 0x3f3f3f3f3f3f3f3f
    e7d2:	3f3f3f3f 3f3f3f3f 	.insn	8, 0x3f3f3f3f3f3f3f3f
    e7da:	3f3f3f3f 3f3f3f3f 	.insn	8, 0x3f3f3f3f3f3f3f3f
    e7e2:	3f3f3f3f 3f3f3f3f 	.insn	8, 0x3f3f3f3f3f3f3f3f
    e7ea:	3f3f3f3f 3f3f3f3f 	.insn	8, 0x3f3f3f3f3f3f3f3f
    e7f2:	3f3f3f3f 3f3f3f3f 	.insn	8, 0x3f3f3f3f3f3f3f3f
    e7fa:	3f3f3f3f 3f3f3f3f 	.insn	8, 0x3f3f3f3f3f3f3f3f
    e802:	3f3f3f3f 3f3f3f3f 	.insn	8, 0x3f3f3f3f3f3f3f3f
    e80a:	3f3f3f3f 3f3f3f3f 	.insn	8, 0x3f3f3f3f3f3f3f3f
    e812:	3f3f3f3f 3f3f3f3f 	.insn	8, 0x3f3f3f3f3f3f3f3f
    e81a:	3f3f3f3f 3f3f3f3f 	.insn	8, 0x3f3f3f3f3f3f3f3f
    e822:	3f3f3f3f 3f3f3f3f 	.insn	8, 0x3f3f3f3f3f3f3f3f
    e82a:	3f3f3f3f 3f3f3f3f 	.insn	8, 0x3f3f3f3f3f3f3f3f
    e832:	3f3f3f3f 3f3f3f3f 	.insn	8, 0x3f3f3f3f3f3f3f3f
    e83a:	3f3f3f3f 3f3f3f3f 	.insn	8, 0x3f3f3f3f3f3f3f3f
    e842:	3f3f3f3f 3f3f3f3f 	.insn	8, 0x3f3f3f3f3f3f3f3f
    e84a:	3f3f3f3f 3f3f3f3f 	.insn	8, 0x3f3f3f3f3f3f3f3f
    e852:	3f3f3f3f 3f3f3f3f 	.insn	8, 0x3f3f3f3f3f3f3f3f
    e85a:	3f3f3f3f 3f3f3f3f 	.insn	8, 0x3f3f3f3f3f3f3f3f
    e862:	3f3f3f3f 3f3f3f3f 	.insn	8, 0x3f3f3f3f3f3f3f3f
    e86a:	3f3f3f3f 3f3f3f3f 	.insn	8, 0x3f3f3f3f3f3f3f3f
    e872:	3f3f3f3f 3f3f3f3f 	.insn	8, 0x3f3f3f3f3f3f3f3f
    e87a:	3f3f3f3f 3f3f3f3f 	.insn	8, 0x3f3f3f3f3f3f3f3f
    e882:	3f3f3f3f 3f3f3f3f 	.insn	8, 0x3f3f3f3f3f3f3f3f
    e88a:	3f3f3f3f 3f3f3f3f 	.insn	8, 0x3f3f3f3f3f3f3f3f
    e892:	3f3f3f3f 3f3f3f3f 	.insn	8, 0x3f3f3f3f3f3f3f3f
    e89a:	3f3f3f3f 3f3f3f3f 	.insn	8, 0x3f3f3f3f3f3f3f3f
    e8a2:	3f3f3f3f 3f3f3f3f 	.insn	8, 0x3f3f3f3f3f3f3f3f
    e8aa:	3f3f3f3f 3f3f3f3f 	.insn	8, 0x3f3f3f3f3f3f3f3f
    e8b2:	3f3f3f3f 3f3f3f3f 	.insn	8, 0x3f3f3f3f3f3f3f3f
    e8ba:	3f3f3f3f 3f3f3f3f 	.insn	8, 0x3f3f3f3f3f3f3f3f
    e8c2:	3f3f3f3f 3f3f3f3f 	.insn	8, 0x3f3f3f3f3f3f3f3f
    e8ca:	3f3f3f3f 3f3f3f3f 	.insn	8, 0x3f3f3f3f3f3f3f3f
    e8d2:	3f3f3f3f 3f3f3f3f 	.insn	8, 0x3f3f3f3f3f3f3f3f
    e8da:	3f3f3f3f 3f3f3f3f 	.insn	8, 0x3f3f3f3f3f3f3f3f
    e8e2:	3f3f3f3f 3f3f3f3f 	.insn	8, 0x3f3f3f3f3f3f3f3f
    e8ea:	3f3f3f3f 3f3f3f3f 	.insn	8, 0x3f3f3f3f3f3f3f3f
    e8f2:	3f3f3f3f 3f3f3f3f 	.insn	8, 0x3f3f3f3f3f3f3f3f
    e8fa:	3f3f3f3f 3f3f3f3f 	.insn	8, 0x3f3f3f3f3f3f3f3f
    e902:	3f3f3f3f 3f3f3f3f 	.insn	8, 0x3f3f3f3f3f3f3f3f
    e90a:	3f3f3f3f 3f3f3f3f 	.insn	8, 0x3f3f3f3f3f3f3f3f
    e912:	3f3f3f3f 3f3f3f3f 	.insn	8, 0x3f3f3f3f3f3f3f3f
    e91a:	3f3f3f3f 3f3f3f3f 	.insn	8, 0x3f3f3f3f3f3f3f3f
    e922:	3f3f3f3f 3f3f3f3f 	.insn	8, 0x3f3f3f3f3f3f3f3f
    e92a:	3f3f3f3f 3f3f3f3f 	.insn	8, 0x3f3f3f3f3f3f3f3f
    e932:	3f3f3f3f 3f3f3f3f 	.insn	8, 0x3f3f3f3f3f3f3f3f
    e93a:	3f3f3f3f 3f3f3f3f 	.insn	8, 0x3f3f3f3f3f3f3f3f
    e942:	3f3f3f3f 3f3f3f3f 	.insn	8, 0x3f3f3f3f3f3f3f3f
    e94a:	3f3f3f3f 3f3f3f3f 	.insn	8, 0x3f3f3f3f3f3f3f3f
    e952:	3f3f3f3f 3f3f3f3f 	.insn	8, 0x3f3f3f3f3f3f3f3f
    e95a:	3f3f3f3f 3f3f3f3f 	.insn	8, 0x3f3f3f3f3f3f3f3f
    e962:	3f3f3f3f 3f3f3f3f 	.insn	8, 0x3f3f3f3f3f3f3f3f
    e96a:	3f3f3f3f 3f3f3f3f 	.insn	8, 0x3f3f3f3f3f3f3f3f
    e972:	3f3f3f3f 3f3f3f3f 	.insn	8, 0x3f3f3f3f3f3f3f3f
    e97a:	3f3f3f3f 3f3f3f3f 	.insn	8, 0x3f3f3f3f3f3f3f3f
    e982:	3f3f3f3f 3f3f3f3f 	.insn	8, 0x3f3f3f3f3f3f3f3f
    e98a:	3f3f3f3f 3f3f3f3f 	.insn	8, 0x3f3f3f3f3f3f3f3f
    e992:	3f3f3f3f 3f3f3f3f 	.insn	8, 0x3f3f3f3f3f3f3f3f
    e99a:	3f3f3f3f 3f3f3f3f 	.insn	8, 0x3f3f3f3f3f3f3f3f
    e9a2:	3f3f3f3f 3f3f3f3f 	.insn	8, 0x3f3f3f3f3f3f3f3f
    e9aa:	3f3f3f3f 3f3f3f3f 	.insn	8, 0x3f3f3f3f3f3f3f3f
    e9b2:	3f3f3f3f 3f3f3f3f 	.insn	8, 0x3f3f3f3f3f3f3f3f
    e9ba:	3f3f3f3f 3f3f3f3f 	.insn	8, 0x3f3f3f3f3f3f3f3f
    e9c2:	3f3f3f3f 3f3f3f3f 	.insn	8, 0x3f3f3f3f3f3f3f3f
    e9ca:	3f3f3f3f 3f3f3f3f 	.insn	8, 0x3f3f3f3f3f3f3f3f
    e9d2:	3f3f3f3f 3f3f3f3f 	.insn	8, 0x3f3f3f3f3f3f3f3f
    e9da:	3f3f3f3f 3f3f3f3f 	.insn	8, 0x3f3f3f3f3f3f3f3f
    e9e2:	3f3f3f3f 3f3f3f3f 	.insn	8, 0x3f3f3f3f3f3f3f3f
    e9ea:	3f3f3f3f 3f3f3f3f 	.insn	8, 0x3f3f3f3f3f3f3f3f
    e9f2:	3f3f3f3f 3f3f3f3f 	.insn	8, 0x3f3f3f3f3f3f3f3f
    e9fa:	3f3f3f3f 3f3f3f3f 	.insn	8, 0x3f3f3f3f3f3f3f3f
    ea02:	3f3f3f3f 3f3f3f3f 	.insn	8, 0x3f3f3f3f3f3f3f3f
    ea0a:	3f3f3f3f 3f3f3f3f 	.insn	8, 0x3f3f3f3f3f3f3f3f
    ea12:	3f3f3f3f 3f3f3f3f 	.insn	8, 0x3f3f3f3f3f3f3f3f
    ea1a:	3f3f3f3f 3f3f3f3f 	.insn	8, 0x3f3f3f3f3f3f3f3f
    ea22:	3f3f3f3f 3f3f3f3f 	.insn	8, 0x3f3f3f3f3f3f3f3f
    ea2a:	3f3f3f3f 3f3f3f3f 	.insn	8, 0x3f3f3f3f3f3f3f3f
    ea32:	3f3f3f3f 3f3f3f3f 	.insn	8, 0x3f3f3f3f3f3f3f3f
    ea3a:	3f3f3f3f 3f3f3f3f 	.insn	8, 0x3f3f3f3f3f3f3f3f
    ea42:	3f3f3f3f 3f3f3f3f 	.insn	8, 0x3f3f3f3f3f3f3f3f
    ea4a:	3f3f3f3f 3f3f3f3f 	.insn	8, 0x3f3f3f3f3f3f3f3f
    ea52:	3f3f3f3f 3f3f3f3f 	.insn	8, 0x3f3f3f3f3f3f3f3f
    ea5a:	3f3f3f3f 3f3f3f3f 	.insn	8, 0x3f3f3f3f3f3f3f3f
    ea62:	3f3f3f3f 3f3f3f3f 	.insn	8, 0x3f3f3f3f3f3f3f3f
    ea6a:	3f3f3f3f 3f3f3f3f 	.insn	8, 0x3f3f3f3f3f3f3f3f
    ea72:	3f3f3f3f 3f3f3f3f 	.insn	8, 0x3f3f3f3f3f3f3f3f
    ea7a:	3f3f3f3f 3f3f3f3f 	.insn	8, 0x3f3f3f3f3f3f3f3f
    ea82:	3f3f3f3f 3f3f3f3f 	.insn	8, 0x3f3f3f3f3f3f3f3f
    ea8a:	3f3f3f3f 3f3f3f3f 	.insn	8, 0x3f3f3f3f3f3f3f3f
    ea92:	3f3f3f3f 3f3f3f3f 	.insn	8, 0x3f3f3f3f3f3f3f3f
    ea9a:	3f3f3f3f 3f3f3f3f 	.insn	8, 0x3f3f3f3f3f3f3f3f
    eaa2:	3f3f3f3f 3f3f3f3f 	.insn	8, 0x3f3f3f3f3f3f3f3f
    eaaa:	3f3f3f3f 3f3f3f3f 	.insn	8, 0x3f3f3f3f3f3f3f3f
    eab2:	3f3f3f3f 3f3f3f3f 	.insn	8, 0x3f3f3f3f3f3f3f3f
    eaba:	3f3f3f3f 3f3f3f3f 	.insn	8, 0x3f3f3f3f3f3f3f3f
    eac2:	3f3f3f3f 3f3f3f3f 	.insn	8, 0x3f3f3f3f3f3f3f3f
    eaca:	3f3f3f3f 3f3f3f3f 	.insn	8, 0x3f3f3f3f3f3f3f3f
    ead2:	3f3f3f3f 3f3f3f3f 	.insn	8, 0x3f3f3f3f3f3f3f3f
    eada:	3f3f3f3f 3f3f3f3f 	.insn	8, 0x3f3f3f3f3f3f3f3f
    eae2:	3f3f3f3f 3f3f3f3f 	.insn	8, 0x3f3f3f3f3f3f3f3f
    eaea:	3f3f3f3f 3f3f3f3f 	.insn	8, 0x3f3f3f3f3f3f3f3f
    eaf2:	3f3f3f3f 3f3f3f3f 	.insn	8, 0x3f3f3f3f3f3f3f3f
    eafa:	3f3f3f3f 3f3f3f3f 	.insn	8, 0x3f3f3f3f3f3f3f3f
    eb02:	3f3f3f3f 3f3f3f3f 	.insn	8, 0x3f3f3f3f3f3f3f3f
    eb0a:	3f3f3f3f 3f3f3f3f 	.insn	8, 0x3f3f3f3f3f3f3f3f
    eb12:	3f3f3f3f 3f3f3f3f 	.insn	8, 0x3f3f3f3f3f3f3f3f
    eb1a:	3f3f3f3f 3f3f3f3f 	.insn	8, 0x3f3f3f3f3f3f3f3f
    eb22:	3f3f3f3f 3f3f3f3f 	.insn	8, 0x3f3f3f3f3f3f3f3f
    eb2a:	3f3f3f3f 3f3f3f3f 	.insn	8, 0x3f3f3f3f3f3f3f3f
    eb32:	3f3f3f3f 3f3f3f3f 	.insn	8, 0x3f3f3f3f3f3f3f3f
    eb3a:	3f3f3f3f 3f3f3f3f 	.insn	8, 0x3f3f3f3f3f3f3f3f
    eb42:	3f3f3f3f 3f3f3f3f 	.insn	8, 0x3f3f3f3f3f3f3f3f
    eb4a:	3f3f3f3f 3f3f3f3f 	.insn	8, 0x3f3f3f3f3f3f3f3f
    eb52:	3f3f3f3f 3f3f3f3f 	.insn	8, 0x3f3f3f3f3f3f3f3f
    eb5a:	3f3f3f3f 3f3f3f3f 	.insn	8, 0x3f3f3f3f3f3f3f3f
    eb62:	3f3f3f3f 3f3f3f3f 	.insn	8, 0x3f3f3f3f3f3f3f3f
    eb6a:	3f3f3f3f 3f3f3f3f 	.insn	8, 0x3f3f3f3f3f3f3f3f
    eb72:	3f3f3f3f 3f3f3f3f 	.insn	8, 0x3f3f3f3f3f3f3f3f
    eb7a:	3f3f3f3f 3f3f3f3f 	.insn	8, 0x3f3f3f3f3f3f3f3f
    eb82:	3f3f3f3f 3f3f3f3f 	.insn	8, 0x3f3f3f3f3f3f3f3f
    eb8a:	3f3f3f3f 3f3f3f3f 	.insn	8, 0x3f3f3f3f3f3f3f3f
    eb92:	3f3f3f3f 3f3f3f3f 	.insn	8, 0x3f3f3f3f3f3f3f3f
    eb9a:	3f3f3f3f 3f3f3f3f 	.insn	8, 0x3f3f3f3f3f3f3f3f
    eba2:	3f3f3f3f 3f3f3f3f 	.insn	8, 0x3f3f3f3f3f3f3f3f
    ebaa:	3f3f3f3f 3f3f3f3f 	.insn	8, 0x3f3f3f3f3f3f3f3f
    ebb2:	3f3f3f3f 3f3f3f3f 	.insn	8, 0x3f3f3f3f3f3f3f3f
    ebba:	3f3f3f3f 3f3f3f3f 	.insn	8, 0x3f3f3f3f3f3f3f3f
    ebc2:	3f3f3f3f 3f3f3f3f 	.insn	8, 0x3f3f3f3f3f3f3f3f
    ebca:	3f3f3f3f 3f3f3f3f 	.insn	8, 0x3f3f3f3f3f3f3f3f
    ebd2:	3f3f3f3f 3f3f3f3f 	.insn	8, 0x3f3f3f3f3f3f3f3f
    ebda:	3f3f3f3f 3f3f3f3f 	.insn	8, 0x3f3f3f3f3f3f3f3f
    ebe2:	3f3f3f3f 3f3f3f3f 	.insn	8, 0x3f3f3f3f3f3f3f3f
    ebea:	3f3f3f3f 3f3f3f3f 	.insn	8, 0x3f3f3f3f3f3f3f3f
    ebf2:	3f3f3f3f 3f3f3f3f 	.insn	8, 0x3f3f3f3f3f3f3f3f
    ebfa:	3f3f3f3f 3f3f3f3f 	.insn	8, 0x3f3f3f3f3f3f3f3f
    ec02:	3f3f3f3f 3f3f3f3f 	.insn	8, 0x3f3f3f3f3f3f3f3f
    ec0a:	3f3f3f3f 3f3f3f3f 	.insn	8, 0x3f3f3f3f3f3f3f3f
    ec12:	3f3f3f3f 3f3f3f3f 	.insn	8, 0x3f3f3f3f3f3f3f3f
    ec1a:	3f3f3f3f 3f3f3f3f 	.insn	8, 0x3f3f3f3f3f3f3f3f
    ec22:	3f3f3f3f 3f3f3f3f 	.insn	8, 0x3f3f3f3f3f3f3f3f
    ec2a:	3f3f3f3f 3f3f3f3f 	.insn	8, 0x3f3f3f3f3f3f3f3f
    ec32:	3f3f3f3f 3f3f3f3f 	.insn	8, 0x3f3f3f3f3f3f3f3f
    ec3a:	3f3f3f3f 3f3f3f3f 	.insn	8, 0x3f3f3f3f3f3f3f3f
    ec42:	3f3f3f3f 3f3f3f3f 	.insn	8, 0x3f3f3f3f3f3f3f3f
    ec4a:	3f3f3f3f 3f3f3f3f 	.insn	8, 0x3f3f3f3f3f3f3f3f
    ec52:	3f3f3f3f 3f3f3f3f 	.insn	8, 0x3f3f3f3f3f3f3f3f
    ec5a:	3f3f3f3f 3f3f3f3f 	.insn	8, 0x3f3f3f3f3f3f3f3f
    ec62:	3f3f3f3f 3f3f3f3f 	.insn	8, 0x3f3f3f3f3f3f3f3f
    ec6a:	3f3f3f3f 3f3f3f3f 	.insn	8, 0x3f3f3f3f3f3f3f3f
    ec72:	3f3f3f3f 3f3f3f3f 	.insn	8, 0x3f3f3f3f3f3f3f3f
    ec7a:	3f3f3f3f 3f3f3f3f 	.insn	8, 0x3f3f3f3f3f3f3f3f
    ec82:	3f3f3f3f 3f3f3f3f 	.insn	8, 0x3f3f3f3f3f3f3f3f
    ec8a:	3f3f3f3f 3f3f3f3f 	.insn	8, 0x3f3f3f3f3f3f3f3f
    ec92:	3f3f3f3f 3f3f3f3f 	.insn	8, 0x3f3f3f3f3f3f3f3f
    ec9a:	3f3f3f3f 3f3f3f3f 	.insn	8, 0x3f3f3f3f3f3f3f3f
    eca2:	3f3f3f3f 3f3f3f3f 	.insn	8, 0x3f3f3f3f3f3f3f3f
    ecaa:	3f3f3f3f 3f3f3f3f 	.insn	8, 0x3f3f3f3f3f3f3f3f
    ecb2:	3f3f3f3f 3f3f3f3f 	.insn	8, 0x3f3f3f3f3f3f3f3f
    ecba:	3f3f3f3f 3f3f3f3f 	.insn	8, 0x3f3f3f3f3f3f3f3f
    ecc2:	3f3f3f3f 3f3f3f3f 	.insn	8, 0x3f3f3f3f3f3f3f3f
    ecca:	3f3f3f3f 3f3f3f3f 	.insn	8, 0x3f3f3f3f3f3f3f3f
    ecd2:	3f3f3f3f 3f3f3f3f 	.insn	8, 0x3f3f3f3f3f3f3f3f
    ecda:	3f3f3f3f 3f3f3f3f 	.insn	8, 0x3f3f3f3f3f3f3f3f
    ece2:	3f3f3f3f 3f3f3f3f 	.insn	8, 0x3f3f3f3f3f3f3f3f
    ecea:	3f3f3f3f 3f3f3f3f 	.insn	8, 0x3f3f3f3f3f3f3f3f
    ecf2:	3f3f3f3f 3f3f3f3f 	.insn	8, 0x3f3f3f3f3f3f3f3f
    ecfa:	3f3f3f3f 3f3f3f3f 	.insn	8, 0x3f3f3f3f3f3f3f3f
    ed02:	3f3f3f3f 3f3f3f3f 	.insn	8, 0x3f3f3f3f3f3f3f3f
    ed0a:	3f3f3f3f 3f3f3f3f 	.insn	8, 0x3f3f3f3f3f3f3f3f
    ed12:	3f3f3f3f 3f3f3f3f 	.insn	8, 0x3f3f3f3f3f3f3f3f
    ed1a:	3f3f3f3f 3f3f3f3f 	.insn	8, 0x3f3f3f3f3f3f3f3f
    ed22:	3f3f3f3f 3f3f3f3f 	.insn	8, 0x3f3f3f3f3f3f3f3f
    ed2a:	3f3f3f3f 3f3f3f3f 	.insn	8, 0x3f3f3f3f3f3f3f3f
    ed32:	3f3f3f3f 3f3f3f3f 	.insn	8, 0x3f3f3f3f3f3f3f3f
    ed3a:	3f3f3f3f 3f3f3f3f 	.insn	8, 0x3f3f3f3f3f3f3f3f
    ed42:	3f3f3f3f 3f3f3f3f 	.insn	8, 0x3f3f3f3f3f3f3f3f
    ed4a:	3f3f3f3f 3f3f3f3f 	.insn	8, 0x3f3f3f3f3f3f3f3f
    ed52:	3f3f3f3f 3f3f3f3f 	.insn	8, 0x3f3f3f3f3f3f3f3f
    ed5a:	3f3f3f3f 3f3f3f3f 	.insn	8, 0x3f3f3f3f3f3f3f3f
    ed62:	3f3f3f3f 3f3f3f3f 	.insn	8, 0x3f3f3f3f3f3f3f3f
    ed6a:	3f3f3f3f 3f3f3f3f 	.insn	8, 0x3f3f3f3f3f3f3f3f
    ed72:	3f3f3f3f 3f3f3f3f 	.insn	8, 0x3f3f3f3f3f3f3f3f
    ed7a:	3f3f3f3f 3f3f3f3f 	.insn	8, 0x3f3f3f3f3f3f3f3f
    ed82:	3f3f3f3f 3f3f3f3f 	.insn	8, 0x3f3f3f3f3f3f3f3f
    ed8a:	3f3f3f3f 3f3f3f3f 	.insn	8, 0x3f3f3f3f3f3f3f3f
    ed92:	3f3f3f3f 3f3f3f3f 	.insn	8, 0x3f3f3f3f3f3f3f3f
    ed9a:	3f3f3f3f 3f3f3f3f 	.insn	8, 0x3f3f3f3f3f3f3f3f
    eda2:	3f3f3f3f 3f3f3f3f 	.insn	8, 0x3f3f3f3f3f3f3f3f
    edaa:	3f3f3f3f 3f3f3f3f 	.insn	8, 0x3f3f3f3f3f3f3f3f
    edb2:	3f3f3f3f 3f3f3f3f 	.insn	8, 0x3f3f3f3f3f3f3f3f
    edba:	3f3f3f3f 3f3f3f3f 	.insn	8, 0x3f3f3f3f3f3f3f3f
    edc2:	3f3f3f3f 3f3f3f3f 	.insn	8, 0x3f3f3f3f3f3f3f3f
    edca:	3f3f3f3f 3f3f3f3f 	.insn	8, 0x3f3f3f3f3f3f3f3f
    edd2:	3f3f3f3f 3f3f3f3f 	.insn	8, 0x3f3f3f3f3f3f3f3f
    edda:	3f3f3f3f 3f3f3f3f 	.insn	8, 0x3f3f3f3f3f3f3f3f
    ede2:	3f3f3f3f 3f3f3f3f 	.insn	8, 0x3f3f3f3f3f3f3f3f
    edea:	3f3f3f3f 3f3f3f3f 	.insn	8, 0x3f3f3f3f3f3f3f3f
    edf2:	3f3f3f3f 3f3f3f3f 	.insn	8, 0x3f3f3f3f3f3f3f3f
    edfa:	3f3f3f3f 3f3f3f3f 	.insn	8, 0x3f3f3f3f3f3f3f3f
    ee02:	3f3f3f3f 3f3f3f3f 	.insn	8, 0x3f3f3f3f3f3f3f3f
    ee0a:	3f3f3f3f 3f3f3f3f 	.insn	8, 0x3f3f3f3f3f3f3f3f
    ee12:	3f3f3f3f 3f3f3f3f 	.insn	8, 0x3f3f3f3f3f3f3f3f
    ee1a:	3f3f3f3f 3f3f3f3f 	.insn	8, 0x3f3f3f3f3f3f3f3f
    ee22:	3f3f3f3f 3f3f3f3f 	.insn	8, 0x3f3f3f3f3f3f3f3f
    ee2a:	3f3f3f3f 3f3f3f3f 	.insn	8, 0x3f3f3f3f3f3f3f3f
    ee32:	3f3f3f3f 3f3f3f3f 	.insn	8, 0x3f3f3f3f3f3f3f3f
    ee3a:	3f3f3f3f 3f3f3f3f 	.insn	8, 0x3f3f3f3f3f3f3f3f
    ee42:	3f3f3f3f 3f3f3f3f 	.insn	8, 0x3f3f3f3f3f3f3f3f
    ee4a:	3f3f3f3f 3f3f3f3f 	.insn	8, 0x3f3f3f3f3f3f3f3f
    ee52:	3f3f3f3f 3f3f3f3f 	.insn	8, 0x3f3f3f3f3f3f3f3f
    ee5a:	3f3f3f3f 3f3f3f3f 	.insn	8, 0x3f3f3f3f3f3f3f3f
    ee62:	3f3f3f3f 3f3f3f3f 	.insn	8, 0x3f3f3f3f3f3f3f3f
    ee6a:	3f3f3f3f 3f3f3f3f 	.insn	8, 0x3f3f3f3f3f3f3f3f
    ee72:	3f3f3f3f 3f3f3f3f 	.insn	8, 0x3f3f3f3f3f3f3f3f
    ee7a:	3f3f3f3f 3f3f3f3f 	.insn	8, 0x3f3f3f3f3f3f3f3f
    ee82:	3f3f3f3f 3f3f3f3f 	.insn	8, 0x3f3f3f3f3f3f3f3f
    ee8a:	3f3f3f3f 3f3f3f3f 	.insn	8, 0x3f3f3f3f3f3f3f3f
    ee92:	3f3f3f3f 3f3f3f3f 	.insn	8, 0x3f3f3f3f3f3f3f3f
    ee9a:	3f3f3f3f 3f3f3f3f 	.insn	8, 0x3f3f3f3f3f3f3f3f
    eea2:	3f3f3f3f 3f3f3f3f 	.insn	8, 0x3f3f3f3f3f3f3f3f
    eeaa:	3f3f3f3f 3f3f3f3f 	.insn	8, 0x3f3f3f3f3f3f3f3f
    eeb2:	3f3f3f3f 3f3f3f3f 	.insn	8, 0x3f3f3f3f3f3f3f3f
    eeba:	3f3f3f3f 3f3f3f3f 	.insn	8, 0x3f3f3f3f3f3f3f3f
    eec2:	3f3f3f3f 3f3f3f3f 	.insn	8, 0x3f3f3f3f3f3f3f3f
    eeca:	3f3f3f3f 3f3f3f3f 	.insn	8, 0x3f3f3f3f3f3f3f3f
    eed2:	3f3f3f3f 3f3f3f3f 	.insn	8, 0x3f3f3f3f3f3f3f3f
    eeda:	3f3f3f3f 3f3f3f3f 	.insn	8, 0x3f3f3f3f3f3f3f3f
    eee2:	3f3f3f3f 3f3f3f3f 	.insn	8, 0x3f3f3f3f3f3f3f3f
    eeea:	3f3f3f3f 3f3f3f3f 	.insn	8, 0x3f3f3f3f3f3f3f3f
    eef2:	3f3f3f3f 3f3f3f3f 	.insn	8, 0x3f3f3f3f3f3f3f3f
    eefa:	3f3f3f3f 3f3f3f3f 	.insn	8, 0x3f3f3f3f3f3f3f3f
    ef02:	3f3f3f3f 3f3f3f3f 	.insn	8, 0x3f3f3f3f3f3f3f3f
    ef0a:	3f3f3f3f 3f3f3f3f 	.insn	8, 0x3f3f3f3f3f3f3f3f
    ef12:	3f3f3f3f 3f3f3f3f 	.insn	8, 0x3f3f3f3f3f3f3f3f
    ef1a:	3f3f3f3f 3f3f3f3f 	.insn	8, 0x3f3f3f3f3f3f3f3f
    ef22:	3f3f3f3f 3f3f3f3f 	.insn	8, 0x3f3f3f3f3f3f3f3f
    ef2a:	3f3f3f3f 3f3f3f3f 	.insn	8, 0x3f3f3f3f3f3f3f3f
    ef32:	3f3f3f3f 3f3f3f3f 	.insn	8, 0x3f3f3f3f3f3f3f3f
    ef3a:	3f3f3f3f 3f3f3f3f 	.insn	8, 0x3f3f3f3f3f3f3f3f
    ef42:	3f3f3f3f 3f3f3f3f 	.insn	8, 0x3f3f3f3f3f3f3f3f
    ef4a:	3f3f3f3f 3f3f3f3f 	.insn	8, 0x3f3f3f3f3f3f3f3f
    ef52:	3f3f3f3f 3f3f3f3f 	.insn	8, 0x3f3f3f3f3f3f3f3f
    ef5a:	3f3f3f3f 3f3f3f3f 	.insn	8, 0x3f3f3f3f3f3f3f3f
    ef62:	3f3f3f3f 3f3f3f3f 	.insn	8, 0x3f3f3f3f3f3f3f3f
    ef6a:	3f3f3f3f 3f3f3f3f 	.insn	8, 0x3f3f3f3f3f3f3f3f
    ef72:	3f3f3f3f 3f3f3f3f 	.insn	8, 0x3f3f3f3f3f3f3f3f
    ef7a:	3f3f3f3f 3f3f3f3f 	.insn	8, 0x3f3f3f3f3f3f3f3f
    ef82:	3f3f3f3f 3f3f3f3f 	.insn	8, 0x3f3f3f3f3f3f3f3f
    ef8a:	3f3f3f3f 3f3f3f3f 	.insn	8, 0x3f3f3f3f3f3f3f3f
    ef92:	3f3f3f3f 3f3f3f3f 	.insn	8, 0x3f3f3f3f3f3f3f3f
    ef9a:	3f3f3f3f 3f3f3f3f 	.insn	8, 0x3f3f3f3f3f3f3f3f
    efa2:	3f3f3f3f 3f3f3f3f 	.insn	8, 0x3f3f3f3f3f3f3f3f
    efaa:	3f3f3f3f 3f3f3f3f 	.insn	8, 0x3f3f3f3f3f3f3f3f
    efb2:	3f3f3f3f 3f3f3f3f 	.insn	8, 0x3f3f3f3f3f3f3f3f
    efba:	3f3f3f3f 3f3f3f3f 	.insn	8, 0x3f3f3f3f3f3f3f3f
    efc2:	3f3f3f3f 3f3f3f3f 	.insn	8, 0x3f3f3f3f3f3f3f3f
    efca:	3f3f3f3f 3f3f3f3f 	.insn	8, 0x3f3f3f3f3f3f3f3f
    efd2:	3f3f3f3f 3f3f3f3f 	.insn	8, 0x3f3f3f3f3f3f3f3f
    efda:	3f3f3f3f 3f3f3f3f 	.insn	8, 0x3f3f3f3f3f3f3f3f
    efe2:	3f3f3f3f 3f3f3f3f 	.insn	8, 0x3f3f3f3f3f3f3f3f
    efea:	3f3f3f3f 3f3f3f3f 	.insn	8, 0x3f3f3f3f3f3f3f3f
    eff2:	3f3f3f3f 3f3f3f3f 	.insn	8, 0x3f3f3f3f3f3f3f3f
    effa:	3f3f3f3f 3f3f3f3f 	.insn	8, 0x3f3f3f3f3f3f3f3f
    f002:	3f3f3f3f 3f3f3f3f 	.insn	8, 0x3f3f3f3f3f3f3f3f
    f00a:	3f3f3f3f 3f3f3f3f 	.insn	8, 0x3f3f3f3f3f3f3f3f
    f012:	3f3f3f3f 3f3f3f3f 	.insn	8, 0x3f3f3f3f3f3f3f3f
    f01a:	3f3f3f3f 3f3f3f3f 	.insn	8, 0x3f3f3f3f3f3f3f3f
    f022:	3f3f3f3f 3f3f3f3f 	.insn	8, 0x3f3f3f3f3f3f3f3f
    f02a:	3f3f3f3f 3f3f3f3f 	.insn	8, 0x3f3f3f3f3f3f3f3f
    f032:	3f3f3f3f 3f3f3f3f 	.insn	8, 0x3f3f3f3f3f3f3f3f
    f03a:	3f3f3f3f 3f3f3f3f 	.insn	8, 0x3f3f3f3f3f3f3f3f
    f042:	3f3f3f3f 3f3f3f3f 	.insn	8, 0x3f3f3f3f3f3f3f3f
    f04a:	3f3f3f3f 3f3f3f3f 	.insn	8, 0x3f3f3f3f3f3f3f3f
    f052:	3f3f3f3f 3f3f3f3f 	.insn	8, 0x3f3f3f3f3f3f3f3f
    f05a:	3f3f3f3f 3f3f3f3f 	.insn	8, 0x3f3f3f3f3f3f3f3f
    f062:	3f3f3f3f 3f3f3f3f 	.insn	8, 0x3f3f3f3f3f3f3f3f
    f06a:	3f3f3f3f 3f3f3f3f 	.insn	8, 0x3f3f3f3f3f3f3f3f
    f072:	3f3f3f3f 3f3f3f3f 	.insn	8, 0x3f3f3f3f3f3f3f3f
    f07a:	3f3f3f3f 3f3f3f3f 	.insn	8, 0x3f3f3f3f3f3f3f3f
    f082:	3f3f3f3f 3f3f3f3f 	.insn	8, 0x3f3f3f3f3f3f3f3f
    f08a:	3f3f3f3f 3f3f3f3f 	.insn	8, 0x3f3f3f3f3f3f3f3f
    f092:	3f3f3f3f 3f3f3f3f 	.insn	8, 0x3f3f3f3f3f3f3f3f
    f09a:	3f3f3f3f 3f3f3f3f 	.insn	8, 0x3f3f3f3f3f3f3f3f
    f0a2:	3f3f3f3f 3f3f3f3f 	.insn	8, 0x3f3f3f3f3f3f3f3f
    f0aa:	3f3f3f3f 3f3f3f3f 	.insn	8, 0x3f3f3f3f3f3f3f3f
    f0b2:	3f3f3f3f 3f3f3f3f 	.insn	8, 0x3f3f3f3f3f3f3f3f
    f0ba:	3f3f3f3f 3f3f3f3f 	.insn	8, 0x3f3f3f3f3f3f3f3f
    f0c2:	3f3f3f3f 3f3f3f3f 	.insn	8, 0x3f3f3f3f3f3f3f3f
    f0ca:	3f3f3f3f 3f3f3f3f 	.insn	8, 0x3f3f3f3f3f3f3f3f
    f0d2:	3f3f3f3f 3f3f3f3f 	.insn	8, 0x3f3f3f3f3f3f3f3f
    f0da:	3f3f3f3f 3f3f3f3f 	.insn	8, 0x3f3f3f3f3f3f3f3f
    f0e2:	3f3f3f3f 3f3f3f3f 	.insn	8, 0x3f3f3f3f3f3f3f3f
    f0ea:	3f3f3f3f 3f3f3f3f 	.insn	8, 0x3f3f3f3f3f3f3f3f
    f0f2:	3f3f3f3f 3f3f3f3f 	.insn	8, 0x3f3f3f3f3f3f3f3f
    f0fa:	3f3f3f3f 3f3f3f3f 	.insn	8, 0x3f3f3f3f3f3f3f3f
    f102:	3f3f3f3f 3f3f3f3f 	.insn	8, 0x3f3f3f3f3f3f3f3f
    f10a:	3f3f3f3f 3f3f3f3f 	.insn	8, 0x3f3f3f3f3f3f3f3f
    f112:	3f3f3f3f 3f3f3f3f 	.insn	8, 0x3f3f3f3f3f3f3f3f
    f11a:	3f3f3f3f 3f3f3f3f 	.insn	8, 0x3f3f3f3f3f3f3f3f
    f122:	3f3f3f3f 3f3f3f3f 	.insn	8, 0x3f3f3f3f3f3f3f3f
    f12a:	3f3f3f3f 3f3f3f3f 	.insn	8, 0x3f3f3f3f3f3f3f3f
    f132:	3f3f3f3f 3f3f3f3f 	.insn	8, 0x3f3f3f3f3f3f3f3f
    f13a:	3f3f3f3f 3f3f3f3f 	.insn	8, 0x3f3f3f3f3f3f3f3f
    f142:	3f3f3f3f 3f3f3f3f 	.insn	8, 0x3f3f3f3f3f3f3f3f
    f14a:	3f3f3f3f 3f3f3f3f 	.insn	8, 0x3f3f3f3f3f3f3f3f
    f152:	3f3f3f3f 3f3f3f3f 	.insn	8, 0x3f3f3f3f3f3f3f3f
    f15a:	3f3f3f3f 3f3f3f3f 	.insn	8, 0x3f3f3f3f3f3f3f3f
    f162:	3f3f3f3f 3f3f3f3f 	.insn	8, 0x3f3f3f3f3f3f3f3f
    f16a:	3f3f3f3f 3f3f3f3f 	.insn	8, 0x3f3f3f3f3f3f3f3f
    f172:	3f3f3f3f 3f3f3f3f 	.insn	8, 0x3f3f3f3f3f3f3f3f
    f17a:	3f3f3f3f 3f3f3f3f 	.insn	8, 0x3f3f3f3f3f3f3f3f
    f182:	3f3f3f3f 3f3f3f3f 	.insn	8, 0x3f3f3f3f3f3f3f3f
    f18a:	3f3f3f3f 3f3f3f3f 	.insn	8, 0x3f3f3f3f3f3f3f3f
    f192:	3f3f3f3f 3f3f3f3f 	.insn	8, 0x3f3f3f3f3f3f3f3f
    f19a:	3f3f3f3f 3f3f3f3f 	.insn	8, 0x3f3f3f3f3f3f3f3f
    f1a2:	3f3f3f3f 3f3f3f3f 	.insn	8, 0x3f3f3f3f3f3f3f3f
    f1aa:	3f3f3f3f 3f3f3f3f 	.insn	8, 0x3f3f3f3f3f3f3f3f
    f1b2:	3f3f3f3f 3f3f3f3f 	.insn	8, 0x3f3f3f3f3f3f3f3f
    f1ba:	3f3f3f3f 3f3f3f3f 	.insn	8, 0x3f3f3f3f3f3f3f3f
    f1c2:	3f3f3f3f 3f3f3f3f 	.insn	8, 0x3f3f3f3f3f3f3f3f
    f1ca:	3f3f3f3f 3f3f3f3f 	.insn	8, 0x3f3f3f3f3f3f3f3f
    f1d2:	3f3f3f3f 3f3f3f3f 	.insn	8, 0x3f3f3f3f3f3f3f3f
    f1da:	3f3f3f3f 3f3f3f3f 	.insn	8, 0x3f3f3f3f3f3f3f3f
    f1e2:	3f3f3f3f 3f3f3f3f 	.insn	8, 0x3f3f3f3f3f3f3f3f
    f1ea:	3f3f3f3f 3f3f3f3f 	.insn	8, 0x3f3f3f3f3f3f3f3f
    f1f2:	3f3f3f3f 3f3f3f3f 	.insn	8, 0x3f3f3f3f3f3f3f3f
    f1fa:	3f3f3f3f 3f3f3f3f 	.insn	8, 0x3f3f3f3f3f3f3f3f
    f202:	3f3f3f3f 3f3f3f3f 	.insn	8, 0x3f3f3f3f3f3f3f3f
    f20a:	3f3f3f3f 3f3f3f3f 	.insn	8, 0x3f3f3f3f3f3f3f3f
    f212:	3f3f3f3f 3f3f3f3f 	.insn	8, 0x3f3f3f3f3f3f3f3f
    f21a:	3f3f3f3f 3f3f3f3f 	.insn	8, 0x3f3f3f3f3f3f3f3f
    f222:	3f3f3f3f 3f3f3f3f 	.insn	8, 0x3f3f3f3f3f3f3f3f
    f22a:	3f3f3f3f 3f3f3f3f 	.insn	8, 0x3f3f3f3f3f3f3f3f
    f232:	3f3f3f3f 3f3f3f3f 	.insn	8, 0x3f3f3f3f3f3f3f3f
    f23a:	3f3f3f3f 3f3f3f3f 	.insn	8, 0x3f3f3f3f3f3f3f3f
    f242:	3f3f3f3f 3f3f3f3f 	.insn	8, 0x3f3f3f3f3f3f3f3f
    f24a:	3f3f3f3f 3f3f3f3f 	.insn	8, 0x3f3f3f3f3f3f3f3f
    f252:	3f3f3f3f 3f3f3f3f 	.insn	8, 0x3f3f3f3f3f3f3f3f
    f25a:	3f3f3f3f 3f3f3f3f 	.insn	8, 0x3f3f3f3f3f3f3f3f
    f262:	3f3f3f3f 3f3f3f3f 	.insn	8, 0x3f3f3f3f3f3f3f3f
    f26a:	3f3f3f3f 3f3f3f3f 	.insn	8, 0x3f3f3f3f3f3f3f3f
    f272:	3f3f3f3f 3f3f3f3f 	.insn	8, 0x3f3f3f3f3f3f3f3f
    f27a:	3f3f3f3f 3f3f3f3f 	.insn	8, 0x3f3f3f3f3f3f3f3f
    f282:	3f3f3f3f 3f3f3f3f 	.insn	8, 0x3f3f3f3f3f3f3f3f
    f28a:	3f3f3f3f 3f3f3f3f 	.insn	8, 0x3f3f3f3f3f3f3f3f
    f292:	3f3f3f3f 3f3f3f3f 	.insn	8, 0x3f3f3f3f3f3f3f3f
    f29a:	3f3f3f3f 3f3f3f3f 	.insn	8, 0x3f3f3f3f3f3f3f3f
    f2a2:	3f3f3f3f 3f3f3f3f 	.insn	8, 0x3f3f3f3f3f3f3f3f
    f2aa:	3f3f3f3f 3f3f3f3f 	.insn	8, 0x3f3f3f3f3f3f3f3f
    f2b2:	3f3f3f3f 3f3f3f3f 	.insn	8, 0x3f3f3f3f3f3f3f3f
    f2ba:	3f3f3f3f 3f3f3f3f 	.insn	8, 0x3f3f3f3f3f3f3f3f
    f2c2:	3f3f3f3f 3f3f3f3f 	.insn	8, 0x3f3f3f3f3f3f3f3f
    f2ca:	3f3f3f3f 3f3f3f3f 	.insn	8, 0x3f3f3f3f3f3f3f3f
    f2d2:	3f3f3f3f 3f3f3f3f 	.insn	8, 0x3f3f3f3f3f3f3f3f
    f2da:	3f3f3f3f 3f3f3f3f 	.insn	8, 0x3f3f3f3f3f3f3f3f
    f2e2:	3f3f3f3f 3f3f3f3f 	.insn	8, 0x3f3f3f3f3f3f3f3f
    f2ea:	3f3f3f3f 3f3f3f3f 	.insn	8, 0x3f3f3f3f3f3f3f3f
    f2f2:	3f3f3f3f 3f3f3f3f 	.insn	8, 0x3f3f3f3f3f3f3f3f
    f2fa:	3f3f3f3f 3f3f3f3f 	.insn	8, 0x3f3f3f3f3f3f3f3f
    f302:	3f3f3f3f 3f3f3f3f 	.insn	8, 0x3f3f3f3f3f3f3f3f
    f30a:	3f3f3f3f 3f3f3f3f 	.insn	8, 0x3f3f3f3f3f3f3f3f
    f312:	3f3f3f3f 3f3f3f3f 	.insn	8, 0x3f3f3f3f3f3f3f3f
    f31a:	3f3f3f3f 3f3f3f3f 	.insn	8, 0x3f3f3f3f3f3f3f3f
    f322:	3f3f3f3f 3f3f3f3f 	.insn	8, 0x3f3f3f3f3f3f3f3f
    f32a:	3f3f3f3f 3f3f3f3f 	.insn	8, 0x3f3f3f3f3f3f3f3f
    f332:	3f3f3f3f 3f3f3f3f 	.insn	8, 0x3f3f3f3f3f3f3f3f
    f33a:	3f3f3f3f 3f3f3f3f 	.insn	8, 0x3f3f3f3f3f3f3f3f
    f342:	3f3f3f3f 3f3f3f3f 	.insn	8, 0x3f3f3f3f3f3f3f3f
    f34a:	3f3f3f3f 3f3f3f3f 	.insn	8, 0x3f3f3f3f3f3f3f3f
    f352:	3f3f3f3f 3f3f3f3f 	.insn	8, 0x3f3f3f3f3f3f3f3f
    f35a:	3f3f3f3f 3f3f3f3f 	.insn	8, 0x3f3f3f3f3f3f3f3f
    f362:	3f3f3f3f 3f3f3f3f 	.insn	8, 0x3f3f3f3f3f3f3f3f
    f36a:	3f3f3f3f 3f3f3f3f 	.insn	8, 0x3f3f3f3f3f3f3f3f
    f372:	3f3f3f3f 3f3f3f3f 	.insn	8, 0x3f3f3f3f3f3f3f3f
    f37a:	3f3f3f3f 3f3f3f3f 	.insn	8, 0x3f3f3f3f3f3f3f3f
    f382:	3f3f3f3f 3f3f3f3f 	.insn	8, 0x3f3f3f3f3f3f3f3f
    f38a:	3f3f3f3f 3f3f3f3f 	.insn	8, 0x3f3f3f3f3f3f3f3f
    f392:	3f3f3f3f 3f3f3f3f 	.insn	8, 0x3f3f3f3f3f3f3f3f
    f39a:	3f3f3f3f 3f3f3f3f 	.insn	8, 0x3f3f3f3f3f3f3f3f
    f3a2:	3f3f3f3f 3f3f3f3f 	.insn	8, 0x3f3f3f3f3f3f3f3f
    f3aa:	3f3f3f3f 3f3f3f3f 	.insn	8, 0x3f3f3f3f3f3f3f3f
    f3b2:	3f3f3f3f 3f3f3f3f 	.insn	8, 0x3f3f3f3f3f3f3f3f
    f3ba:	3f3f3f3f 3f3f3f3f 	.insn	8, 0x3f3f3f3f3f3f3f3f
    f3c2:	3f3f3f3f 3f3f3f3f 	.insn	8, 0x3f3f3f3f3f3f3f3f
    f3ca:	3f3f3f3f 3f3f3f3f 	.insn	8, 0x3f3f3f3f3f3f3f3f
    f3d2:	3f3f3f3f 3f3f3f3f 	.insn	8, 0x3f3f3f3f3f3f3f3f
    f3da:	3f3f3f3f 3f3f3f3f 	.insn	8, 0x3f3f3f3f3f3f3f3f
    f3e2:	3f3f3f3f 3f3f3f3f 	.insn	8, 0x3f3f3f3f3f3f3f3f
    f3ea:	3f3f3f3f 3f3f3f3f 	.insn	8, 0x3f3f3f3f3f3f3f3f
    f3f2:	3f3f3f3f 3f3f3f3f 	.insn	8, 0x3f3f3f3f3f3f3f3f
    f3fa:	3f3f3f3f 3f3f3f3f 	.insn	8, 0x3f3f3f3f3f3f3f3f
    f402:	3f3f3f3f 3f3f3f3f 	.insn	8, 0x3f3f3f3f3f3f3f3f
    f40a:	3f3f3f3f 3f3f3f3f 	.insn	8, 0x3f3f3f3f3f3f3f3f
    f412:	3f3f3f3f 3f3f3f3f 	.insn	8, 0x3f3f3f3f3f3f3f3f
    f41a:	3f3f3f3f 3f3f3f3f 	.insn	8, 0x3f3f3f3f3f3f3f3f
    f422:	3f3f3f3f 3f3f3f3f 	.insn	8, 0x3f3f3f3f3f3f3f3f
    f42a:	3f3f3f3f 3f3f3f3f 	.insn	8, 0x3f3f3f3f3f3f3f3f
    f432:	3f3f3f3f 3f3f3f3f 	.insn	8, 0x3f3f3f3f3f3f3f3f
    f43a:	3f3f3f3f 3f3f3f3f 	.insn	8, 0x3f3f3f3f3f3f3f3f
    f442:	3f3f3f3f 3f3f3f3f 	.insn	8, 0x3f3f3f3f3f3f3f3f
    f44a:	3f3f3f3f 3f3f3f3f 	.insn	8, 0x3f3f3f3f3f3f3f3f
    f452:	3f3f3f3f 3f3f3f3f 	.insn	8, 0x3f3f3f3f3f3f3f3f
    f45a:	3f3f3f3f 3f3f3f3f 	.insn	8, 0x3f3f3f3f3f3f3f3f
    f462:	3f3f3f3f 3f3f3f3f 	.insn	8, 0x3f3f3f3f3f3f3f3f
    f46a:	3f3f3f3f 3f3f3f3f 	.insn	8, 0x3f3f3f3f3f3f3f3f
    f472:	3f3f3f3f 3f3f3f3f 	.insn	8, 0x3f3f3f3f3f3f3f3f
    f47a:	3f3f3f3f 3f3f3f3f 	.insn	8, 0x3f3f3f3f3f3f3f3f
    f482:	3f3f3f3f 3f3f3f3f 	.insn	8, 0x3f3f3f3f3f3f3f3f
    f48a:	3f3f3f3f 3f3f3f3f 	.insn	8, 0x3f3f3f3f3f3f3f3f
    f492:	3f3f3f3f 3f3f3f3f 	.insn	8, 0x3f3f3f3f3f3f3f3f
    f49a:	3f3f3f3f 3f3f3f3f 	.insn	8, 0x3f3f3f3f3f3f3f3f
    f4a2:	3f3f3f3f 3f3f3f3f 	.insn	8, 0x3f3f3f3f3f3f3f3f
    f4aa:	3f3f3f3f 3f3f3f3f 	.insn	8, 0x3f3f3f3f3f3f3f3f
    f4b2:	3f3f3f3f 3f3f3f3f 	.insn	8, 0x3f3f3f3f3f3f3f3f
    f4ba:	3f3f3f3f 3f3f3f3f 	.insn	8, 0x3f3f3f3f3f3f3f3f
    f4c2:	3f3f3f3f 3f3f3f3f 	.insn	8, 0x3f3f3f3f3f3f3f3f
    f4ca:	3f3f3f3f 3f3f3f3f 	.insn	8, 0x3f3f3f3f3f3f3f3f
    f4d2:	3f3f3f3f 3f3f3f3f 	.insn	8, 0x3f3f3f3f3f3f3f3f
    f4da:	3f3f3f3f 3f3f3f3f 	.insn	8, 0x3f3f3f3f3f3f3f3f
    f4e2:	3f3f3f3f 3f3f3f3f 	.insn	8, 0x3f3f3f3f3f3f3f3f
    f4ea:	3f3f3f3f 3f3f3f3f 	.insn	8, 0x3f3f3f3f3f3f3f3f
    f4f2:	3f3f3f3f 3f3f3f3f 	.insn	8, 0x3f3f3f3f3f3f3f3f
    f4fa:	3f3f3f3f 3f3f3f3f 	.insn	8, 0x3f3f3f3f3f3f3f3f
    f502:	3f3f3f3f 3f3f3f3f 	.insn	8, 0x3f3f3f3f3f3f3f3f
    f50a:	3f3f3f3f 3f3f3f3f 	.insn	8, 0x3f3f3f3f3f3f3f3f
    f512:	3f3f3f3f 3f3f3f3f 	.insn	8, 0x3f3f3f3f3f3f3f3f
    f51a:	3f3f3f3f 3f3f3f3f 	.insn	8, 0x3f3f3f3f3f3f3f3f
    f522:	3f3f3f3f 3f3f3f3f 	.insn	8, 0x3f3f3f3f3f3f3f3f
    f52a:	3f3f3f3f 3f3f3f3f 	.insn	8, 0x3f3f3f3f3f3f3f3f
    f532:	3f3f3f3f 3f3f3f3f 	.insn	8, 0x3f3f3f3f3f3f3f3f
    f53a:	3f3f3f3f 3f3f3f3f 	.insn	8, 0x3f3f3f3f3f3f3f3f
    f542:	3f3f3f3f 3f3f3f3f 	.insn	8, 0x3f3f3f3f3f3f3f3f
    f54a:	3f3f3f3f 3f3f3f3f 	.insn	8, 0x3f3f3f3f3f3f3f3f
    f552:	3f3f3f3f 3f3f3f3f 	.insn	8, 0x3f3f3f3f3f3f3f3f
    f55a:	3f3f3f3f 3f3f3f3f 	.insn	8, 0x3f3f3f3f3f3f3f3f
    f562:	3f3f3f3f 3f3f3f3f 	.insn	8, 0x3f3f3f3f3f3f3f3f
    f56a:	3f3f3f3f 3f3f3f3f 	.insn	8, 0x3f3f3f3f3f3f3f3f
    f572:	3f3f3f3f 3f3f3f3f 	.insn	8, 0x3f3f3f3f3f3f3f3f
    f57a:	3f3f3f3f 3f3f3f3f 	.insn	8, 0x3f3f3f3f3f3f3f3f
    f582:	3f3f3f3f 3f3f3f3f 	.insn	8, 0x3f3f3f3f3f3f3f3f
    f58a:	3f3f3f3f 3f3f3f3f 	.insn	8, 0x3f3f3f3f3f3f3f3f
    f592:	3f3f3f3f 3f3f3f3f 	.insn	8, 0x3f3f3f3f3f3f3f3f
    f59a:	3f3f3f3f 3f3f3f3f 	.insn	8, 0x3f3f3f3f3f3f3f3f
    f5a2:	3f3f3f3f 3f3f3f3f 	.insn	8, 0x3f3f3f3f3f3f3f3f
    f5aa:	3f3f3f3f 3f3f3f3f 	.insn	8, 0x3f3f3f3f3f3f3f3f
    f5b2:	3f3f3f3f 3f3f3f3f 	.insn	8, 0x3f3f3f3f3f3f3f3f
    f5ba:	3f3f3f3f 3f3f3f3f 	.insn	8, 0x3f3f3f3f3f3f3f3f
    f5c2:	3f3f3f3f 3f3f3f3f 	.insn	8, 0x3f3f3f3f3f3f3f3f
    f5ca:	3f3f3f3f 3f3f3f3f 	.insn	8, 0x3f3f3f3f3f3f3f3f
    f5d2:	3f3f3f3f 3f3f3f3f 	.insn	8, 0x3f3f3f3f3f3f3f3f
    f5da:	3f3f3f3f 3f3f3f3f 	.insn	8, 0x3f3f3f3f3f3f3f3f
    f5e2:	3f3f3f3f 3f3f3f3f 	.insn	8, 0x3f3f3f3f3f3f3f3f
    f5ea:	3f3f3f3f 3f3f3f3f 	.insn	8, 0x3f3f3f3f3f3f3f3f
    f5f2:	3f3f3f3f 3f3f3f3f 	.insn	8, 0x3f3f3f3f3f3f3f3f
    f5fa:	3f3f3f3f 3f3f3f3f 	.insn	8, 0x3f3f3f3f3f3f3f3f
    f602:	3f3f3f3f 3f3f3f3f 	.insn	8, 0x3f3f3f3f3f3f3f3f
    f60a:	3f3f3f3f 3f3f3f3f 	.insn	8, 0x3f3f3f3f3f3f3f3f
    f612:	3f3f3f3f 3f3f3f3f 	.insn	8, 0x3f3f3f3f3f3f3f3f
    f61a:	3f3f3f3f 3f3f3f3f 	.insn	8, 0x3f3f3f3f3f3f3f3f
    f622:	3f3f3f3f 3f3f3f3f 	.insn	8, 0x3f3f3f3f3f3f3f3f
    f62a:	3f3f3f3f 3f3f3f3f 	.insn	8, 0x3f3f3f3f3f3f3f3f
    f632:	3f3f3f3f 3f3f3f3f 	.insn	8, 0x3f3f3f3f3f3f3f3f
    f63a:	3f3f3f3f 3f3f3f3f 	.insn	8, 0x3f3f3f3f3f3f3f3f
    f642:	3f3f3f3f 3f3f3f3f 	.insn	8, 0x3f3f3f3f3f3f3f3f
    f64a:	3f3f3f3f 3f3f3f3f 	.insn	8, 0x3f3f3f3f3f3f3f3f
    f652:	3f3f3f3f 3f3f3f3f 	.insn	8, 0x3f3f3f3f3f3f3f3f
    f65a:	3f3f3f3f 3f3f3f3f 	.insn	8, 0x3f3f3f3f3f3f3f3f
    f662:	3f3f3f3f 3f3f3f3f 	.insn	8, 0x3f3f3f3f3f3f3f3f
    f66a:	3f3f3f3f 3f3f3f3f 	.insn	8, 0x3f3f3f3f3f3f3f3f
    f672:	3f3f3f3f 3f3f3f3f 	.insn	8, 0x3f3f3f3f3f3f3f3f
    f67a:	3f3f3f3f 3f3f3f3f 	.insn	8, 0x3f3f3f3f3f3f3f3f
    f682:	3f3f3f3f 3f3f3f3f 	.insn	8, 0x3f3f3f3f3f3f3f3f
    f68a:	3f3f3f3f 3f3f3f3f 	.insn	8, 0x3f3f3f3f3f3f3f3f
    f692:	3f3f3f3f 3f3f3f3f 	.insn	8, 0x3f3f3f3f3f3f3f3f
    f69a:	3f3f3f3f 3f3f3f3f 	.insn	8, 0x3f3f3f3f3f3f3f3f
    f6a2:	3f3f3f3f 3f3f3f3f 	.insn	8, 0x3f3f3f3f3f3f3f3f
    f6aa:	3f3f3f3f 3f3f3f3f 	.insn	8, 0x3f3f3f3f3f3f3f3f
    f6b2:	3f3f3f3f 3f3f3f3f 	.insn	8, 0x3f3f3f3f3f3f3f3f
    f6ba:	3f3f3f3f 3f3f3f3f 	.insn	8, 0x3f3f3f3f3f3f3f3f
    f6c2:	3f3f3f3f 3f3f3f3f 	.insn	8, 0x3f3f3f3f3f3f3f3f
    f6ca:	3f3f3f3f 3f3f3f3f 	.insn	8, 0x3f3f3f3f3f3f3f3f
    f6d2:	3f3f3f3f 3f3f3f3f 	.insn	8, 0x3f3f3f3f3f3f3f3f
    f6da:	3f3f3f3f 3f3f3f3f 	.insn	8, 0x3f3f3f3f3f3f3f3f
    f6e2:	3f3f3f3f 3f3f3f3f 	.insn	8, 0x3f3f3f3f3f3f3f3f
    f6ea:	3f3f3f3f 3f3f3f3f 	.insn	8, 0x3f3f3f3f3f3f3f3f
    f6f2:	3f3f3f3f 3f3f3f3f 	.insn	8, 0x3f3f3f3f3f3f3f3f
    f6fa:	3f3f3f3f 3f3f3f3f 	.insn	8, 0x3f3f3f3f3f3f3f3f
    f702:	3f3f3f3f 3f3f3f3f 	.insn	8, 0x3f3f3f3f3f3f3f3f
    f70a:	3f3f3f3f 3f3f3f3f 	.insn	8, 0x3f3f3f3f3f3f3f3f
    f712:	3f3f3f3f 3f3f3f3f 	.insn	8, 0x3f3f3f3f3f3f3f3f
    f71a:	3f3f3f3f 3f3f3f3f 	.insn	8, 0x3f3f3f3f3f3f3f3f
    f722:	3f3f3f3f 3f3f3f3f 	.insn	8, 0x3f3f3f3f3f3f3f3f
    f72a:	3f3f3f3f 3f3f3f3f 	.insn	8, 0x3f3f3f3f3f3f3f3f
    f732:	3f3f3f3f 3f3f3f3f 	.insn	8, 0x3f3f3f3f3f3f3f3f
    f73a:	3f3f3f3f 3f3f3f3f 	.insn	8, 0x3f3f3f3f3f3f3f3f
    f742:	3f3f3f3f 3f3f3f3f 	.insn	8, 0x3f3f3f3f3f3f3f3f
    f74a:	3f3f3f3f 3f3f3f3f 	.insn	8, 0x3f3f3f3f3f3f3f3f
    f752:	3f3f3f3f 3f3f3f3f 	.insn	8, 0x3f3f3f3f3f3f3f3f
    f75a:	3f3f3f3f 3f3f3f3f 	.insn	8, 0x3f3f3f3f3f3f3f3f
    f762:	3f3f3f3f 3f3f3f3f 	.insn	8, 0x3f3f3f3f3f3f3f3f
    f76a:	3f3f3f3f 3f3f3f3f 	.insn	8, 0x3f3f3f3f3f3f3f3f
    f772:	3f3f3f3f 3f3f3f3f 	.insn	8, 0x3f3f3f3f3f3f3f3f
    f77a:	3f3f3f3f 3f3f3f3f 	.insn	8, 0x3f3f3f3f3f3f3f3f
    f782:	3f3f3f3f 3f3f3f3f 	.insn	8, 0x3f3f3f3f3f3f3f3f
    f78a:	3f3f3f3f 3f3f3f3f 	.insn	8, 0x3f3f3f3f3f3f3f3f
    f792:	3f3f3f3f 3f3f3f3f 	.insn	8, 0x3f3f3f3f3f3f3f3f
    f79a:	3f3f3f3f 3f3f3f3f 	.insn	8, 0x3f3f3f3f3f3f3f3f
    f7a2:	3f3f3f3f 3f3f3f3f 	.insn	8, 0x3f3f3f3f3f3f3f3f
    f7aa:	3f3f3f3f 3f3f3f3f 	.insn	8, 0x3f3f3f3f3f3f3f3f
    f7b2:	3f3f3f3f 3f3f3f3f 	.insn	8, 0x3f3f3f3f3f3f3f3f
    f7ba:	3f3f3f3f 3f3f3f3f 	.insn	8, 0x3f3f3f3f3f3f3f3f
    f7c2:	3f3f3f3f 3f3f3f3f 	.insn	8, 0x3f3f3f3f3f3f3f3f
    f7ca:	3f3f3f3f 3f3f3f3f 	.insn	8, 0x3f3f3f3f3f3f3f3f
    f7d2:	3f3f3f3f 3f3f3f3f 	.insn	8, 0x3f3f3f3f3f3f3f3f
    f7da:	3f3f3f3f 3f3f3f3f 	.insn	8, 0x3f3f3f3f3f3f3f3f
    f7e2:	3f3f3f3f 3f3f3f3f 	.insn	8, 0x3f3f3f3f3f3f3f3f
    f7ea:	3f3f3f3f 3f3f3f3f 	.insn	8, 0x3f3f3f3f3f3f3f3f
    f7f2:	3f3f3f3f 3f3f3f3f 	.insn	8, 0x3f3f3f3f3f3f3f3f
    f7fa:	3f3f3f3f 3f3f3f3f 	.insn	8, 0x3f3f3f3f3f3f3f3f
    f802:	3f3f3f3f 3f3f3f3f 	.insn	8, 0x3f3f3f3f3f3f3f3f
    f80a:	3f3f3f3f 3f3f3f3f 	.insn	8, 0x3f3f3f3f3f3f3f3f
    f812:	3f3f3f3f 3f3f3f3f 	.insn	8, 0x3f3f3f3f3f3f3f3f
    f81a:	3f3f3f3f 3f3f3f3f 	.insn	8, 0x3f3f3f3f3f3f3f3f
    f822:	3f3f3f3f 3f3f3f3f 	.insn	8, 0x3f3f3f3f3f3f3f3f
    f82a:	3f3f3f3f 3f3f3f3f 	.insn	8, 0x3f3f3f3f3f3f3f3f
    f832:	3f3f3f3f 3f3f3f3f 	.insn	8, 0x3f3f3f3f3f3f3f3f
    f83a:	3f3f3f3f 3f3f3f3f 	.insn	8, 0x3f3f3f3f3f3f3f3f
    f842:	3f3f3f3f 3f3f3f3f 	.insn	8, 0x3f3f3f3f3f3f3f3f
    f84a:	3f3f3f3f 3f3f3f3f 	.insn	8, 0x3f3f3f3f3f3f3f3f
    f852:	3f3f3f3f 3f3f3f3f 	.insn	8, 0x3f3f3f3f3f3f3f3f
    f85a:	3f3f3f3f 3f3f3f3f 	.insn	8, 0x3f3f3f3f3f3f3f3f
    f862:	3f3f3f3f 3f3f3f3f 	.insn	8, 0x3f3f3f3f3f3f3f3f
    f86a:	3f3f3f3f 3f3f3f3f 	.insn	8, 0x3f3f3f3f3f3f3f3f
    f872:	3f3f3f3f 3f3f3f3f 	.insn	8, 0x3f3f3f3f3f3f3f3f
    f87a:	3f3f3f3f 3f3f3f3f 	.insn	8, 0x3f3f3f3f3f3f3f3f
    f882:	3f3f3f3f 3f3f3f3f 	.insn	8, 0x3f3f3f3f3f3f3f3f
    f88a:	3f3f3f3f 3f3f3f3f 	.insn	8, 0x3f3f3f3f3f3f3f3f
    f892:	3f3f3f3f 3f3f3f3f 	.insn	8, 0x3f3f3f3f3f3f3f3f
    f89a:	3f3f3f3f 3f3f3f3f 	.insn	8, 0x3f3f3f3f3f3f3f3f
    f8a2:	3f3f3f3f 3f3f3f3f 	.insn	8, 0x3f3f3f3f3f3f3f3f
    f8aa:	3f3f3f3f 3f3f3f3f 	.insn	8, 0x3f3f3f3f3f3f3f3f
    f8b2:	3f3f3f3f 3f3f3f3f 	.insn	8, 0x3f3f3f3f3f3f3f3f
    f8ba:	3f3f3f3f 3f3f3f3f 	.insn	8, 0x3f3f3f3f3f3f3f3f
    f8c2:	3f3f3f3f 3f3f3f3f 	.insn	8, 0x3f3f3f3f3f3f3f3f
    f8ca:	3f3f3f3f 3f3f3f3f 	.insn	8, 0x3f3f3f3f3f3f3f3f
    f8d2:	3f3f3f3f 3f3f3f3f 	.insn	8, 0x3f3f3f3f3f3f3f3f
    f8da:	3f3f3f3f 3f3f3f3f 	.insn	8, 0x3f3f3f3f3f3f3f3f
    f8e2:	3f3f3f3f 3f3f3f3f 	.insn	8, 0x3f3f3f3f3f3f3f3f
    f8ea:	3f3f3f3f 3f3f3f3f 	.insn	8, 0x3f3f3f3f3f3f3f3f
    f8f2:	3f3f3f3f 3f3f3f3f 	.insn	8, 0x3f3f3f3f3f3f3f3f
    f8fa:	3f3f3f3f 3f3f3f3f 	.insn	8, 0x3f3f3f3f3f3f3f3f
    f902:	3f3f3f3f 3f3f3f3f 	.insn	8, 0x3f3f3f3f3f3f3f3f
    f90a:	3f3f3f3f 3f3f3f3f 	.insn	8, 0x3f3f3f3f3f3f3f3f
    f912:	3f3f3f3f 3f3f3f3f 	.insn	8, 0x3f3f3f3f3f3f3f3f
    f91a:	3f3f3f3f 3f3f3f3f 	.insn	8, 0x3f3f3f3f3f3f3f3f
    f922:	3f3f3f3f 3f3f3f3f 	.insn	8, 0x3f3f3f3f3f3f3f3f
    f92a:	3f3f3f3f 3f3f3f3f 	.insn	8, 0x3f3f3f3f3f3f3f3f
    f932:	3f3f3f3f 3f3f3f3f 	.insn	8, 0x3f3f3f3f3f3f3f3f
    f93a:	3f3f3f3f 3f3f3f3f 	.insn	8, 0x3f3f3f3f3f3f3f3f
    f942:	3f3f3f3f 3f3f3f3f 	.insn	8, 0x3f3f3f3f3f3f3f3f
    f94a:	3f3f3f3f 3f3f3f3f 	.insn	8, 0x3f3f3f3f3f3f3f3f
    f952:	3f3f3f3f 3f3f3f3f 	.insn	8, 0x3f3f3f3f3f3f3f3f
    f95a:	3f3f3f3f 3f3f3f3f 	.insn	8, 0x3f3f3f3f3f3f3f3f
    f962:	3f3f3f3f 3f3f3f3f 	.insn	8, 0x3f3f3f3f3f3f3f3f
    f96a:	3f3f3f3f 3f3f3f3f 	.insn	8, 0x3f3f3f3f3f3f3f3f
    f972:	3f3f3f3f 3f3f3f3f 	.insn	8, 0x3f3f3f3f3f3f3f3f
    f97a:	3f3f3f3f 3f3f3f3f 	.insn	8, 0x3f3f3f3f3f3f3f3f
    f982:	3f3f3f3f 3f3f3f3f 	.insn	8, 0x3f3f3f3f3f3f3f3f
    f98a:	3f3f3f3f 3f3f3f3f 	.insn	8, 0x3f3f3f3f3f3f3f3f
    f992:	3f3f3f3f 3f3f3f3f 	.insn	8, 0x3f3f3f3f3f3f3f3f
    f99a:	3f3f3f3f 3f3f3f3f 	.insn	8, 0x3f3f3f3f3f3f3f3f
    f9a2:	3f3f3f3f 3f3f3f3f 	.insn	8, 0x3f3f3f3f3f3f3f3f
    f9aa:	3f3f3f3f 3f3f3f3f 	.insn	8, 0x3f3f3f3f3f3f3f3f
    f9b2:	3f3f3f3f 3f3f3f3f 	.insn	8, 0x3f3f3f3f3f3f3f3f
    f9ba:	3f3f3f3f 3f3f3f3f 	.insn	8, 0x3f3f3f3f3f3f3f3f
    f9c2:	3f3f3f3f 3f3f3f3f 	.insn	8, 0x3f3f3f3f3f3f3f3f
    f9ca:	3f3f3f3f 3f3f3f3f 	.insn	8, 0x3f3f3f3f3f3f3f3f
    f9d2:	3f3f3f3f 3f3f3f3f 	.insn	8, 0x3f3f3f3f3f3f3f3f
    f9da:	3f3f3f3f 3f3f3f3f 	.insn	8, 0x3f3f3f3f3f3f3f3f
    f9e2:	3f3f3f3f 3f3f3f3f 	.insn	8, 0x3f3f3f3f3f3f3f3f
    f9ea:	3f3f3f3f 3f3f3f3f 	.insn	8, 0x3f3f3f3f3f3f3f3f
    f9f2:	3f3f3f3f 3f3f3f3f 	.insn	8, 0x3f3f3f3f3f3f3f3f
    f9fa:	3f3f3f3f 3f3f3f3f 	.insn	8, 0x3f3f3f3f3f3f3f3f
    fa02:	3f3f3f3f 3f3f3f3f 	.insn	8, 0x3f3f3f3f3f3f3f3f
    fa0a:	3f3f3f3f 3f3f3f3f 	.insn	8, 0x3f3f3f3f3f3f3f3f
    fa12:	3f3f3f3f 3f3f3f3f 	.insn	8, 0x3f3f3f3f3f3f3f3f
    fa1a:	3f3f3f3f 3f3f3f3f 	.insn	8, 0x3f3f3f3f3f3f3f3f
    fa22:	3f3f3f3f 3f3f3f3f 	.insn	8, 0x3f3f3f3f3f3f3f3f
    fa2a:	3f3f3f3f 3f3f3f3f 	.insn	8, 0x3f3f3f3f3f3f3f3f
    fa32:	3f3f3f3f 3f3f3f3f 	.insn	8, 0x3f3f3f3f3f3f3f3f
    fa3a:	3f3f3f3f 3f3f3f3f 	.insn	8, 0x3f3f3f3f3f3f3f3f
    fa42:	3f3f3f3f 3f3f3f3f 	.insn	8, 0x3f3f3f3f3f3f3f3f
    fa4a:	3f3f3f3f 3f3f3f3f 	.insn	8, 0x3f3f3f3f3f3f3f3f
    fa52:	3f3f3f3f 3f3f3f3f 	.insn	8, 0x3f3f3f3f3f3f3f3f
    fa5a:	3f3f3f3f 3f3f3f3f 	.insn	8, 0x3f3f3f3f3f3f3f3f
    fa62:	3f3f3f3f 3f3f3f3f 	.insn	8, 0x3f3f3f3f3f3f3f3f
    fa6a:	3f3f3f3f 3f3f3f3f 	.insn	8, 0x3f3f3f3f3f3f3f3f
    fa72:	3f3f3f3f 3f3f3f3f 	.insn	8, 0x3f3f3f3f3f3f3f3f
    fa7a:	3f3f3f3f 3f3f3f3f 	.insn	8, 0x3f3f3f3f3f3f3f3f
    fa82:	3f3f3f3f 3f3f3f3f 	.insn	8, 0x3f3f3f3f3f3f3f3f
    fa8a:	3f3f3f3f 3f3f3f3f 	.insn	8, 0x3f3f3f3f3f3f3f3f
    fa92:	3f3f3f3f 3f3f3f3f 	.insn	8, 0x3f3f3f3f3f3f3f3f
    fa9a:	3f3f3f3f 3f3f3f3f 	.insn	8, 0x3f3f3f3f3f3f3f3f
    faa2:	3f3f3f3f 3f3f3f3f 	.insn	8, 0x3f3f3f3f3f3f3f3f
    faaa:	3f3f3f3f 3f3f3f3f 	.insn	8, 0x3f3f3f3f3f3f3f3f
    fab2:	3f3f3f3f 3f3f3f3f 	.insn	8, 0x3f3f3f3f3f3f3f3f
    faba:	3f3f3f3f 3f3f3f3f 	.insn	8, 0x3f3f3f3f3f3f3f3f
    fac2:	3f3f3f3f 3f3f3f3f 	.insn	8, 0x3f3f3f3f3f3f3f3f
    faca:	3f3f3f3f 3f3f3f3f 	.insn	8, 0x3f3f3f3f3f3f3f3f
    fad2:	3f3f3f3f 3f3f3f3f 	.insn	8, 0x3f3f3f3f3f3f3f3f
    fada:	3f3f3f3f 3f3f3f3f 	.insn	8, 0x3f3f3f3f3f3f3f3f
    fae2:	3f3f3f3f 3f3f3f3f 	.insn	8, 0x3f3f3f3f3f3f3f3f
    faea:	3f3f3f3f 3f3f3f3f 	.insn	8, 0x3f3f3f3f3f3f3f3f
    faf2:	3f3f3f3f 3f3f3f3f 	.insn	8, 0x3f3f3f3f3f3f3f3f
    fafa:	3f3f3f3f 3f3f3f3f 	.insn	8, 0x3f3f3f3f3f3f3f3f
    fb02:	3f3f3f3f 3f3f3f3f 	.insn	8, 0x3f3f3f3f3f3f3f3f
    fb0a:	3f3f3f3f 3f3f3f3f 	.insn	8, 0x3f3f3f3f3f3f3f3f
    fb12:	3f3f3f3f 3f3f3f3f 	.insn	8, 0x3f3f3f3f3f3f3f3f
    fb1a:	3f3f3f3f 3f3f3f3f 	.insn	8, 0x3f3f3f3f3f3f3f3f
    fb22:	3f3f3f3f 3f3f3f3f 	.insn	8, 0x3f3f3f3f3f3f3f3f
    fb2a:	3f3f3f3f 3f3f3f3f 	.insn	8, 0x3f3f3f3f3f3f3f3f
    fb32:	3f3f3f3f 3f3f3f3f 	.insn	8, 0x3f3f3f3f3f3f3f3f
    fb3a:	3f3f3f3f 3f3f3f3f 	.insn	8, 0x3f3f3f3f3f3f3f3f
    fb42:	3f3f3f3f 3f3f3f3f 	.insn	8, 0x3f3f3f3f3f3f3f3f
    fb4a:	3f3f3f3f 3f3f3f3f 	.insn	8, 0x3f3f3f3f3f3f3f3f
    fb52:	3f3f3f3f 3f3f3f3f 	.insn	8, 0x3f3f3f3f3f3f3f3f
    fb5a:	3f3f3f3f 3f3f3f3f 	.insn	8, 0x3f3f3f3f3f3f3f3f
    fb62:	3f3f3f3f 3f3f3f3f 	.insn	8, 0x3f3f3f3f3f3f3f3f
    fb6a:	3f3f3f3f 3f3f3f3f 	.insn	8, 0x3f3f3f3f3f3f3f3f
    fb72:	3f3f3f3f 3f3f3f3f 	.insn	8, 0x3f3f3f3f3f3f3f3f
    fb7a:	3f3f3f3f 3f3f3f3f 	.insn	8, 0x3f3f3f3f3f3f3f3f
    fb82:	3f3f3f3f 3f3f3f3f 	.insn	8, 0x3f3f3f3f3f3f3f3f
    fb8a:	3f3f3f3f 3f3f3f3f 	.insn	8, 0x3f3f3f3f3f3f3f3f
    fb92:	3f3f3f3f 3f3f3f3f 	.insn	8, 0x3f3f3f3f3f3f3f3f
    fb9a:	3f3f3f3f 3f3f3f3f 	.insn	8, 0x3f3f3f3f3f3f3f3f
    fba2:	3f3f3f3f 3f3f3f3f 	.insn	8, 0x3f3f3f3f3f3f3f3f
    fbaa:	3f3f3f3f 3f3f3f3f 	.insn	8, 0x3f3f3f3f3f3f3f3f
    fbb2:	3f3f3f3f 3f3f3f3f 	.insn	8, 0x3f3f3f3f3f3f3f3f
    fbba:	3f3f3f3f 3f3f3f3f 	.insn	8, 0x3f3f3f3f3f3f3f3f
    fbc2:	3f3f3f3f 3f3f3f3f 	.insn	8, 0x3f3f3f3f3f3f3f3f
    fbca:	3f3f3f3f 3f3f3f3f 	.insn	8, 0x3f3f3f3f3f3f3f3f
    fbd2:	3f3f3f3f 3f3f3f3f 	.insn	8, 0x3f3f3f3f3f3f3f3f
    fbda:	3f3f3f3f 3f3f3f3f 	.insn	8, 0x3f3f3f3f3f3f3f3f
    fbe2:	3f3f3f3f 3f3f3f3f 	.insn	8, 0x3f3f3f3f3f3f3f3f
    fbea:	3f3f3f3f 3f3f3f3f 	.insn	8, 0x3f3f3f3f3f3f3f3f
    fbf2:	3f3f3f3f 3f3f3f3f 	.insn	8, 0x3f3f3f3f3f3f3f3f
    fbfa:	3f3f3f3f 3f3f3f3f 	.insn	8, 0x3f3f3f3f3f3f3f3f
    fc02:	3f3f3f3f 3f3f3f3f 	.insn	8, 0x3f3f3f3f3f3f3f3f
    fc0a:	3f3f3f3f 3f3f3f3f 	.insn	8, 0x3f3f3f3f3f3f3f3f
    fc12:	3f3f3f3f 3f3f3f3f 	.insn	8, 0x3f3f3f3f3f3f3f3f
    fc1a:	3f3f3f3f 3f3f3f3f 	.insn	8, 0x3f3f3f3f3f3f3f3f
    fc22:	3f3f3f3f 3f3f3f3f 	.insn	8, 0x3f3f3f3f3f3f3f3f
    fc2a:	3f3f3f3f 3f3f3f3f 	.insn	8, 0x3f3f3f3f3f3f3f3f
    fc32:	3f3f3f3f 3f3f3f3f 	.insn	8, 0x3f3f3f3f3f3f3f3f
    fc3a:	3f3f3f3f 3f3f3f3f 	.insn	8, 0x3f3f3f3f3f3f3f3f
    fc42:	3f3f3f3f 3f3f3f3f 	.insn	8, 0x3f3f3f3f3f3f3f3f
    fc4a:	3f3f3f3f 3f3f3f3f 	.insn	8, 0x3f3f3f3f3f3f3f3f
    fc52:	3f3f3f3f 3f3f3f3f 	.insn	8, 0x3f3f3f3f3f3f3f3f
    fc5a:	3f3f3f3f 3f3f3f3f 	.insn	8, 0x3f3f3f3f3f3f3f3f
    fc62:	3f3f3f3f 3f3f3f3f 	.insn	8, 0x3f3f3f3f3f3f3f3f
    fc6a:	3f3f3f3f 3f3f3f3f 	.insn	8, 0x3f3f3f3f3f3f3f3f
    fc72:	3f3f3f3f 3f3f3f3f 	.insn	8, 0x3f3f3f3f3f3f3f3f
    fc7a:	3f3f3f3f 3f3f3f3f 	.insn	8, 0x3f3f3f3f3f3f3f3f
    fc82:	3f3f3f3f 3f3f3f3f 	.insn	8, 0x3f3f3f3f3f3f3f3f
    fc8a:	3f3f3f3f 3f3f3f3f 	.insn	8, 0x3f3f3f3f3f3f3f3f
    fc92:	3f3f3f3f 3f3f3f3f 	.insn	8, 0x3f3f3f3f3f3f3f3f
    fc9a:	3f3f3f3f 3f3f3f3f 	.insn	8, 0x3f3f3f3f3f3f3f3f
    fca2:	3f3f3f3f 3f3f3f3f 	.insn	8, 0x3f3f3f3f3f3f3f3f
    fcaa:	3f3f3f3f 3f3f3f3f 	.insn	8, 0x3f3f3f3f3f3f3f3f
    fcb2:	3f3f3f3f 3f3f3f3f 	.insn	8, 0x3f3f3f3f3f3f3f3f
    fcba:	3f3f3f3f 3f3f3f3f 	.insn	8, 0x3f3f3f3f3f3f3f3f
    fcc2:	3f3f3f3f 3f3f3f3f 	.insn	8, 0x3f3f3f3f3f3f3f3f
    fcca:	3f3f3f3f 3f3f3f3f 	.insn	8, 0x3f3f3f3f3f3f3f3f
    fcd2:	3f3f3f3f 3f3f3f3f 	.insn	8, 0x3f3f3f3f3f3f3f3f
    fcda:	3f3f3f3f 3f3f3f3f 	.insn	8, 0x3f3f3f3f3f3f3f3f
    fce2:	3f3f3f3f 3f3f3f3f 	.insn	8, 0x3f3f3f3f3f3f3f3f
    fcea:	3f3f3f3f 3f3f3f3f 	.insn	8, 0x3f3f3f3f3f3f3f3f
    fcf2:	3f3f3f3f 3f3f3f3f 	.insn	8, 0x3f3f3f3f3f3f3f3f
    fcfa:	3f3f3f3f 3f3f3f3f 	.insn	8, 0x3f3f3f3f3f3f3f3f
    fd02:	3f3f3f3f 3f3f3f3f 	.insn	8, 0x3f3f3f3f3f3f3f3f
    fd0a:	3f3f3f3f 3f3f3f3f 	.insn	8, 0x3f3f3f3f3f3f3f3f
    fd12:	3f3f3f3f 3f3f3f3f 	.insn	8, 0x3f3f3f3f3f3f3f3f
    fd1a:	3f3f3f3f 3f3f3f3f 	.insn	8, 0x3f3f3f3f3f3f3f3f
    fd22:	3f3f3f3f 3f3f3f3f 	.insn	8, 0x3f3f3f3f3f3f3f3f
    fd2a:	3f3f3f3f 3f3f3f3f 	.insn	8, 0x3f3f3f3f3f3f3f3f
    fd32:	3f3f3f3f 3f3f3f3f 	.insn	8, 0x3f3f3f3f3f3f3f3f
    fd3a:	3f3f3f3f 3f3f3f3f 	.insn	8, 0x3f3f3f3f3f3f3f3f
    fd42:	3f3f3f3f 3f3f3f3f 	.insn	8, 0x3f3f3f3f3f3f3f3f
    fd4a:	3f3f3f3f 3f3f3f3f 	.insn	8, 0x3f3f3f3f3f3f3f3f
    fd52:	3f3f3f3f 3f3f3f3f 	.insn	8, 0x3f3f3f3f3f3f3f3f
    fd5a:	3f3f3f3f 3f3f3f3f 	.insn	8, 0x3f3f3f3f3f3f3f3f
    fd62:	3f3f3f3f 3f3f3f3f 	.insn	8, 0x3f3f3f3f3f3f3f3f
    fd6a:	3f3f3f3f 3f3f3f3f 	.insn	8, 0x3f3f3f3f3f3f3f3f
    fd72:	3f3f3f3f 3f3f3f3f 	.insn	8, 0x3f3f3f3f3f3f3f3f
    fd7a:	3f3f3f3f 3f3f3f3f 	.insn	8, 0x3f3f3f3f3f3f3f3f
    fd82:	3f3f3f3f 3f3f3f3f 	.insn	8, 0x3f3f3f3f3f3f3f3f
    fd8a:	3f3f3f3f 3f3f3f3f 	.insn	8, 0x3f3f3f3f3f3f3f3f
    fd92:	3f3f3f3f 3f3f3f3f 	.insn	8, 0x3f3f3f3f3f3f3f3f
    fd9a:	3f3f3f3f 3f3f3f3f 	.insn	8, 0x3f3f3f3f3f3f3f3f
    fda2:	3f3f3f3f 3f3f3f3f 	.insn	8, 0x3f3f3f3f3f3f3f3f
    fdaa:	3f3f3f3f 3f3f3f3f 	.insn	8, 0x3f3f3f3f3f3f3f3f
    fdb2:	3f3f3f3f 3f3f3f3f 	.insn	8, 0x3f3f3f3f3f3f3f3f
    fdba:	3f3f3f3f 3f3f3f3f 	.insn	8, 0x3f3f3f3f3f3f3f3f
    fdc2:	3f3f3f3f 3f3f3f3f 	.insn	8, 0x3f3f3f3f3f3f3f3f
    fdca:	3f3f3f3f 3f3f3f3f 	.insn	8, 0x3f3f3f3f3f3f3f3f
    fdd2:	3f3f3f3f 3f3f3f3f 	.insn	8, 0x3f3f3f3f3f3f3f3f
    fdda:	3f3f3f3f 3f3f3f3f 	.insn	8, 0x3f3f3f3f3f3f3f3f
    fde2:	3f3f3f3f 3f3f3f3f 	.insn	8, 0x3f3f3f3f3f3f3f3f
    fdea:	3f3f3f3f 3f3f3f3f 	.insn	8, 0x3f3f3f3f3f3f3f3f
    fdf2:	3f3f3f3f 3f3f3f3f 	.insn	8, 0x3f3f3f3f3f3f3f3f
    fdfa:	3f3f3f3f 3f3f3f3f 	.insn	8, 0x3f3f3f3f3f3f3f3f
    fe02:	3f3f3f3f 3f3f3f3f 	.insn	8, 0x3f3f3f3f3f3f3f3f
    fe0a:	3f3f3f3f 3f3f3f3f 	.insn	8, 0x3f3f3f3f3f3f3f3f
    fe12:	3f3f3f3f 3f3f3f3f 	.insn	8, 0x3f3f3f3f3f3f3f3f
    fe1a:	3f3f3f3f 3f3f3f3f 	.insn	8, 0x3f3f3f3f3f3f3f3f
    fe22:	3f3f3f3f 3f3f3f3f 	.insn	8, 0x3f3f3f3f3f3f3f3f
    fe2a:	3f3f3f3f 3f3f3f3f 	.insn	8, 0x3f3f3f3f3f3f3f3f
    fe32:	3f3f3f3f 3f3f3f3f 	.insn	8, 0x3f3f3f3f3f3f3f3f
    fe3a:	3f3f3f3f 3f3f3f3f 	.insn	8, 0x3f3f3f3f3f3f3f3f
    fe42:	3f3f3f3f 3f3f3f3f 	.insn	8, 0x3f3f3f3f3f3f3f3f
    fe4a:	3f3f3f3f 3f3f3f3f 	.insn	8, 0x3f3f3f3f3f3f3f3f
    fe52:	3f3f3f3f 3f3f3f3f 	.insn	8, 0x3f3f3f3f3f3f3f3f
    fe5a:	3f3f3f3f 3f3f3f3f 	.insn	8, 0x3f3f3f3f3f3f3f3f
    fe62:	3f3f3f3f 3f3f3f3f 	.insn	8, 0x3f3f3f3f3f3f3f3f
    fe6a:	3f3f3f3f 3f3f3f3f 	.insn	8, 0x3f3f3f3f3f3f3f3f
    fe72:	3f3f3f3f 3f3f3f3f 	.insn	8, 0x3f3f3f3f3f3f3f3f
    fe7a:	3f3f3f3f 3f3f3f3f 	.insn	8, 0x3f3f3f3f3f3f3f3f
    fe82:	3f3f3f3f 3f3f3f3f 	.insn	8, 0x3f3f3f3f3f3f3f3f
    fe8a:	3f3f3f3f 3f3f3f3f 	.insn	8, 0x3f3f3f3f3f3f3f3f
    fe92:	3f3f3f3f 3f3f3f3f 	.insn	8, 0x3f3f3f3f3f3f3f3f
    fe9a:	3f3f3f3f 3f3f3f3f 	.insn	8, 0x3f3f3f3f3f3f3f3f
    fea2:	3f3f3f3f 3f3f3f3f 	.insn	8, 0x3f3f3f3f3f3f3f3f
    feaa:	3f3f3f3f 3f3f3f3f 	.insn	8, 0x3f3f3f3f3f3f3f3f
    feb2:	3f3f3f3f 3f3f3f3f 	.insn	8, 0x3f3f3f3f3f3f3f3f
    feba:	3f3f3f3f 3f3f3f3f 	.insn	8, 0x3f3f3f3f3f3f3f3f
    fec2:	3f3f3f3f 3f3f3f3f 	.insn	8, 0x3f3f3f3f3f3f3f3f
    feca:	3f3f3f3f 3f3f3f3f 	.insn	8, 0x3f3f3f3f3f3f3f3f
    fed2:	3f3f3f3f 3f3f3f3f 	.insn	8, 0x3f3f3f3f3f3f3f3f
    feda:	3f3f3f3f 3f3f3f3f 	.insn	8, 0x3f3f3f3f3f3f3f3f
    fee2:	3f3f3f3f 3f3f3f3f 	.insn	8, 0x3f3f3f3f3f3f3f3f
    feea:	3f3f3f3f 3f3f3f3f 	.insn	8, 0x3f3f3f3f3f3f3f3f
    fef2:	3f3f3f3f 3f3f3f3f 	.insn	8, 0x3f3f3f3f3f3f3f3f
    fefa:	3f3f3f3f 3f3f3f3f 	.insn	8, 0x3f3f3f3f3f3f3f3f
    ff02:	3f3f3f3f 3f3f3f3f 	.insn	8, 0x3f3f3f3f3f3f3f3f
    ff0a:	3f3f3f3f 3f3f3f3f 	.insn	8, 0x3f3f3f3f3f3f3f3f
    ff12:	3f3f3f3f 3f3f3f3f 	.insn	8, 0x3f3f3f3f3f3f3f3f
    ff1a:	3f3f3f3f 3f3f3f3f 	.insn	8, 0x3f3f3f3f3f3f3f3f
    ff22:	3f3f3f3f 3f3f3f3f 	.insn	8, 0x3f3f3f3f3f3f3f3f
    ff2a:	3f3f3f3f 3f3f3f3f 	.insn	8, 0x3f3f3f3f3f3f3f3f
    ff32:	3f3f3f3f 3f3f3f3f 	.insn	8, 0x3f3f3f3f3f3f3f3f
    ff3a:	3f3f3f3f 3f3f3f3f 	.insn	8, 0x3f3f3f3f3f3f3f3f
    ff42:	3f3f3f3f 3f3f3f3f 	.insn	8, 0x3f3f3f3f3f3f3f3f
    ff4a:	3f3f3f3f 3f3f3f3f 	.insn	8, 0x3f3f3f3f3f3f3f3f
    ff52:	3f3f3f3f 3f3f3f3f 	.insn	8, 0x3f3f3f3f3f3f3f3f
    ff5a:	3f3f3f3f 3f3f3f3f 	.insn	8, 0x3f3f3f3f3f3f3f3f
    ff62:	3f3f3f3f 3f3f3f3f 	.insn	8, 0x3f3f3f3f3f3f3f3f
    ff6a:	3f3f3f3f 3f3f3f3f 	.insn	8, 0x3f3f3f3f3f3f3f3f
    ff72:	3f3f3f3f 3f3f3f3f 	.insn	8, 0x3f3f3f3f3f3f3f3f
    ff7a:	3f3f3f3f 3f3f3f3f 	.insn	8, 0x3f3f3f3f3f3f3f3f
    ff82:	3f3f3f3f 3f3f3f3f 	.insn	8, 0x3f3f3f3f3f3f3f3f
    ff8a:	3f3f3f3f 3f3f3f3f 	.insn	8, 0x3f3f3f3f3f3f3f3f
    ff92:	3f3f3f3f 3f3f3f3f 	.insn	8, 0x3f3f3f3f3f3f3f3f
    ff9a:	3f3f3f3f 3f3f3f3f 	.insn	8, 0x3f3f3f3f3f3f3f3f
    ffa2:	3f3f3f3f 3f3f3f3f 	.insn	8, 0x3f3f3f3f3f3f3f3f
    ffaa:	3f3f3f3f 3f3f3f3f 	.insn	8, 0x3f3f3f3f3f3f3f3f
    ffb2:	3f3f3f3f 3f3f3f3f 	.insn	8, 0x3f3f3f3f3f3f3f3f
    ffba:	3f3f3f3f 3f3f3f3f 	.insn	8, 0x3f3f3f3f3f3f3f3f
    ffc2:	3f3f3f3f 3f3f3f3f 	.insn	8, 0x3f3f3f3f3f3f3f3f
    ffca:	3f3f3f3f 3f3f3f3f 	.insn	8, 0x3f3f3f3f3f3f3f3f
    ffd2:	3f3f3f3f 3f3f3f3f 	.insn	8, 0x3f3f3f3f3f3f3f3f
    ffda:	3f3f3f3f 3f3f3f3f 	.insn	8, 0x3f3f3f3f3f3f3f3f
    ffe2:	3f3f3f3f 3f3f3f3f 	.insn	8, 0x3f3f3f3f3f3f3f3f
    ffea:	3f3f3f3f 3f3f3f3f 	.insn	8, 0x3f3f3f3f3f3f3f3f
    fff2:	3f3f3f3f 3f3f3f3f 	.insn	8, 0x3f3f3f3f3f3f3f3f
    fffa:	3f3f3f3f 3f3f3f3f 	.insn	8, 0x3f3f3f3f3f3f3f3f
   10002:	3f3f3f3f 3f3f3f3f 	.insn	8, 0x3f3f3f3f3f3f3f3f
   1000a:	3f3f3f3f 3f3f3f3f 	.insn	8, 0x3f3f3f3f3f3f3f3f
   10012:	3f3f3f3f 3f3f3f3f 	.insn	8, 0x3f3f3f3f3f3f3f3f
   1001a:	3f3f3f3f 3f3f3f3f 	.insn	8, 0x3f3f3f3f3f3f3f3f
   10022:	3f3f3f3f 3f3f3f3f 	.insn	8, 0x3f3f3f3f3f3f3f3f
   1002a:	3f3f3f3f 3f3f3f3f 	.insn	8, 0x3f3f3f3f3f3f3f3f
   10032:	3f3f3f3f 3f3f3f3f 	.insn	8, 0x3f3f3f3f3f3f3f3f
   1003a:	3f3f3f3f 3f3f3f3f 	.insn	8, 0x3f3f3f3f3f3f3f3f
   10042:	3f3f3f3f 3f3f3f3f 	.insn	8, 0x3f3f3f3f3f3f3f3f
   1004a:	3f3f3f3f 3f3f3f3f 	.insn	8, 0x3f3f3f3f3f3f3f3f
   10052:	3f3f3f3f 3f3f3f3f 	.insn	8, 0x3f3f3f3f3f3f3f3f
   1005a:	3f3f3f3f 3f3f3f3f 	.insn	8, 0x3f3f3f3f3f3f3f3f
   10062:	3f3f3f3f 3f3f3f3f 	.insn	8, 0x3f3f3f3f3f3f3f3f
   1006a:	3f3f3f3f 3f3f3f3f 	.insn	8, 0x3f3f3f3f3f3f3f3f
   10072:	3f3f3f3f 3f3f3f3f 	.insn	8, 0x3f3f3f3f3f3f3f3f
   1007a:	3f3f3f3f 3f3f3f3f 	.insn	8, 0x3f3f3f3f3f3f3f3f
   10082:	3f3f3f3f 3f3f3f3f 	.insn	8, 0x3f3f3f3f3f3f3f3f
   1008a:	3f3f3f3f 3f3f3f3f 	.insn	8, 0x3f3f3f3f3f3f3f3f
   10092:	3f3f3f3f 3f3f3f3f 	.insn	8, 0x3f3f3f3f3f3f3f3f
   1009a:	3f3f3f3f 3f3f3f3f 	.insn	8, 0x3f3f3f3f3f3f3f3f
   100a2:	3f3f3f3f 3f3f3f3f 	.insn	8, 0x3f3f3f3f3f3f3f3f
   100aa:	3f3f3f3f 3f3f3f3f 	.insn	8, 0x3f3f3f3f3f3f3f3f
   100b2:	3f3f3f3f 3f3f3f3f 	.insn	8, 0x3f3f3f3f3f3f3f3f
   100ba:	3f3f3f3f 3f3f3f3f 	.insn	8, 0x3f3f3f3f3f3f3f3f
   100c2:	3f3f3f3f 3f3f3f3f 	.insn	8, 0x3f3f3f3f3f3f3f3f
   100ca:	3f3f3f3f 3f3f3f3f 	.insn	8, 0x3f3f3f3f3f3f3f3f
   100d2:	3f3f3f3f 3f3f3f3f 	.insn	8, 0x3f3f3f3f3f3f3f3f
   100da:	3f3f3f3f 3f3f3f3f 	.insn	8, 0x3f3f3f3f3f3f3f3f
   100e2:	3f3f3f3f 3f3f3f3f 	.insn	8, 0x3f3f3f3f3f3f3f3f
   100ea:	3f3f3f3f 3f3f3f3f 	.insn	8, 0x3f3f3f3f3f3f3f3f
   100f2:	3f3f3f3f 3f3f3f3f 	.insn	8, 0x3f3f3f3f3f3f3f3f
   100fa:	3f3f3f3f 3f3f3f3f 	.insn	8, 0x3f3f3f3f3f3f3f3f
   10102:	3f3f3f3f 3f3f3f3f 	.insn	8, 0x3f3f3f3f3f3f3f3f
   1010a:	3f3f3f3f 3f3f3f3f 	.insn	8, 0x3f3f3f3f3f3f3f3f
   10112:	3f3f3f3f 3f3f3f3f 	.insn	8, 0x3f3f3f3f3f3f3f3f
   1011a:	3f3f3f3f 3f3f3f3f 	.insn	8, 0x3f3f3f3f3f3f3f3f
   10122:	3f3f3f3f 3f3f3f3f 	.insn	8, 0x3f3f3f3f3f3f3f3f
   1012a:	3f3f3f3f 3f3f3f3f 	.insn	8, 0x3f3f3f3f3f3f3f3f
   10132:	3f3f3f3f 3f3f3f3f 	.insn	8, 0x3f3f3f3f3f3f3f3f
   1013a:	3f3f3f3f 3f3f3f3f 	.insn	8, 0x3f3f3f3f3f3f3f3f
   10142:	3f3f3f3f 3f3f3f3f 	.insn	8, 0x3f3f3f3f3f3f3f3f
   1014a:	3f3f3f3f 3f3f3f3f 	.insn	8, 0x3f3f3f3f3f3f3f3f
   10152:	3f3f3f3f 3f3f3f3f 	.insn	8, 0x3f3f3f3f3f3f3f3f
   1015a:	3f3f3f3f 3f3f3f3f 	.insn	8, 0x3f3f3f3f3f3f3f3f
   10162:	3f3f3f3f 3f3f3f3f 	.insn	8, 0x3f3f3f3f3f3f3f3f
   1016a:	3f3f3f3f 3f3f3f3f 	.insn	8, 0x3f3f3f3f3f3f3f3f
   10172:	3f3f3f3f 3f3f3f3f 	.insn	8, 0x3f3f3f3f3f3f3f3f
   1017a:	3f3f3f3f 3f3f3f3f 	.insn	8, 0x3f3f3f3f3f3f3f3f
   10182:	3f3f3f3f 3f3f3f3f 	.insn	8, 0x3f3f3f3f3f3f3f3f
   1018a:	3f3f3f3f 3f3f3f3f 	.insn	8, 0x3f3f3f3f3f3f3f3f
   10192:	3f3f3f3f 3f3f3f3f 	.insn	8, 0x3f3f3f3f3f3f3f3f
   1019a:	3f3f3f3f 3f3f3f3f 	.insn	8, 0x3f3f3f3f3f3f3f3f
   101a2:	3f3f3f3f 3f3f3f3f 	.insn	8, 0x3f3f3f3f3f3f3f3f
   101aa:	3f3f3f3f 3f3f3f3f 	.insn	8, 0x3f3f3f3f3f3f3f3f
   101b2:	3f3f3f3f 3f3f3f3f 	.insn	8, 0x3f3f3f3f3f3f3f3f
   101ba:	3f3f3f3f 3f3f3f3f 	.insn	8, 0x3f3f3f3f3f3f3f3f
   101c2:	3f3f3f3f 3f3f3f3f 	.insn	8, 0x3f3f3f3f3f3f3f3f
   101ca:	3f3f3f3f 3f3f3f3f 	.insn	8, 0x3f3f3f3f3f3f3f3f
   101d2:	3f3f3f3f 3f3f3f3f 	.insn	8, 0x3f3f3f3f3f3f3f3f
   101da:	3f3f3f3f 3f3f3f3f 	.insn	8, 0x3f3f3f3f3f3f3f3f
   101e2:	3f3f3f3f 3f3f3f3f 	.insn	8, 0x3f3f3f3f3f3f3f3f
   101ea:	3f3f3f3f 3f3f3f3f 	.insn	8, 0x3f3f3f3f3f3f3f3f
   101f2:	3f3f3f3f 3f3f3f3f 	.insn	8, 0x3f3f3f3f3f3f3f3f
   101fa:	3f3f3f3f 3f3f3f3f 	.insn	8, 0x3f3f3f3f3f3f3f3f
   10202:	3f3f3f3f 3f3f3f3f 	.insn	8, 0x3f3f3f3f3f3f3f3f
   1020a:	3f3f3f3f 3f3f3f3f 	.insn	8, 0x3f3f3f3f3f3f3f3f
   10212:	3f3f3f3f 3f3f3f3f 	.insn	8, 0x3f3f3f3f3f3f3f3f
   1021a:	3f3f3f3f 3f3f3f3f 	.insn	8, 0x3f3f3f3f3f3f3f3f
   10222:	3f3f3f3f 3f3f3f3f 	.insn	8, 0x3f3f3f3f3f3f3f3f
   1022a:	3f3f3f3f 3f3f3f3f 	.insn	8, 0x3f3f3f3f3f3f3f3f
   10232:	3f3f3f3f 3f3f3f3f 	.insn	8, 0x3f3f3f3f3f3f3f3f
   1023a:	3f3f3f3f 3f3f3f3f 	.insn	8, 0x3f3f3f3f3f3f3f3f
   10242:	3f3f3f3f 3f3f3f3f 	.insn	8, 0x3f3f3f3f3f3f3f3f
   1024a:	3f3f3f3f 3f3f3f3f 	.insn	8, 0x3f3f3f3f3f3f3f3f
   10252:	3f3f3f3f 3f3f3f3f 	.insn	8, 0x3f3f3f3f3f3f3f3f
   1025a:	3f3f3f3f 3f3f3f3f 	.insn	8, 0x3f3f3f3f3f3f3f3f
   10262:	3f3f3f3f 3f3f3f3f 	.insn	8, 0x3f3f3f3f3f3f3f3f
   1026a:	3f3f3f3f 3f3f3f3f 	.insn	8, 0x3f3f3f3f3f3f3f3f
   10272:	3f3f3f3f 3f3f3f3f 	.insn	8, 0x3f3f3f3f3f3f3f3f
   1027a:	3f3f3f3f 3f3f3f3f 	.insn	8, 0x3f3f3f3f3f3f3f3f
   10282:	3f3f3f3f 3f3f3f3f 	.insn	8, 0x3f3f3f3f3f3f3f3f
   1028a:	3f3f3f3f 3f3f3f3f 	.insn	8, 0x3f3f3f3f3f3f3f3f
   10292:	3f3f3f3f 3f3f3f3f 	.insn	8, 0x3f3f3f3f3f3f3f3f
   1029a:	3f3f3f3f 3f3f3f3f 	.insn	8, 0x3f3f3f3f3f3f3f3f
   102a2:	3f3f3f3f 3f3f3f3f 	.insn	8, 0x3f3f3f3f3f3f3f3f
   102aa:	3f3f3f3f 3f3f3f3f 	.insn	8, 0x3f3f3f3f3f3f3f3f
   102b2:	3f3f3f3f 3f3f3f3f 	.insn	8, 0x3f3f3f3f3f3f3f3f
   102ba:	3f3f3f3f 3f3f3f3f 	.insn	8, 0x3f3f3f3f3f3f3f3f
   102c2:	3f3f3f3f 3f3f3f3f 	.insn	8, 0x3f3f3f3f3f3f3f3f
   102ca:	3f3f3f3f 3f3f3f3f 	.insn	8, 0x3f3f3f3f3f3f3f3f
   102d2:	3f3f3f3f 3f3f3f3f 	.insn	8, 0x3f3f3f3f3f3f3f3f
   102da:	3f3f3f3f 3f3f3f3f 	.insn	8, 0x3f3f3f3f3f3f3f3f
   102e2:	3f3f3f3f 3f3f3f3f 	.insn	8, 0x3f3f3f3f3f3f3f3f
   102ea:	3f3f3f3f 3f3f3f3f 	.insn	8, 0x3f3f3f3f3f3f3f3f
   102f2:	3f3f3f3f 3f3f3f3f 	.insn	8, 0x3f3f3f3f3f3f3f3f
   102fa:	3f3f3f3f 3f3f3f3f 	.insn	8, 0x3f3f3f3f3f3f3f3f
   10302:	3f3f3f3f 3f3f3f3f 	.insn	8, 0x3f3f3f3f3f3f3f3f
   1030a:	3f3f3f3f 3f3f3f3f 	.insn	8, 0x3f3f3f3f3f3f3f3f
   10312:	3f3f3f3f 3f3f3f3f 	.insn	8, 0x3f3f3f3f3f3f3f3f
   1031a:	3f3f3f3f 3f3f3f3f 	.insn	8, 0x3f3f3f3f3f3f3f3f
   10322:	3f3f3f3f 3f3f3f3f 	.insn	8, 0x3f3f3f3f3f3f3f3f
   1032a:	3f3f3f3f 3f3f3f3f 	.insn	8, 0x3f3f3f3f3f3f3f3f
   10332:	3f3f3f3f 3f3f3f3f 	.insn	8, 0x3f3f3f3f3f3f3f3f
   1033a:	3f3f3f3f 3f3f3f3f 	.insn	8, 0x3f3f3f3f3f3f3f3f
   10342:	3f3f3f3f 3f3f3f3f 	.insn	8, 0x3f3f3f3f3f3f3f3f
   1034a:	3f3f3f3f 3f3f3f3f 	.insn	8, 0x3f3f3f3f3f3f3f3f
   10352:	3f3f3f3f 3f3f3f3f 	.insn	8, 0x3f3f3f3f3f3f3f3f
   1035a:	3f3f3f3f 3f3f3f3f 	.insn	8, 0x3f3f3f3f3f3f3f3f
   10362:	3f3f3f3f 3f3f3f3f 	.insn	8, 0x3f3f3f3f3f3f3f3f
   1036a:	3f3f3f3f 3f3f3f3f 	.insn	8, 0x3f3f3f3f3f3f3f3f
   10372:	3f3f3f3f 3f3f3f3f 	.insn	8, 0x3f3f3f3f3f3f3f3f
   1037a:	3f3f3f3f 3f3f3f3f 	.insn	8, 0x3f3f3f3f3f3f3f3f
   10382:	3f3f3f3f 3f3f3f3f 	.insn	8, 0x3f3f3f3f3f3f3f3f
   1038a:	3f3f3f3f 3f3f3f3f 	.insn	8, 0x3f3f3f3f3f3f3f3f
   10392:	3f3f3f3f 3f3f3f3f 	.insn	8, 0x3f3f3f3f3f3f3f3f
   1039a:	3f3f3f3f 3f3f3f3f 	.insn	8, 0x3f3f3f3f3f3f3f3f
   103a2:	3f3f3f3f 3f3f3f3f 	.insn	8, 0x3f3f3f3f3f3f3f3f
   103aa:	3f3f3f3f 3f3f3f3f 	.insn	8, 0x3f3f3f3f3f3f3f3f
   103b2:	3f3f3f3f 3f3f3f3f 	.insn	8, 0x3f3f3f3f3f3f3f3f
   103ba:	3f3f3f3f 3f3f3f3f 	.insn	8, 0x3f3f3f3f3f3f3f3f
   103c2:	3f3f3f3f 3f3f3f3f 	.insn	8, 0x3f3f3f3f3f3f3f3f
   103ca:	3f3f3f3f 3f3f3f3f 	.insn	8, 0x3f3f3f3f3f3f3f3f
   103d2:	3f3f3f3f 3f3f3f3f 	.insn	8, 0x3f3f3f3f3f3f3f3f
   103da:	3f3f3f3f 3f3f3f3f 	.insn	8, 0x3f3f3f3f3f3f3f3f
   103e2:	3f3f3f3f 3f3f3f3f 	.insn	8, 0x3f3f3f3f3f3f3f3f
   103ea:	3f3f3f3f 3f3f3f3f 	.insn	8, 0x3f3f3f3f3f3f3f3f
   103f2:	3f3f3f3f 3f3f3f3f 	.insn	8, 0x3f3f3f3f3f3f3f3f
   103fa:	3f3f3f3f 3f3f3f3f 	.insn	8, 0x3f3f3f3f3f3f3f3f
   10402:	3f3f3f3f 3f3f3f3f 	.insn	8, 0x3f3f3f3f3f3f3f3f
   1040a:	3f3f3f3f 3f3f3f3f 	.insn	8, 0x3f3f3f3f3f3f3f3f
   10412:	3f3f3f3f 3f3f3f3f 	.insn	8, 0x3f3f3f3f3f3f3f3f
   1041a:	3f3f3f3f 3f3f3f3f 	.insn	8, 0x3f3f3f3f3f3f3f3f
   10422:	3f3f3f3f 3f3f3f3f 	.insn	8, 0x3f3f3f3f3f3f3f3f
   1042a:	3f3f3f3f 3f3f3f3f 	.insn	8, 0x3f3f3f3f3f3f3f3f
   10432:	3f3f3f3f 3f3f3f3f 	.insn	8, 0x3f3f3f3f3f3f3f3f
   1043a:	3f3f3f3f 3f3f3f3f 	.insn	8, 0x3f3f3f3f3f3f3f3f
   10442:	3f3f3f3f 3f3f3f3f 	.insn	8, 0x3f3f3f3f3f3f3f3f
   1044a:	3f3f3f3f 3f3f3f3f 	.insn	8, 0x3f3f3f3f3f3f3f3f
   10452:	3f3f3f3f 3f3f3f3f 	.insn	8, 0x3f3f3f3f3f3f3f3f
   1045a:	3f3f3f3f 3f3f3f3f 	.insn	8, 0x3f3f3f3f3f3f3f3f
   10462:	3f3f3f3f 3f3f3f3f 	.insn	8, 0x3f3f3f3f3f3f3f3f
   1046a:	3f3f3f3f 3f3f3f3f 	.insn	8, 0x3f3f3f3f3f3f3f3f
   10472:	3f3f3f3f 3f3f3f3f 	.insn	8, 0x3f3f3f3f3f3f3f3f
   1047a:	3f3f3f3f 3f3f3f3f 	.insn	8, 0x3f3f3f3f3f3f3f3f
   10482:	3f3f3f3f 3f3f3f3f 	.insn	8, 0x3f3f3f3f3f3f3f3f
   1048a:	3f3f3f3f 3f3f3f3f 	.insn	8, 0x3f3f3f3f3f3f3f3f
   10492:	3f3f3f3f 3f3f3f3f 	.insn	8, 0x3f3f3f3f3f3f3f3f
   1049a:	3f3f3f3f 3f3f3f3f 	.insn	8, 0x3f3f3f3f3f3f3f3f
   104a2:	3f3f3f3f 3f3f3f3f 	.insn	8, 0x3f3f3f3f3f3f3f3f
   104aa:	3f3f3f3f 3f3f3f3f 	.insn	8, 0x3f3f3f3f3f3f3f3f
   104b2:	3f3f3f3f 3f3f3f3f 	.insn	8, 0x3f3f3f3f3f3f3f3f
   104ba:	3f3f3f3f 3f3f3f3f 	.insn	8, 0x3f3f3f3f3f3f3f3f
   104c2:	3f3f3f3f 3f3f3f3f 	.insn	8, 0x3f3f3f3f3f3f3f3f
   104ca:	3f3f3f3f 3f3f3f3f 	.insn	8, 0x3f3f3f3f3f3f3f3f
   104d2:	3f3f3f3f 3f3f3f3f 	.insn	8, 0x3f3f3f3f3f3f3f3f
   104da:	3f3f3f3f 3f3f3f3f 	.insn	8, 0x3f3f3f3f3f3f3f3f
   104e2:	3f3f3f3f 3f3f3f3f 	.insn	8, 0x3f3f3f3f3f3f3f3f
   104ea:	3f3f3f3f 3f3f3f3f 	.insn	8, 0x3f3f3f3f3f3f3f3f
   104f2:	3f3f3f3f 3f3f3f3f 	.insn	8, 0x3f3f3f3f3f3f3f3f
   104fa:	3f3f3f3f 3f3f3f3f 	.insn	8, 0x3f3f3f3f3f3f3f3f
   10502:	3f3f3f3f 3f3f3f3f 	.insn	8, 0x3f3f3f3f3f3f3f3f
   1050a:	3f3f3f3f 3f3f3f3f 	.insn	8, 0x3f3f3f3f3f3f3f3f
   10512:	3f3f3f3f 3f3f3f3f 	.insn	8, 0x3f3f3f3f3f3f3f3f
   1051a:	3f3f3f3f 3f3f3f3f 	.insn	8, 0x3f3f3f3f3f3f3f3f
   10522:	3f3f3f3f 3f3f3f3f 	.insn	8, 0x3f3f3f3f3f3f3f3f
   1052a:	3f3f3f3f 3f3f3f3f 	.insn	8, 0x3f3f3f3f3f3f3f3f
   10532:	3f3f3f3f 3f3f3f3f 	.insn	8, 0x3f3f3f3f3f3f3f3f
   1053a:	3f3f3f3f 3f3f3f3f 	.insn	8, 0x3f3f3f3f3f3f3f3f
   10542:	3f3f3f3f 3f3f3f3f 	.insn	8, 0x3f3f3f3f3f3f3f3f
   1054a:	3f3f3f3f 3f3f3f3f 	.insn	8, 0x3f3f3f3f3f3f3f3f
   10552:	3f3f3f3f 3f3f3f3f 	.insn	8, 0x3f3f3f3f3f3f3f3f
   1055a:	3f3f3f3f 3f3f3f3f 	.insn	8, 0x3f3f3f3f3f3f3f3f
   10562:	3f3f3f3f 3f3f3f3f 	.insn	8, 0x3f3f3f3f3f3f3f3f
   1056a:	3f3f3f3f 3f3f3f3f 	.insn	8, 0x3f3f3f3f3f3f3f3f
   10572:	3f3f3f3f 3f3f3f3f 	.insn	8, 0x3f3f3f3f3f3f3f3f
   1057a:	3f3f3f3f 3f3f3f3f 	.insn	8, 0x3f3f3f3f3f3f3f3f
   10582:	3f3f3f3f 3f3f3f3f 	.insn	8, 0x3f3f3f3f3f3f3f3f
   1058a:	3f3f3f3f 3f3f3f3f 	.insn	8, 0x3f3f3f3f3f3f3f3f
   10592:	3f3f3f3f 3f3f3f3f 	.insn	8, 0x3f3f3f3f3f3f3f3f
   1059a:	3f3f3f3f 3f3f3f3f 	.insn	8, 0x3f3f3f3f3f3f3f3f
   105a2:	3f3f3f3f 3f3f3f3f 	.insn	8, 0x3f3f3f3f3f3f3f3f
   105aa:	3f3f3f3f 3f3f3f3f 	.insn	8, 0x3f3f3f3f3f3f3f3f
   105b2:	3f3f3f3f 3f3f3f3f 	.insn	8, 0x3f3f3f3f3f3f3f3f
   105ba:	3f3f3f3f 3f3f3f3f 	.insn	8, 0x3f3f3f3f3f3f3f3f
   105c2:	3f3f3f3f 3f3f3f3f 	.insn	8, 0x3f3f3f3f3f3f3f3f
   105ca:	3f3f3f3f 3f3f3f3f 	.insn	8, 0x3f3f3f3f3f3f3f3f
   105d2:	3f3f3f3f 3f3f3f3f 	.insn	8, 0x3f3f3f3f3f3f3f3f
   105da:	3f3f3f3f 3f3f3f3f 	.insn	8, 0x3f3f3f3f3f3f3f3f
   105e2:	3f3f3f3f 3f3f3f3f 	.insn	8, 0x3f3f3f3f3f3f3f3f
   105ea:	3f3f3f3f 3f3f3f3f 	.insn	8, 0x3f3f3f3f3f3f3f3f
   105f2:	3f3f3f3f 3f3f3f3f 	.insn	8, 0x3f3f3f3f3f3f3f3f
   105fa:	3f3f3f3f 3f3f3f3f 	.insn	8, 0x3f3f3f3f3f3f3f3f
   10602:	3f3f3f3f 3f3f3f3f 	.insn	8, 0x3f3f3f3f3f3f3f3f
   1060a:	3f3f3f3f 3f3f3f3f 	.insn	8, 0x3f3f3f3f3f3f3f3f
   10612:	3f3f3f3f 3f3f3f3f 	.insn	8, 0x3f3f3f3f3f3f3f3f
   1061a:	3f3f3f3f 3f3f3f3f 	.insn	8, 0x3f3f3f3f3f3f3f3f
   10622:	3f3f3f3f 3f3f3f3f 	.insn	8, 0x3f3f3f3f3f3f3f3f
   1062a:	3f3f3f3f 3f3f3f3f 	.insn	8, 0x3f3f3f3f3f3f3f3f
   10632:	3f3f3f3f 3f3f3f3f 	.insn	8, 0x3f3f3f3f3f3f3f3f
   1063a:	3f3f3f3f 3f3f3f3f 	.insn	8, 0x3f3f3f3f3f3f3f3f
   10642:	3f3f3f3f 3f3f3f3f 	.insn	8, 0x3f3f3f3f3f3f3f3f
   1064a:	3f3f3f3f 3f3f3f3f 	.insn	8, 0x3f3f3f3f3f3f3f3f
   10652:	3f3f3f3f 3f3f3f3f 	.insn	8, 0x3f3f3f3f3f3f3f3f
   1065a:	3f3f3f3f 3f3f3f3f 	.insn	8, 0x3f3f3f3f3f3f3f3f
   10662:	3f3f3f3f 3f3f3f3f 	.insn	8, 0x3f3f3f3f3f3f3f3f
   1066a:	3f3f3f3f 3f3f3f3f 	.insn	8, 0x3f3f3f3f3f3f3f3f
   10672:	3f3f3f3f 3f3f3f3f 	.insn	8, 0x3f3f3f3f3f3f3f3f
   1067a:	3f3f3f3f 3f3f3f3f 	.insn	8, 0x3f3f3f3f3f3f3f3f
   10682:	3f3f3f3f 3f3f3f3f 	.insn	8, 0x3f3f3f3f3f3f3f3f
   1068a:	3f3f3f3f 3f3f3f3f 	.insn	8, 0x3f3f3f3f3f3f3f3f
   10692:	3f3f3f3f 3f3f3f3f 	.insn	8, 0x3f3f3f3f3f3f3f3f
   1069a:	3f3f3f3f 3f3f3f3f 	.insn	8, 0x3f3f3f3f3f3f3f3f
   106a2:	3f3f3f3f 3f3f3f3f 	.insn	8, 0x3f3f3f3f3f3f3f3f
   106aa:	3f3f3f3f 3f3f3f3f 	.insn	8, 0x3f3f3f3f3f3f3f3f
   106b2:	3f3f3f3f 3f3f3f3f 	.insn	8, 0x3f3f3f3f3f3f3f3f
   106ba:	3f3f3f3f 3f3f3f3f 	.insn	8, 0x3f3f3f3f3f3f3f3f
   106c2:	3f3f3f3f 3f3f3f3f 	.insn	8, 0x3f3f3f3f3f3f3f3f
   106ca:	3f3f3f3f 3f3f3f3f 	.insn	8, 0x3f3f3f3f3f3f3f3f
   106d2:	3f3f3f3f 3f3f3f3f 	.insn	8, 0x3f3f3f3f3f3f3f3f
   106da:	3f3f3f3f 3f3f3f3f 	.insn	8, 0x3f3f3f3f3f3f3f3f
   106e2:	3f3f3f3f 3f3f3f3f 	.insn	8, 0x3f3f3f3f3f3f3f3f
   106ea:	3f3f3f3f 3f3f3f3f 	.insn	8, 0x3f3f3f3f3f3f3f3f
   106f2:	3f3f3f3f 3f3f3f3f 	.insn	8, 0x3f3f3f3f3f3f3f3f
   106fa:	3f3f3f3f 3f3f3f3f 	.insn	8, 0x3f3f3f3f3f3f3f3f
   10702:	3f3f3f3f 3f3f3f3f 	.insn	8, 0x3f3f3f3f3f3f3f3f
   1070a:	3f3f3f3f 3f3f3f3f 	.insn	8, 0x3f3f3f3f3f3f3f3f
   10712:	3f3f3f3f 3f3f3f3f 	.insn	8, 0x3f3f3f3f3f3f3f3f
   1071a:	3f3f3f3f 3f3f3f3f 	.insn	8, 0x3f3f3f3f3f3f3f3f
   10722:	3f3f3f3f 3f3f3f3f 	.insn	8, 0x3f3f3f3f3f3f3f3f
   1072a:	3f3f3f3f 3f3f3f3f 	.insn	8, 0x3f3f3f3f3f3f3f3f
   10732:	3f3f3f3f 3f3f3f3f 	.insn	8, 0x3f3f3f3f3f3f3f3f
   1073a:	3f3f3f3f 3f3f3f3f 	.insn	8, 0x3f3f3f3f3f3f3f3f
   10742:	3f3f3f3f 3f3f3f3f 	.insn	8, 0x3f3f3f3f3f3f3f3f
   1074a:	3f3f3f3f 3f3f3f3f 	.insn	8, 0x3f3f3f3f3f3f3f3f
   10752:	3f3f3f3f 3f3f3f3f 	.insn	8, 0x3f3f3f3f3f3f3f3f
   1075a:	3f3f3f3f 3f3f3f3f 	.insn	8, 0x3f3f3f3f3f3f3f3f
   10762:	3f3f3f3f 3f3f3f3f 	.insn	8, 0x3f3f3f3f3f3f3f3f
   1076a:	3f3f3f3f 3f3f3f3f 	.insn	8, 0x3f3f3f3f3f3f3f3f
   10772:	3f3f3f3f 3f3f3f3f 	.insn	8, 0x3f3f3f3f3f3f3f3f
   1077a:	3f3f3f3f 3f3f3f3f 	.insn	8, 0x3f3f3f3f3f3f3f3f
   10782:	3f3f3f3f 3f3f3f3f 	.insn	8, 0x3f3f3f3f3f3f3f3f
   1078a:	3f3f3f3f 3f3f3f3f 	.insn	8, 0x3f3f3f3f3f3f3f3f
   10792:	3f3f3f3f 3f3f3f3f 	.insn	8, 0x3f3f3f3f3f3f3f3f
   1079a:	3f3f3f3f 3f3f3f3f 	.insn	8, 0x3f3f3f3f3f3f3f3f
   107a2:	3f3f3f3f 3f3f3f3f 	.insn	8, 0x3f3f3f3f3f3f3f3f
   107aa:	3f3f3f3f 3f3f3f3f 	.insn	8, 0x3f3f3f3f3f3f3f3f
   107b2:	3f3f3f3f 3f3f3f3f 	.insn	8, 0x3f3f3f3f3f3f3f3f
   107ba:	3f3f3f3f 3f3f3f3f 	.insn	8, 0x3f3f3f3f3f3f3f3f
   107c2:	3f3f3f3f 3f3f3f3f 	.insn	8, 0x3f3f3f3f3f3f3f3f
   107ca:	3f3f3f3f 3f3f3f3f 	.insn	8, 0x3f3f3f3f3f3f3f3f
   107d2:	3f3f3f3f 3f3f3f3f 	.insn	8, 0x3f3f3f3f3f3f3f3f
   107da:	3f3f3f3f 3f3f3f3f 	.insn	8, 0x3f3f3f3f3f3f3f3f
   107e2:	3f3f3f3f 3f3f3f3f 	.insn	8, 0x3f3f3f3f3f3f3f3f
   107ea:	3f3f3f3f 3f3f3f3f 	.insn	8, 0x3f3f3f3f3f3f3f3f
   107f2:	3f3f3f3f 3f3f3f3f 	.insn	8, 0x3f3f3f3f3f3f3f3f
   107fa:	3f3f3f3f 3f3f3f3f 	.insn	8, 0x3f3f3f3f3f3f3f3f
   10802:	3f3f3f3f 3f3f3f3f 	.insn	8, 0x3f3f3f3f3f3f3f3f
   1080a:	3f3f3f3f 3f3f3f3f 	.insn	8, 0x3f3f3f3f3f3f3f3f
   10812:	3f3f3f3f 3f3f3f3f 	.insn	8, 0x3f3f3f3f3f3f3f3f
   1081a:	3f3f3f3f 3f3f3f3f 	.insn	8, 0x3f3f3f3f3f3f3f3f
   10822:	3f3f3f3f 3f3f3f3f 	.insn	8, 0x3f3f3f3f3f3f3f3f
   1082a:	3f3f3f3f 3f3f3f3f 	.insn	8, 0x3f3f3f3f3f3f3f3f
   10832:	3f3f3f3f 3f3f3f3f 	.insn	8, 0x3f3f3f3f3f3f3f3f
   1083a:	3f3f3f3f 3f3f3f3f 	.insn	8, 0x3f3f3f3f3f3f3f3f
   10842:	3f3f3f3f 3f3f3f3f 	.insn	8, 0x3f3f3f3f3f3f3f3f
   1084a:	3f3f3f3f 3f3f3f3f 	.insn	8, 0x3f3f3f3f3f3f3f3f
   10852:	3f3f3f3f 3f3f3f3f 	.insn	8, 0x3f3f3f3f3f3f3f3f
   1085a:	3f3f3f3f 3f3f3f3f 	.insn	8, 0x3f3f3f3f3f3f3f3f
   10862:	3f3f3f3f 3f3f3f3f 	.insn	8, 0x3f3f3f3f3f3f3f3f
   1086a:	3f3f3f3f 3f3f3f3f 	.insn	8, 0x3f3f3f3f3f3f3f3f
   10872:	3f3f3f3f 3f3f3f3f 	.insn	8, 0x3f3f3f3f3f3f3f3f
   1087a:	3f3f3f3f 3f3f3f3f 	.insn	8, 0x3f3f3f3f3f3f3f3f
   10882:	3f3f3f3f 3f3f3f3f 	.insn	8, 0x3f3f3f3f3f3f3f3f
   1088a:	3f3f3f3f 3f3f3f3f 	.insn	8, 0x3f3f3f3f3f3f3f3f
   10892:	3f3f3f3f 3f3f3f3f 	.insn	8, 0x3f3f3f3f3f3f3f3f
   1089a:	3f3f3f3f 3f3f3f3f 	.insn	8, 0x3f3f3f3f3f3f3f3f
   108a2:	3f3f3f3f 3f3f3f3f 	.insn	8, 0x3f3f3f3f3f3f3f3f
   108aa:	3f3f3f3f 3f3f3f3f 	.insn	8, 0x3f3f3f3f3f3f3f3f
   108b2:	3f3f3f3f 3f3f3f3f 	.insn	8, 0x3f3f3f3f3f3f3f3f
   108ba:	3f3f3f3f 3f3f3f3f 	.insn	8, 0x3f3f3f3f3f3f3f3f
   108c2:	3f3f3f3f 3f3f3f3f 	.insn	8, 0x3f3f3f3f3f3f3f3f
   108ca:	3f3f3f3f 3f3f3f3f 	.insn	8, 0x3f3f3f3f3f3f3f3f
   108d2:	3f3f3f3f 3f3f3f3f 	.insn	8, 0x3f3f3f3f3f3f3f3f
   108da:	3f3f3f3f 3f3f3f3f 	.insn	8, 0x3f3f3f3f3f3f3f3f
   108e2:	3f3f3f3f 3f3f3f3f 	.insn	8, 0x3f3f3f3f3f3f3f3f
   108ea:	3f3f3f3f 3f3f3f3f 	.insn	8, 0x3f3f3f3f3f3f3f3f
   108f2:	3f3f3f3f 3f3f3f3f 	.insn	8, 0x3f3f3f3f3f3f3f3f
   108fa:	3f3f3f3f 3f3f3f3f 	.insn	8, 0x3f3f3f3f3f3f3f3f
   10902:	3f3f3f3f 3f3f3f3f 	.insn	8, 0x3f3f3f3f3f3f3f3f
   1090a:	3f3f3f3f 3f3f3f3f 	.insn	8, 0x3f3f3f3f3f3f3f3f
   10912:	3f3f3f3f 3f3f3f3f 	.insn	8, 0x3f3f3f3f3f3f3f3f
   1091a:	3f3f3f3f 3f3f3f3f 	.insn	8, 0x3f3f3f3f3f3f3f3f
   10922:	3f3f3f3f 3f3f3f3f 	.insn	8, 0x3f3f3f3f3f3f3f3f
   1092a:	3f3f3f3f 3f3f3f3f 	.insn	8, 0x3f3f3f3f3f3f3f3f
   10932:	3f3f3f3f 3f3f3f3f 	.insn	8, 0x3f3f3f3f3f3f3f3f
   1093a:	3f3f3f3f 3f3f3f3f 	.insn	8, 0x3f3f3f3f3f3f3f3f
   10942:	3f3f3f3f 3f3f3f3f 	.insn	8, 0x3f3f3f3f3f3f3f3f
   1094a:	3f3f3f3f 3f3f3f3f 	.insn	8, 0x3f3f3f3f3f3f3f3f
   10952:	3f3f3f3f 3f3f3f3f 	.insn	8, 0x3f3f3f3f3f3f3f3f
   1095a:	3f3f3f3f 3f3f3f3f 	.insn	8, 0x3f3f3f3f3f3f3f3f
   10962:	3f3f3f3f 3f3f3f3f 	.insn	8, 0x3f3f3f3f3f3f3f3f
   1096a:	3f3f3f3f 3f3f3f3f 	.insn	8, 0x3f3f3f3f3f3f3f3f
   10972:	3f3f3f3f 3f3f3f3f 	.insn	8, 0x3f3f3f3f3f3f3f3f
   1097a:	3f3f3f3f 3f3f3f3f 	.insn	8, 0x3f3f3f3f3f3f3f3f
   10982:	3f3f3f3f 3f3f3f3f 	.insn	8, 0x3f3f3f3f3f3f3f3f
   1098a:	3f3f3f3f 3f3f3f3f 	.insn	8, 0x3f3f3f3f3f3f3f3f
   10992:	3f3f3f3f 3f3f3f3f 	.insn	8, 0x3f3f3f3f3f3f3f3f
   1099a:	3f3f3f3f 3f3f3f3f 	.insn	8, 0x3f3f3f3f3f3f3f3f
   109a2:	3f3f3f3f 3f3f3f3f 	.insn	8, 0x3f3f3f3f3f3f3f3f
   109aa:	3f3f3f3f 3f3f3f3f 	.insn	8, 0x3f3f3f3f3f3f3f3f
   109b2:	3f3f3f3f 3f3f3f3f 	.insn	8, 0x3f3f3f3f3f3f3f3f
   109ba:	3f3f3f3f 3f3f3f3f 	.insn	8, 0x3f3f3f3f3f3f3f3f
   109c2:	3f3f3f3f 3f3f3f3f 	.insn	8, 0x3f3f3f3f3f3f3f3f
   109ca:	3f3f3f3f 3f3f3f3f 	.insn	8, 0x3f3f3f3f3f3f3f3f
   109d2:	3f3f3f3f 3f3f3f3f 	.insn	8, 0x3f3f3f3f3f3f3f3f
   109da:	3f3f3f3f 3f3f3f3f 	.insn	8, 0x3f3f3f3f3f3f3f3f
   109e2:	3f3f3f3f 3f3f3f3f 	.insn	8, 0x3f3f3f3f3f3f3f3f
   109ea:	3f3f3f3f 3f3f3f3f 	.insn	8, 0x3f3f3f3f3f3f3f3f
   109f2:	3f3f3f3f 3f3f3f3f 	.insn	8, 0x3f3f3f3f3f3f3f3f
   109fa:	3f3f3f3f 3f3f3f3f 	.insn	8, 0x3f3f3f3f3f3f3f3f
   10a02:	3f3f3f3f 3f3f3f3f 	.insn	8, 0x3f3f3f3f3f3f3f3f
   10a0a:	3f3f3f3f 3f3f3f3f 	.insn	8, 0x3f3f3f3f3f3f3f3f
   10a12:	3f3f3f3f 3f3f3f3f 	.insn	8, 0x3f3f3f3f3f3f3f3f
   10a1a:	3f3f3f3f 3f3f3f3f 	.insn	8, 0x3f3f3f3f3f3f3f3f
   10a22:	3f3f3f3f 3f3f3f3f 	.insn	8, 0x3f3f3f3f3f3f3f3f
   10a2a:	3f3f3f3f 3f3f3f3f 	.insn	8, 0x3f3f3f3f3f3f3f3f
   10a32:	3f3f3f3f 3f3f3f3f 	.insn	8, 0x3f3f3f3f3f3f3f3f
   10a3a:	3f3f3f3f 3f3f3f3f 	.insn	8, 0x3f3f3f3f3f3f3f3f
   10a42:	3f3f3f3f 3f3f3f3f 	.insn	8, 0x3f3f3f3f3f3f3f3f
   10a4a:	3f3f3f3f 3f3f3f3f 	.insn	8, 0x3f3f3f3f3f3f3f3f
   10a52:	3f3f3f3f 3f3f3f3f 	.insn	8, 0x3f3f3f3f3f3f3f3f
   10a5a:	3f3f3f3f 3f3f3f3f 	.insn	8, 0x3f3f3f3f3f3f3f3f
   10a62:	3f3f3f3f 3f3f3f3f 	.insn	8, 0x3f3f3f3f3f3f3f3f
   10a6a:	3f3f3f3f 3f3f3f3f 	.insn	8, 0x3f3f3f3f3f3f3f3f
   10a72:	3f3f3f3f 3f3f3f3f 	.insn	8, 0x3f3f3f3f3f3f3f3f
   10a7a:	3f3f3f3f 3f3f3f3f 	.insn	8, 0x3f3f3f3f3f3f3f3f
   10a82:	3f3f3f3f 3f3f3f3f 	.insn	8, 0x3f3f3f3f3f3f3f3f
   10a8a:	3f3f3f3f 3f3f3f3f 	.insn	8, 0x3f3f3f3f3f3f3f3f
   10a92:	3f3f3f3f 3f3f3f3f 	.insn	8, 0x3f3f3f3f3f3f3f3f
   10a9a:	3f3f3f3f 3f3f3f3f 	.insn	8, 0x3f3f3f3f3f3f3f3f
   10aa2:	3f3f3f3f 3f3f3f3f 	.insn	8, 0x3f3f3f3f3f3f3f3f
   10aaa:	3f3f3f3f 3f3f3f3f 	.insn	8, 0x3f3f3f3f3f3f3f3f
   10ab2:	3f3f3f3f 3f3f3f3f 	.insn	8, 0x3f3f3f3f3f3f3f3f
   10aba:	3f3f3f3f 3f3f3f3f 	.insn	8, 0x3f3f3f3f3f3f3f3f
   10ac2:	3f3f3f3f 3f3f3f3f 	.insn	8, 0x3f3f3f3f3f3f3f3f
   10aca:	3f3f3f3f 3f3f3f3f 	.insn	8, 0x3f3f3f3f3f3f3f3f
   10ad2:	3f3f3f3f 3f3f3f3f 	.insn	8, 0x3f3f3f3f3f3f3f3f
   10ada:	3f3f3f3f 3f3f3f3f 	.insn	8, 0x3f3f3f3f3f3f3f3f
   10ae2:	3f3f3f3f 3f3f3f3f 	.insn	8, 0x3f3f3f3f3f3f3f3f
   10aea:	3f3f3f3f 3f3f3f3f 	.insn	8, 0x3f3f3f3f3f3f3f3f
   10af2:	3f3f3f3f 3f3f3f3f 	.insn	8, 0x3f3f3f3f3f3f3f3f
   10afa:	3f3f3f3f 3f3f3f3f 	.insn	8, 0x3f3f3f3f3f3f3f3f
   10b02:	3f3f3f3f 3f3f3f3f 	.insn	8, 0x3f3f3f3f3f3f3f3f
   10b0a:	3f3f3f3f 3f3f3f3f 	.insn	8, 0x3f3f3f3f3f3f3f3f
   10b12:	3f3f3f3f 3f3f3f3f 	.insn	8, 0x3f3f3f3f3f3f3f3f
   10b1a:	3f3f3f3f 3f3f3f3f 	.insn	8, 0x3f3f3f3f3f3f3f3f
   10b22:	3f3f3f3f 3f3f3f3f 	.insn	8, 0x3f3f3f3f3f3f3f3f
   10b2a:	3f3f3f3f 3f3f3f3f 	.insn	8, 0x3f3f3f3f3f3f3f3f
   10b32:	3f3f3f3f 3f3f3f3f 	.insn	8, 0x3f3f3f3f3f3f3f3f
   10b3a:	3f3f3f3f 3f3f3f3f 	.insn	8, 0x3f3f3f3f3f3f3f3f
   10b42:	3f3f3f3f 3f3f3f3f 	.insn	8, 0x3f3f3f3f3f3f3f3f
   10b4a:	3f3f3f3f 3f3f3f3f 	.insn	8, 0x3f3f3f3f3f3f3f3f
   10b52:	3f3f3f3f 3f3f3f3f 	.insn	8, 0x3f3f3f3f3f3f3f3f
   10b5a:	3f3f3f3f 3f3f3f3f 	.insn	8, 0x3f3f3f3f3f3f3f3f
   10b62:	3f3f3f3f 3f3f3f3f 	.insn	8, 0x3f3f3f3f3f3f3f3f
   10b6a:	3f3f3f3f 3f3f3f3f 	.insn	8, 0x3f3f3f3f3f3f3f3f
   10b72:	3f3f3f3f 3f3f3f3f 	.insn	8, 0x3f3f3f3f3f3f3f3f
   10b7a:	3f3f3f3f 3f3f3f3f 	.insn	8, 0x3f3f3f3f3f3f3f3f
   10b82:	3f3f3f3f 3f3f3f3f 	.insn	8, 0x3f3f3f3f3f3f3f3f
   10b8a:	3f3f3f3f 3f3f3f3f 	.insn	8, 0x3f3f3f3f3f3f3f3f
   10b92:	3f3f3f3f 3f3f3f3f 	.insn	8, 0x3f3f3f3f3f3f3f3f
   10b9a:	3f3f3f3f 3f3f3f3f 	.insn	8, 0x3f3f3f3f3f3f3f3f
   10ba2:	3f3f3f3f 3f3f3f3f 	.insn	8, 0x3f3f3f3f3f3f3f3f
   10baa:	3f3f3f3f 3f3f3f3f 	.insn	8, 0x3f3f3f3f3f3f3f3f
   10bb2:	3f3f3f3f 3f3f3f3f 	.insn	8, 0x3f3f3f3f3f3f3f3f
   10bba:	3f3f3f3f 3f3f3f3f 	.insn	8, 0x3f3f3f3f3f3f3f3f
   10bc2:	3f3f3f3f 3f3f3f3f 	.insn	8, 0x3f3f3f3f3f3f3f3f
   10bca:	3f3f3f3f 3f3f3f3f 	.insn	8, 0x3f3f3f3f3f3f3f3f
   10bd2:	3f3f3f3f 3f3f3f3f 	.insn	8, 0x3f3f3f3f3f3f3f3f
   10bda:	3f3f3f3f 3f3f3f3f 	.insn	8, 0x3f3f3f3f3f3f3f3f
   10be2:	3f3f3f3f 3f3f3f3f 	.insn	8, 0x3f3f3f3f3f3f3f3f
   10bea:	3f3f3f3f 3f3f3f3f 	.insn	8, 0x3f3f3f3f3f3f3f3f
   10bf2:	3f3f3f3f 3f3f3f3f 	.insn	8, 0x3f3f3f3f3f3f3f3f
   10bfa:	3f3f3f3f 3f3f3f3f 	.insn	8, 0x3f3f3f3f3f3f3f3f
   10c02:	3f3f3f3f 3f3f3f3f 	.insn	8, 0x3f3f3f3f3f3f3f3f
   10c0a:	3f3f3f3f 3f3f3f3f 	.insn	8, 0x3f3f3f3f3f3f3f3f
   10c12:	3f3f3f3f 3f3f3f3f 	.insn	8, 0x3f3f3f3f3f3f3f3f
   10c1a:	3f3f3f3f 3f3f3f3f 	.insn	8, 0x3f3f3f3f3f3f3f3f
   10c22:	3f3f3f3f 3f3f3f3f 	.insn	8, 0x3f3f3f3f3f3f3f3f
   10c2a:	3f3f3f3f 3f3f3f3f 	.insn	8, 0x3f3f3f3f3f3f3f3f
   10c32:	3f3f3f3f 3f3f3f3f 	.insn	8, 0x3f3f3f3f3f3f3f3f
   10c3a:	3f3f3f3f 3f3f3f3f 	.insn	8, 0x3f3f3f3f3f3f3f3f
   10c42:	3f3f3f3f 3f3f3f3f 	.insn	8, 0x3f3f3f3f3f3f3f3f
   10c4a:	3f3f3f3f 3f3f3f3f 	.insn	8, 0x3f3f3f3f3f3f3f3f
   10c52:	3f3f3f3f 3f3f3f3f 	.insn	8, 0x3f3f3f3f3f3f3f3f
   10c5a:	3f3f3f3f 3f3f3f3f 	.insn	8, 0x3f3f3f3f3f3f3f3f
   10c62:	3f3f3f3f 3f3f3f3f 	.insn	8, 0x3f3f3f3f3f3f3f3f
   10c6a:	3f3f3f3f 3f3f3f3f 	.insn	8, 0x3f3f3f3f3f3f3f3f
   10c72:	3f3f3f3f 3f3f3f3f 	.insn	8, 0x3f3f3f3f3f3f3f3f
   10c7a:	3f3f3f3f 3f3f3f3f 	.insn	8, 0x3f3f3f3f3f3f3f3f
   10c82:	3f3f3f3f 3f3f3f3f 	.insn	8, 0x3f3f3f3f3f3f3f3f
   10c8a:	3f3f3f3f 3f3f3f3f 	.insn	8, 0x3f3f3f3f3f3f3f3f
   10c92:	3f3f3f3f 3f3f3f3f 	.insn	8, 0x3f3f3f3f3f3f3f3f
   10c9a:	3f3f3f3f 3f3f3f3f 	.insn	8, 0x3f3f3f3f3f3f3f3f
   10ca2:	3f3f3f3f 3f3f3f3f 	.insn	8, 0x3f3f3f3f3f3f3f3f
   10caa:	3f3f3f3f 3f3f3f3f 	.insn	8, 0x3f3f3f3f3f3f3f3f
   10cb2:	3f3f3f3f 3f3f3f3f 	.insn	8, 0x3f3f3f3f3f3f3f3f
   10cba:	3f3f3f3f 3f3f3f3f 	.insn	8, 0x3f3f3f3f3f3f3f3f
   10cc2:	3f3f3f3f 3f3f3f3f 	.insn	8, 0x3f3f3f3f3f3f3f3f
   10cca:	3f3f3f3f 3f3f3f3f 	.insn	8, 0x3f3f3f3f3f3f3f3f
   10cd2:	3f3f3f3f 3f3f3f3f 	.insn	8, 0x3f3f3f3f3f3f3f3f
   10cda:	3f3f3f3f 3f3f3f3f 	.insn	8, 0x3f3f3f3f3f3f3f3f
   10ce2:	3f3f3f3f 3f3f3f3f 	.insn	8, 0x3f3f3f3f3f3f3f3f
   10cea:	3f3f3f3f 3f3f3f3f 	.insn	8, 0x3f3f3f3f3f3f3f3f
   10cf2:	3f3f3f3f 3f3f3f3f 	.insn	8, 0x3f3f3f3f3f3f3f3f
   10cfa:	3f3f3f3f 3f3f3f3f 	.insn	8, 0x3f3f3f3f3f3f3f3f
   10d02:	3f3f3f3f 3f3f3f3f 	.insn	8, 0x3f3f3f3f3f3f3f3f
   10d0a:	3f3f3f3f 3f3f3f3f 	.insn	8, 0x3f3f3f3f3f3f3f3f
   10d12:	3f3f3f3f 3f3f3f3f 	.insn	8, 0x3f3f3f3f3f3f3f3f
   10d1a:	3f3f3f3f 3f3f3f3f 	.insn	8, 0x3f3f3f3f3f3f3f3f
   10d22:	3f3f3f3f 3f3f3f3f 	.insn	8, 0x3f3f3f3f3f3f3f3f
   10d2a:	3f3f3f3f 3f3f3f3f 	.insn	8, 0x3f3f3f3f3f3f3f3f
   10d32:	3f3f3f3f 3f3f3f3f 	.insn	8, 0x3f3f3f3f3f3f3f3f
   10d3a:	3f3f3f3f 3f3f3f3f 	.insn	8, 0x3f3f3f3f3f3f3f3f
   10d42:	3f3f3f3f 3f3f3f3f 	.insn	8, 0x3f3f3f3f3f3f3f3f
   10d4a:	3f3f3f3f 3f3f3f3f 	.insn	8, 0x3f3f3f3f3f3f3f3f
   10d52:	3f3f3f3f 3f3f3f3f 	.insn	8, 0x3f3f3f3f3f3f3f3f
   10d5a:	3f3f3f3f 3f3f3f3f 	.insn	8, 0x3f3f3f3f3f3f3f3f
   10d62:	3f3f3f3f 3f3f3f3f 	.insn	8, 0x3f3f3f3f3f3f3f3f
   10d6a:	3f3f3f3f 3f3f3f3f 	.insn	8, 0x3f3f3f3f3f3f3f3f
   10d72:	3f3f3f3f 3f3f3f3f 	.insn	8, 0x3f3f3f3f3f3f3f3f
   10d7a:	3f3f3f3f 3f3f3f3f 	.insn	8, 0x3f3f3f3f3f3f3f3f
   10d82:	3f3f3f3f 3f3f3f3f 	.insn	8, 0x3f3f3f3f3f3f3f3f
   10d8a:	3f3f3f3f 3f3f3f3f 	.insn	8, 0x3f3f3f3f3f3f3f3f
   10d92:	3f3f3f3f 3f3f3f3f 	.insn	8, 0x3f3f3f3f3f3f3f3f
   10d9a:	3f3f3f3f 3f3f3f3f 	.insn	8, 0x3f3f3f3f3f3f3f3f
   10da2:	3f3f3f3f 3f3f3f3f 	.insn	8, 0x3f3f3f3f3f3f3f3f
   10daa:	3f3f3f3f 3f3f3f3f 	.insn	8, 0x3f3f3f3f3f3f3f3f
   10db2:	3f3f3f3f 3f3f3f3f 	.insn	8, 0x3f3f3f3f3f3f3f3f
   10dba:	3f3f3f3f 3f3f3f3f 	.insn	8, 0x3f3f3f3f3f3f3f3f
   10dc2:	3f3f3f3f 3f3f3f3f 	.insn	8, 0x3f3f3f3f3f3f3f3f
   10dca:	3f3f3f3f 3f3f3f3f 	.insn	8, 0x3f3f3f3f3f3f3f3f
   10dd2:	3f3f3f3f 3f3f3f3f 	.insn	8, 0x3f3f3f3f3f3f3f3f
   10dda:	3f3f3f3f 3f3f3f3f 	.insn	8, 0x3f3f3f3f3f3f3f3f
   10de2:	3f3f3f3f 3f3f3f3f 	.insn	8, 0x3f3f3f3f3f3f3f3f
   10dea:	3f3f3f3f 3f3f3f3f 	.insn	8, 0x3f3f3f3f3f3f3f3f
   10df2:	3f3f3f3f 3f3f3f3f 	.insn	8, 0x3f3f3f3f3f3f3f3f
   10dfa:	3f3f3f3f 3f3f3f3f 	.insn	8, 0x3f3f3f3f3f3f3f3f
   10e02:	3f3f3f3f 3f3f3f3f 	.insn	8, 0x3f3f3f3f3f3f3f3f
   10e0a:	3f3f3f3f 3f3f3f3f 	.insn	8, 0x3f3f3f3f3f3f3f3f
   10e12:	3f3f3f3f 3f3f3f3f 	.insn	8, 0x3f3f3f3f3f3f3f3f
   10e1a:	3f3f3f3f 3f3f3f3f 	.insn	8, 0x3f3f3f3f3f3f3f3f
   10e22:	3f3f3f3f 3f3f3f3f 	.insn	8, 0x3f3f3f3f3f3f3f3f
   10e2a:	3f3f3f3f 3f3f3f3f 	.insn	8, 0x3f3f3f3f3f3f3f3f
   10e32:	3f3f3f3f 3f3f3f3f 	.insn	8, 0x3f3f3f3f3f3f3f3f
   10e3a:	3f3f3f3f 3f3f3f3f 	.insn	8, 0x3f3f3f3f3f3f3f3f
   10e42:	3f3f3f3f 3f3f3f3f 	.insn	8, 0x3f3f3f3f3f3f3f3f
   10e4a:	3f3f3f3f 3f3f3f3f 	.insn	8, 0x3f3f3f3f3f3f3f3f
   10e52:	3f3f3f3f 3f3f3f3f 	.insn	8, 0x3f3f3f3f3f3f3f3f
   10e5a:	3f3f3f3f 3f3f3f3f 	.insn	8, 0x3f3f3f3f3f3f3f3f
   10e62:	3f3f3f3f 3f3f3f3f 	.insn	8, 0x3f3f3f3f3f3f3f3f
   10e6a:	3f3f3f3f 3f3f3f3f 	.insn	8, 0x3f3f3f3f3f3f3f3f
   10e72:	3f3f3f3f 3f3f3f3f 	.insn	8, 0x3f3f3f3f3f3f3f3f
   10e7a:	3f3f3f3f 3f3f3f3f 	.insn	8, 0x3f3f3f3f3f3f3f3f
   10e82:	3f3f3f3f 3f3f3f3f 	.insn	8, 0x3f3f3f3f3f3f3f3f
   10e8a:	3f3f3f3f 3f3f3f3f 	.insn	8, 0x3f3f3f3f3f3f3f3f
   10e92:	3f3f3f3f 3f3f3f3f 	.insn	8, 0x3f3f3f3f3f3f3f3f
   10e9a:	3f3f3f3f 3f3f3f3f 	.insn	8, 0x3f3f3f3f3f3f3f3f
   10ea2:	3f3f3f3f 3f3f3f3f 	.insn	8, 0x3f3f3f3f3f3f3f3f
   10eaa:	3f3f3f3f 3f3f3f3f 	.insn	8, 0x3f3f3f3f3f3f3f3f
   10eb2:	3f3f3f3f 3f3f3f3f 	.insn	8, 0x3f3f3f3f3f3f3f3f
   10eba:	3f3f3f3f 3f3f3f3f 	.insn	8, 0x3f3f3f3f3f3f3f3f
   10ec2:	3f3f3f3f 3f3f3f3f 	.insn	8, 0x3f3f3f3f3f3f3f3f
   10eca:	3f3f3f3f 3f3f3f3f 	.insn	8, 0x3f3f3f3f3f3f3f3f
   10ed2:	3f3f3f3f 3f3f3f3f 	.insn	8, 0x3f3f3f3f3f3f3f3f
   10eda:	3f3f3f3f 3f3f3f3f 	.insn	8, 0x3f3f3f3f3f3f3f3f
   10ee2:	3f3f3f3f 3f3f3f3f 	.insn	8, 0x3f3f3f3f3f3f3f3f
   10eea:	3f3f3f3f 3f3f3f3f 	.insn	8, 0x3f3f3f3f3f3f3f3f
   10ef2:	3f3f3f3f 3f3f3f3f 	.insn	8, 0x3f3f3f3f3f3f3f3f
   10efa:	3f3f3f3f 3f3f3f3f 	.insn	8, 0x3f3f3f3f3f3f3f3f
   10f02:	3f3f3f3f 3f3f3f3f 	.insn	8, 0x3f3f3f3f3f3f3f3f
   10f0a:	3f3f3f3f 3f3f3f3f 	.insn	8, 0x3f3f3f3f3f3f3f3f
   10f12:	3f3f3f3f 3f3f3f3f 	.insn	8, 0x3f3f3f3f3f3f3f3f
   10f1a:	3f3f3f3f 3f3f3f3f 	.insn	8, 0x3f3f3f3f3f3f3f3f
   10f22:	3f3f3f3f 3f3f3f3f 	.insn	8, 0x3f3f3f3f3f3f3f3f
   10f2a:	3f3f3f3f 3f3f3f3f 	.insn	8, 0x3f3f3f3f3f3f3f3f
   10f32:	3f3f3f3f 3f3f3f3f 	.insn	8, 0x3f3f3f3f3f3f3f3f
   10f3a:	3f3f3f3f 3f3f3f3f 	.insn	8, 0x3f3f3f3f3f3f3f3f
   10f42:	3f3f3f3f 3f3f3f3f 	.insn	8, 0x3f3f3f3f3f3f3f3f
   10f4a:	3f3f3f3f 3f3f3f3f 	.insn	8, 0x3f3f3f3f3f3f3f3f
   10f52:	3f3f3f3f 3f3f3f3f 	.insn	8, 0x3f3f3f3f3f3f3f3f
   10f5a:	3f3f3f3f 3f3f3f3f 	.insn	8, 0x3f3f3f3f3f3f3f3f
   10f62:	3f3f3f3f 3f3f3f3f 	.insn	8, 0x3f3f3f3f3f3f3f3f
   10f6a:	3f3f3f3f 3f3f3f3f 	.insn	8, 0x3f3f3f3f3f3f3f3f
   10f72:	3f3f3f3f 3f3f3f3f 	.insn	8, 0x3f3f3f3f3f3f3f3f
   10f7a:	3f3f3f3f 3f3f3f3f 	.insn	8, 0x3f3f3f3f3f3f3f3f
   10f82:	3f3f3f3f 3f3f3f3f 	.insn	8, 0x3f3f3f3f3f3f3f3f
   10f8a:	3f3f3f3f 3f3f3f3f 	.insn	8, 0x3f3f3f3f3f3f3f3f
   10f92:	3f3f3f3f 3f3f3f3f 	.insn	8, 0x3f3f3f3f3f3f3f3f
   10f9a:	3f3f3f3f 3f3f3f3f 	.insn	8, 0x3f3f3f3f3f3f3f3f
   10fa2:	3f3f3f3f 3f3f3f3f 	.insn	8, 0x3f3f3f3f3f3f3f3f
   10faa:	3f3f3f3f 3f3f3f3f 	.insn	8, 0x3f3f3f3f3f3f3f3f
   10fb2:	3f3f3f3f 3f3f3f3f 	.insn	8, 0x3f3f3f3f3f3f3f3f
   10fba:	3f3f3f3f 3f3f3f3f 	.insn	8, 0x3f3f3f3f3f3f3f3f
   10fc2:	3f3f3f3f 3f3f3f3f 	.insn	8, 0x3f3f3f3f3f3f3f3f
   10fca:	3f3f3f3f 3f3f3f3f 	.insn	8, 0x3f3f3f3f3f3f3f3f
   10fd2:	3f3f3f3f 3f3f3f3f 	.insn	8, 0x3f3f3f3f3f3f3f3f
   10fda:	3f3f3f3f 3f3f3f3f 	.insn	8, 0x3f3f3f3f3f3f3f3f
   10fe2:	3f3f3f3f 3f3f3f3f 	.insn	8, 0x3f3f3f3f3f3f3f3f
   10fea:	3f3f3f3f 3f3f3f3f 	.insn	8, 0x3f3f3f3f3f3f3f3f
   10ff2:	3f3f3f3f 3f3f3f3f 	.insn	8, 0x3f3f3f3f3f3f3f3f
   10ffa:	3f3f3f3f 3f3f3f3f 	.insn	8, 0x3f3f3f3f3f3f3f3f
   11002:	3f3f3f3f 3f3f3f3f 	.insn	8, 0x3f3f3f3f3f3f3f3f
   1100a:	3f3f3f3f 3f3f3f3f 	.insn	8, 0x3f3f3f3f3f3f3f3f
   11012:	3f3f3f3f 3f3f3f3f 	.insn	8, 0x3f3f3f3f3f3f3f3f
   1101a:	3f3f3f3f 3f3f3f3f 	.insn	8, 0x3f3f3f3f3f3f3f3f
   11022:	3f3f3f3f 3f3f3f3f 	.insn	8, 0x3f3f3f3f3f3f3f3f
   1102a:	3f3f3f3f 3f3f3f3f 	.insn	8, 0x3f3f3f3f3f3f3f3f
   11032:	3f3f3f3f 3f3f3f3f 	.insn	8, 0x3f3f3f3f3f3f3f3f
   1103a:	3f3f3f3f 3f3f3f3f 	.insn	8, 0x3f3f3f3f3f3f3f3f
   11042:	3f3f3f3f 3f3f3f3f 	.insn	8, 0x3f3f3f3f3f3f3f3f
   1104a:	3f3f3f3f 3f3f3f3f 	.insn	8, 0x3f3f3f3f3f3f3f3f
   11052:	3f3f3f3f 3f3f3f3f 	.insn	8, 0x3f3f3f3f3f3f3f3f
   1105a:	3f3f3f3f 3f3f3f3f 	.insn	8, 0x3f3f3f3f3f3f3f3f
   11062:	3f3f3f3f 3f3f3f3f 	.insn	8, 0x3f3f3f3f3f3f3f3f
   1106a:	3f3f3f3f 3f3f3f3f 	.insn	8, 0x3f3f3f3f3f3f3f3f
   11072:	3f3f3f3f 3f3f3f3f 	.insn	8, 0x3f3f3f3f3f3f3f3f
   1107a:	3f3f3f3f 3f3f3f3f 	.insn	8, 0x3f3f3f3f3f3f3f3f
   11082:	3f3f3f3f 3f3f3f3f 	.insn	8, 0x3f3f3f3f3f3f3f3f
   1108a:	3f3f3f3f 3f3f3f3f 	.insn	8, 0x3f3f3f3f3f3f3f3f
   11092:	3f3f3f3f 3f3f3f3f 	.insn	8, 0x3f3f3f3f3f3f3f3f
   1109a:	3f3f3f3f 3f3f3f3f 	.insn	8, 0x3f3f3f3f3f3f3f3f
   110a2:	3f3f3f3f 3f3f3f3f 	.insn	8, 0x3f3f3f3f3f3f3f3f
   110aa:	3f3f3f3f 3f3f3f3f 	.insn	8, 0x3f3f3f3f3f3f3f3f
   110b2:	3f3f3f3f 3f3f3f3f 	.insn	8, 0x3f3f3f3f3f3f3f3f
   110ba:	3f3f3f3f 3f3f3f3f 	.insn	8, 0x3f3f3f3f3f3f3f3f
   110c2:	3f3f3f3f 3f3f3f3f 	.insn	8, 0x3f3f3f3f3f3f3f3f
   110ca:	3f3f3f3f 3f3f3f3f 	.insn	8, 0x3f3f3f3f3f3f3f3f
   110d2:	3f3f3f3f 3f3f3f3f 	.insn	8, 0x3f3f3f3f3f3f3f3f
   110da:	3f3f3f3f 3f3f3f3f 	.insn	8, 0x3f3f3f3f3f3f3f3f
   110e2:	3f3f3f3f 3f3f3f3f 	.insn	8, 0x3f3f3f3f3f3f3f3f
   110ea:	3f3f3f3f 3f3f3f3f 	.insn	8, 0x3f3f3f3f3f3f3f3f
   110f2:	3f3f3f3f 3f3f3f3f 	.insn	8, 0x3f3f3f3f3f3f3f3f
   110fa:	3f3f3f3f 3f3f3f3f 	.insn	8, 0x3f3f3f3f3f3f3f3f
   11102:	3f3f3f3f 3f3f3f3f 	.insn	8, 0x3f3f3f3f3f3f3f3f
   1110a:	3f3f3f3f 3f3f3f3f 	.insn	8, 0x3f3f3f3f3f3f3f3f
   11112:	3f3f3f3f 3f3f3f3f 	.insn	8, 0x3f3f3f3f3f3f3f3f
   1111a:	3f3f3f3f 3f3f3f3f 	.insn	8, 0x3f3f3f3f3f3f3f3f
   11122:	3f3f3f3f 3f3f3f3f 	.insn	8, 0x3f3f3f3f3f3f3f3f
   1112a:	3f3f3f3f 3f3f3f3f 	.insn	8, 0x3f3f3f3f3f3f3f3f
   11132:	3f3f3f3f 3f3f3f3f 	.insn	8, 0x3f3f3f3f3f3f3f3f
   1113a:	3f3f3f3f 3f3f3f3f 	.insn	8, 0x3f3f3f3f3f3f3f3f
   11142:	3f3f3f3f 3f3f3f3f 	.insn	8, 0x3f3f3f3f3f3f3f3f
   1114a:	3f3f3f3f 3f3f3f3f 	.insn	8, 0x3f3f3f3f3f3f3f3f
   11152:	3f3f3f3f 3f3f3f3f 	.insn	8, 0x3f3f3f3f3f3f3f3f
   1115a:	3f3f3f3f 3f3f3f3f 	.insn	8, 0x3f3f3f3f3f3f3f3f
   11162:	3f3f3f3f 3f3f3f3f 	.insn	8, 0x3f3f3f3f3f3f3f3f
   1116a:	3f3f3f3f 3f3f3f3f 	.insn	8, 0x3f3f3f3f3f3f3f3f
   11172:	3f3f3f3f 3f3f3f3f 	.insn	8, 0x3f3f3f3f3f3f3f3f
   1117a:	3f3f3f3f 3f3f3f3f 	.insn	8, 0x3f3f3f3f3f3f3f3f
   11182:	3f3f3f3f 3f3f3f3f 	.insn	8, 0x3f3f3f3f3f3f3f3f
   1118a:	3f3f3f3f 3f3f3f3f 	.insn	8, 0x3f3f3f3f3f3f3f3f
   11192:	3f3f3f3f 3f3f3f3f 	.insn	8, 0x3f3f3f3f3f3f3f3f
   1119a:	3f3f3f3f 3f3f3f3f 	.insn	8, 0x3f3f3f3f3f3f3f3f
   111a2:	3f3f3f3f 3f3f3f3f 	.insn	8, 0x3f3f3f3f3f3f3f3f
   111aa:	3f3f3f3f 3f3f3f3f 	.insn	8, 0x3f3f3f3f3f3f3f3f
   111b2:	3f3f3f3f 3f3f3f3f 	.insn	8, 0x3f3f3f3f3f3f3f3f
   111ba:	3f3f3f3f 3f3f3f3f 	.insn	8, 0x3f3f3f3f3f3f3f3f
   111c2:	3f3f3f3f 3f3f3f3f 	.insn	8, 0x3f3f3f3f3f3f3f3f
   111ca:	3f3f3f3f 3f3f3f3f 	.insn	8, 0x3f3f3f3f3f3f3f3f
   111d2:	3f3f3f3f 3f3f3f3f 	.insn	8, 0x3f3f3f3f3f3f3f3f
   111da:	3f3f3f3f 3f3f3f3f 	.insn	8, 0x3f3f3f3f3f3f3f3f
   111e2:	3f3f3f3f 3f3f3f3f 	.insn	8, 0x3f3f3f3f3f3f3f3f
   111ea:	3f3f3f3f 3f3f3f3f 	.insn	8, 0x3f3f3f3f3f3f3f3f
   111f2:	3f3f3f3f 3f3f3f3f 	.insn	8, 0x3f3f3f3f3f3f3f3f
   111fa:	3f3f3f3f 3f3f3f3f 	.insn	8, 0x3f3f3f3f3f3f3f3f
   11202:	3f3f3f3f 3f3f3f3f 	.insn	8, 0x3f3f3f3f3f3f3f3f
   1120a:	3f3f3f3f 3f3f3f3f 	.insn	8, 0x3f3f3f3f3f3f3f3f
   11212:	3f3f3f3f 3f3f3f3f 	.insn	8, 0x3f3f3f3f3f3f3f3f
   1121a:	3f3f3f3f 3f3f3f3f 	.insn	8, 0x3f3f3f3f3f3f3f3f
   11222:	3f3f3f3f 3f3f3f3f 	.insn	8, 0x3f3f3f3f3f3f3f3f
   1122a:	3f3f3f3f 3f3f3f3f 	.insn	8, 0x3f3f3f3f3f3f3f3f
   11232:	3f3f3f3f 3f3f3f3f 	.insn	8, 0x3f3f3f3f3f3f3f3f
   1123a:	3f3f3f3f 3f3f3f3f 	.insn	8, 0x3f3f3f3f3f3f3f3f
   11242:	3f3f3f3f 3f3f3f3f 	.insn	8, 0x3f3f3f3f3f3f3f3f
   1124a:	3f3f3f3f 3f3f3f3f 	.insn	8, 0x3f3f3f3f3f3f3f3f
   11252:	3f3f3f3f 3f3f3f3f 	.insn	8, 0x3f3f3f3f3f3f3f3f
   1125a:	3f3f3f3f 3f3f3f3f 	.insn	8, 0x3f3f3f3f3f3f3f3f
   11262:	3f3f3f3f 3f3f3f3f 	.insn	8, 0x3f3f3f3f3f3f3f3f
   1126a:	3f3f3f3f 3f3f3f3f 	.insn	8, 0x3f3f3f3f3f3f3f3f
   11272:	3f3f3f3f 3f3f3f3f 	.insn	8, 0x3f3f3f3f3f3f3f3f
   1127a:	3f3f3f3f 3f3f3f3f 	.insn	8, 0x3f3f3f3f3f3f3f3f
   11282:	3f3f3f3f 3f3f3f3f 	.insn	8, 0x3f3f3f3f3f3f3f3f
   1128a:	3f3f3f3f 3f3f3f3f 	.insn	8, 0x3f3f3f3f3f3f3f3f
   11292:	3f3f3f3f 3f3f3f3f 	.insn	8, 0x3f3f3f3f3f3f3f3f
   1129a:	3f3f3f3f 3f3f3f3f 	.insn	8, 0x3f3f3f3f3f3f3f3f
   112a2:	3f3f3f3f 3f3f3f3f 	.insn	8, 0x3f3f3f3f3f3f3f3f
   112aa:	3f3f3f3f 3f3f3f3f 	.insn	8, 0x3f3f3f3f3f3f3f3f
   112b2:	3f3f3f3f 3f3f3f3f 	.insn	8, 0x3f3f3f3f3f3f3f3f
   112ba:	3f3f3f3f 3f3f3f3f 	.insn	8, 0x3f3f3f3f3f3f3f3f
   112c2:	3f3f3f3f 3f3f3f3f 	.insn	8, 0x3f3f3f3f3f3f3f3f
   112ca:	3f3f3f3f 3f3f3f3f 	.insn	8, 0x3f3f3f3f3f3f3f3f
   112d2:	3f3f3f3f 3f3f3f3f 	.insn	8, 0x3f3f3f3f3f3f3f3f
   112da:	3f3f3f3f 3f3f3f3f 	.insn	8, 0x3f3f3f3f3f3f3f3f
   112e2:	3f3f3f3f 3f3f3f3f 	.insn	8, 0x3f3f3f3f3f3f3f3f
   112ea:	3f3f3f3f 3f3f3f3f 	.insn	8, 0x3f3f3f3f3f3f3f3f
   112f2:	3f3f3f3f 3f3f3f3f 	.insn	8, 0x3f3f3f3f3f3f3f3f
   112fa:	3f3f3f3f 3f3f3f3f 	.insn	8, 0x3f3f3f3f3f3f3f3f
   11302:	3f3f3f3f 3f3f3f3f 	.insn	8, 0x3f3f3f3f3f3f3f3f
   1130a:	3f3f3f3f 3f3f3f3f 	.insn	8, 0x3f3f3f3f3f3f3f3f
   11312:	3f3f3f3f 3f3f3f3f 	.insn	8, 0x3f3f3f3f3f3f3f3f
   1131a:	3f3f3f3f 3f3f3f3f 	.insn	8, 0x3f3f3f3f3f3f3f3f
   11322:	3f3f3f3f 3f3f3f3f 	.insn	8, 0x3f3f3f3f3f3f3f3f
   1132a:	3f3f3f3f 3f3f3f3f 	.insn	8, 0x3f3f3f3f3f3f3f3f
   11332:	3f3f3f3f 3f3f3f3f 	.insn	8, 0x3f3f3f3f3f3f3f3f
   1133a:	3f3f3f3f 3f3f3f3f 	.insn	8, 0x3f3f3f3f3f3f3f3f
   11342:	3f3f3f3f 3f3f3f3f 	.insn	8, 0x3f3f3f3f3f3f3f3f
   1134a:	3f3f3f3f 3f3f3f3f 	.insn	8, 0x3f3f3f3f3f3f3f3f
   11352:	3f3f3f3f 3f3f3f3f 	.insn	8, 0x3f3f3f3f3f3f3f3f
   1135a:	3f3f3f3f 3f3f3f3f 	.insn	8, 0x3f3f3f3f3f3f3f3f
   11362:	3f3f3f3f 3f3f3f3f 	.insn	8, 0x3f3f3f3f3f3f3f3f
   1136a:	3f3f3f3f 3f3f3f3f 	.insn	8, 0x3f3f3f3f3f3f3f3f
   11372:	3f3f3f3f 3f3f3f3f 	.insn	8, 0x3f3f3f3f3f3f3f3f
   1137a:	3f3f3f3f 3f3f3f3f 	.insn	8, 0x3f3f3f3f3f3f3f3f
   11382:	3f3f3f3f 3f3f3f3f 	.insn	8, 0x3f3f3f3f3f3f3f3f
   1138a:	3f3f3f3f 3f3f3f3f 	.insn	8, 0x3f3f3f3f3f3f3f3f
   11392:	3f3f3f3f 3f3f3f3f 	.insn	8, 0x3f3f3f3f3f3f3f3f
   1139a:	3f3f3f3f 3f3f3f3f 	.insn	8, 0x3f3f3f3f3f3f3f3f
   113a2:	3f3f3f3f 3f3f3f3f 	.insn	8, 0x3f3f3f3f3f3f3f3f
   113aa:	3f3f3f3f 3f3f3f3f 	.insn	8, 0x3f3f3f3f3f3f3f3f
   113b2:	3f3f3f3f 3f3f3f3f 	.insn	8, 0x3f3f3f3f3f3f3f3f
   113ba:	3f3f3f3f 3f3f3f3f 	.insn	8, 0x3f3f3f3f3f3f3f3f
   113c2:	3f3f3f3f 3f3f3f3f 	.insn	8, 0x3f3f3f3f3f3f3f3f
   113ca:	3f3f3f3f 3f3f3f3f 	.insn	8, 0x3f3f3f3f3f3f3f3f
   113d2:	3f3f3f3f 3f3f3f3f 	.insn	8, 0x3f3f3f3f3f3f3f3f
   113da:	3f3f3f3f 3f3f3f3f 	.insn	8, 0x3f3f3f3f3f3f3f3f
   113e2:	3f3f3f3f 3f3f3f3f 	.insn	8, 0x3f3f3f3f3f3f3f3f
   113ea:	3f3f3f3f 3f3f3f3f 	.insn	8, 0x3f3f3f3f3f3f3f3f
   113f2:	3f3f3f3f 3f3f3f3f 	.insn	8, 0x3f3f3f3f3f3f3f3f
   113fa:	3f3f3f3f 3f3f3f3f 	.insn	8, 0x3f3f3f3f3f3f3f3f
   11402:	3f3f3f3f 3f3f3f3f 	.insn	8, 0x3f3f3f3f3f3f3f3f
   1140a:	3f3f3f3f 3f3f3f3f 	.insn	8, 0x3f3f3f3f3f3f3f3f
   11412:	3f3f3f3f 3f3f3f3f 	.insn	8, 0x3f3f3f3f3f3f3f3f
   1141a:	3f3f3f3f 3f3f3f3f 	.insn	8, 0x3f3f3f3f3f3f3f3f
   11422:	3f3f3f3f 3f3f3f3f 	.insn	8, 0x3f3f3f3f3f3f3f3f
   1142a:	3f3f3f3f 3f3f3f3f 	.insn	8, 0x3f3f3f3f3f3f3f3f
   11432:	3f3f3f3f 3f3f3f3f 	.insn	8, 0x3f3f3f3f3f3f3f3f
   1143a:	3f3f3f3f 3f3f3f3f 	.insn	8, 0x3f3f3f3f3f3f3f3f
   11442:	3f3f3f3f 3f3f3f3f 	.insn	8, 0x3f3f3f3f3f3f3f3f
   1144a:	3f3f3f3f 3f3f3f3f 	.insn	8, 0x3f3f3f3f3f3f3f3f
   11452:	3f3f3f3f 3f3f3f3f 	.insn	8, 0x3f3f3f3f3f3f3f3f
   1145a:	3f3f3f3f 3f3f3f3f 	.insn	8, 0x3f3f3f3f3f3f3f3f
   11462:	3f3f3f3f 3f3f3f3f 	.insn	8, 0x3f3f3f3f3f3f3f3f
   1146a:	3f3f3f3f 3f3f3f3f 	.insn	8, 0x3f3f3f3f3f3f3f3f
   11472:	3f3f3f3f 3f3f3f3f 	.insn	8, 0x3f3f3f3f3f3f3f3f
   1147a:	3f3f3f3f 3f3f3f3f 	.insn	8, 0x3f3f3f3f3f3f3f3f
   11482:	3f3f3f3f 3f3f3f3f 	.insn	8, 0x3f3f3f3f3f3f3f3f
   1148a:	3f3f3f3f 3f3f3f3f 	.insn	8, 0x3f3f3f3f3f3f3f3f
   11492:	3f3f3f3f 3f3f3f3f 	.insn	8, 0x3f3f3f3f3f3f3f3f
   1149a:	3f3f3f3f 3f3f3f3f 	.insn	8, 0x3f3f3f3f3f3f3f3f
   114a2:	3f3f3f3f 3f3f3f3f 	.insn	8, 0x3f3f3f3f3f3f3f3f
   114aa:	3f3f3f3f 3f3f3f3f 	.insn	8, 0x3f3f3f3f3f3f3f3f
   114b2:	3f3f3f3f 3f3f3f3f 	.insn	8, 0x3f3f3f3f3f3f3f3f
   114ba:	3f3f3f3f 3f3f3f3f 	.insn	8, 0x3f3f3f3f3f3f3f3f
   114c2:	3f3f3f3f 3f3f3f3f 	.insn	8, 0x3f3f3f3f3f3f3f3f
   114ca:	3f3f3f3f 3f3f3f3f 	.insn	8, 0x3f3f3f3f3f3f3f3f
   114d2:	3f3f3f3f 3f3f3f3f 	.insn	8, 0x3f3f3f3f3f3f3f3f
   114da:	3f3f3f3f 3f3f3f3f 	.insn	8, 0x3f3f3f3f3f3f3f3f
   114e2:	3f3f3f3f 3f3f3f3f 	.insn	8, 0x3f3f3f3f3f3f3f3f
   114ea:	3f3f3f3f 3f3f3f3f 	.insn	8, 0x3f3f3f3f3f3f3f3f
   114f2:	3f3f3f3f 3f3f3f3f 	.insn	8, 0x3f3f3f3f3f3f3f3f
   114fa:	3f3f3f3f 3f3f3f3f 	.insn	8, 0x3f3f3f3f3f3f3f3f
   11502:	3f3f3f3f 3f3f3f3f 	.insn	8, 0x3f3f3f3f3f3f3f3f
   1150a:	3f3f3f3f 3f3f3f3f 	.insn	8, 0x3f3f3f3f3f3f3f3f
   11512:	3f3f3f3f 3f3f3f3f 	.insn	8, 0x3f3f3f3f3f3f3f3f
   1151a:	3f3f3f3f 3f3f3f3f 	.insn	8, 0x3f3f3f3f3f3f3f3f
   11522:	3f3f3f3f 3f3f3f3f 	.insn	8, 0x3f3f3f3f3f3f3f3f
   1152a:	3f3f3f3f 3f3f3f3f 	.insn	8, 0x3f3f3f3f3f3f3f3f
   11532:	3f3f3f3f 3f3f3f3f 	.insn	8, 0x3f3f3f3f3f3f3f3f
   1153a:	3f3f3f3f 3f3f3f3f 	.insn	8, 0x3f3f3f3f3f3f3f3f
   11542:	3f3f3f3f 3f3f3f3f 	.insn	8, 0x3f3f3f3f3f3f3f3f
   1154a:	3f3f3f3f 3f3f3f3f 	.insn	8, 0x3f3f3f3f3f3f3f3f
   11552:	3f3f3f3f 3f3f3f3f 	.insn	8, 0x3f3f3f3f3f3f3f3f
   1155a:	3f3f3f3f 3f3f3f3f 	.insn	8, 0x3f3f3f3f3f3f3f3f
   11562:	3f3f3f3f 3f3f3f3f 	.insn	8, 0x3f3f3f3f3f3f3f3f
   1156a:	3f3f3f3f 3f3f3f3f 	.insn	8, 0x3f3f3f3f3f3f3f3f
   11572:	3f3f3f3f 3f3f3f3f 	.insn	8, 0x3f3f3f3f3f3f3f3f
   1157a:	3f3f3f3f 3f3f3f3f 	.insn	8, 0x3f3f3f3f3f3f3f3f
   11582:	3f3f3f3f 3f3f3f3f 	.insn	8, 0x3f3f3f3f3f3f3f3f
   1158a:	3f3f3f3f 3f3f3f3f 	.insn	8, 0x3f3f3f3f3f3f3f3f
   11592:	3f3f3f3f 3f3f3f3f 	.insn	8, 0x3f3f3f3f3f3f3f3f
   1159a:	3f3f3f3f 3f3f3f3f 	.insn	8, 0x3f3f3f3f3f3f3f3f
   115a2:	3f3f3f3f 3f3f3f3f 	.insn	8, 0x3f3f3f3f3f3f3f3f
   115aa:	3f3f3f3f 3f3f3f3f 	.insn	8, 0x3f3f3f3f3f3f3f3f
   115b2:	3f3f3f3f 3f3f3f3f 	.insn	8, 0x3f3f3f3f3f3f3f3f
   115ba:	3f3f3f3f 3f3f3f3f 	.insn	8, 0x3f3f3f3f3f3f3f3f
   115c2:	3f3f3f3f 3f3f3f3f 	.insn	8, 0x3f3f3f3f3f3f3f3f
   115ca:	3f3f3f3f 3f3f3f3f 	.insn	8, 0x3f3f3f3f3f3f3f3f
   115d2:	3f3f3f3f 3f3f3f3f 	.insn	8, 0x3f3f3f3f3f3f3f3f
   115da:	3f3f3f3f 3f3f3f3f 	.insn	8, 0x3f3f3f3f3f3f3f3f
   115e2:	3f3f3f3f 3f3f3f3f 	.insn	8, 0x3f3f3f3f3f3f3f3f
   115ea:	3f3f3f3f 3f3f3f3f 	.insn	8, 0x3f3f3f3f3f3f3f3f
   115f2:	3f3f3f3f 3f3f3f3f 	.insn	8, 0x3f3f3f3f3f3f3f3f
   115fa:	3f3f3f3f 3f3f3f3f 	.insn	8, 0x3f3f3f3f3f3f3f3f
   11602:	3f3f3f3f 3f3f3f3f 	.insn	8, 0x3f3f3f3f3f3f3f3f
   1160a:	3f3f3f3f 3f3f3f3f 	.insn	8, 0x3f3f3f3f3f3f3f3f
   11612:	3f3f3f3f 3f3f3f3f 	.insn	8, 0x3f3f3f3f3f3f3f3f
   1161a:	3f3f3f3f 3f3f3f3f 	.insn	8, 0x3f3f3f3f3f3f3f3f
   11622:	3f3f3f3f 3f3f3f3f 	.insn	8, 0x3f3f3f3f3f3f3f3f
   1162a:	3f3f3f3f 3f3f3f3f 	.insn	8, 0x3f3f3f3f3f3f3f3f
   11632:	3f3f3f3f 3f3f3f3f 	.insn	8, 0x3f3f3f3f3f3f3f3f
   1163a:	3f3f3f3f 3f3f3f3f 	.insn	8, 0x3f3f3f3f3f3f3f3f
   11642:	3f3f3f3f 3f3f3f3f 	.insn	8, 0x3f3f3f3f3f3f3f3f
   1164a:	3f3f3f3f 3f3f3f3f 	.insn	8, 0x3f3f3f3f3f3f3f3f
   11652:	3f3f3f3f 3f3f3f3f 	.insn	8, 0x3f3f3f3f3f3f3f3f
   1165a:	3f3f3f3f 3f3f3f3f 	.insn	8, 0x3f3f3f3f3f3f3f3f
   11662:	3f3f3f3f 3f3f3f3f 	.insn	8, 0x3f3f3f3f3f3f3f3f
   1166a:	3f3f3f3f 3f3f3f3f 	.insn	8, 0x3f3f3f3f3f3f3f3f
   11672:	3f3f3f3f 3f3f3f3f 	.insn	8, 0x3f3f3f3f3f3f3f3f
   1167a:	3f3f3f3f 3f3f3f3f 	.insn	8, 0x3f3f3f3f3f3f3f3f
   11682:	3f3f3f3f 3f3f3f3f 	.insn	8, 0x3f3f3f3f3f3f3f3f
   1168a:	3f3f3f3f 3f3f3f3f 	.insn	8, 0x3f3f3f3f3f3f3f3f
   11692:	3f3f3f3f 3f3f3f3f 	.insn	8, 0x3f3f3f3f3f3f3f3f
   1169a:	3f3f3f3f 3f3f3f3f 	.insn	8, 0x3f3f3f3f3f3f3f3f
   116a2:	3f3f3f3f 3f3f3f3f 	.insn	8, 0x3f3f3f3f3f3f3f3f
   116aa:	3f3f3f3f 3f3f3f3f 	.insn	8, 0x3f3f3f3f3f3f3f3f
   116b2:	3f3f3f3f 3f3f3f3f 	.insn	8, 0x3f3f3f3f3f3f3f3f
   116ba:	3f3f3f3f 3f3f3f3f 	.insn	8, 0x3f3f3f3f3f3f3f3f
   116c2:	3f3f3f3f 3f3f3f3f 	.insn	8, 0x3f3f3f3f3f3f3f3f
   116ca:	3f3f3f3f 3f3f3f3f 	.insn	8, 0x3f3f3f3f3f3f3f3f
   116d2:	3f3f3f3f 3f3f3f3f 	.insn	8, 0x3f3f3f3f3f3f3f3f
   116da:	3f3f3f3f 3f3f3f3f 	.insn	8, 0x3f3f3f3f3f3f3f3f
   116e2:	3f3f3f3f 3f3f3f3f 	.insn	8, 0x3f3f3f3f3f3f3f3f
   116ea:	3f3f3f3f 3f3f3f3f 	.insn	8, 0x3f3f3f3f3f3f3f3f
   116f2:	3f3f3f3f 3f3f3f3f 	.insn	8, 0x3f3f3f3f3f3f3f3f
   116fa:	3f3f3f3f 3f3f3f3f 	.insn	8, 0x3f3f3f3f3f3f3f3f
   11702:	3f3f3f3f 3f3f3f3f 	.insn	8, 0x3f3f3f3f3f3f3f3f
   1170a:	3f3f3f3f 3f3f3f3f 	.insn	8, 0x3f3f3f3f3f3f3f3f
   11712:	3f3f3f3f 3f3f3f3f 	.insn	8, 0x3f3f3f3f3f3f3f3f
   1171a:	3f3f3f3f 3f3f3f3f 	.insn	8, 0x3f3f3f3f3f3f3f3f
   11722:	3f3f3f3f 3f3f3f3f 	.insn	8, 0x3f3f3f3f3f3f3f3f
   1172a:	3f3f3f3f 3f3f3f3f 	.insn	8, 0x3f3f3f3f3f3f3f3f
   11732:	3f3f3f3f 3f3f3f3f 	.insn	8, 0x3f3f3f3f3f3f3f3f
   1173a:	3f3f3f3f 3f3f3f3f 	.insn	8, 0x3f3f3f3f3f3f3f3f
   11742:	3f3f3f3f 3f3f3f3f 	.insn	8, 0x3f3f3f3f3f3f3f3f
   1174a:	3f3f3f3f 3f3f3f3f 	.insn	8, 0x3f3f3f3f3f3f3f3f
   11752:	3f3f3f3f 3f3f3f3f 	.insn	8, 0x3f3f3f3f3f3f3f3f
   1175a:	3f3f3f3f 3f3f3f3f 	.insn	8, 0x3f3f3f3f3f3f3f3f
   11762:	3f3f3f3f 3f3f3f3f 	.insn	8, 0x3f3f3f3f3f3f3f3f
   1176a:	3f3f3f3f 3f3f3f3f 	.insn	8, 0x3f3f3f3f3f3f3f3f
   11772:	3f3f3f3f 3f3f3f3f 	.insn	8, 0x3f3f3f3f3f3f3f3f
   1177a:	3f3f3f3f 3f3f3f3f 	.insn	8, 0x3f3f3f3f3f3f3f3f
   11782:	3f3f3f3f 3f3f3f3f 	.insn	8, 0x3f3f3f3f3f3f3f3f
   1178a:	3f3f3f3f 3f3f3f3f 	.insn	8, 0x3f3f3f3f3f3f3f3f
   11792:	3f3f3f3f 3f3f3f3f 	.insn	8, 0x3f3f3f3f3f3f3f3f
   1179a:	3f3f3f3f 3f3f3f3f 	.insn	8, 0x3f3f3f3f3f3f3f3f
   117a2:	3f3f3f3f 3f3f3f3f 	.insn	8, 0x3f3f3f3f3f3f3f3f
   117aa:	3f3f3f3f 3f3f3f3f 	.insn	8, 0x3f3f3f3f3f3f3f3f
   117b2:	3f3f3f3f 3f3f3f3f 	.insn	8, 0x3f3f3f3f3f3f3f3f
   117ba:	3f3f3f3f 3f3f3f3f 	.insn	8, 0x3f3f3f3f3f3f3f3f
   117c2:	3f3f3f3f 3f3f3f3f 	.insn	8, 0x3f3f3f3f3f3f3f3f
   117ca:	3f3f3f3f 3f3f3f3f 	.insn	8, 0x3f3f3f3f3f3f3f3f
   117d2:	3f3f3f3f 3f3f3f3f 	.insn	8, 0x3f3f3f3f3f3f3f3f
   117da:	3f3f3f3f 3f3f3f3f 	.insn	8, 0x3f3f3f3f3f3f3f3f
   117e2:	3f3f3f3f 3f3f3f3f 	.insn	8, 0x3f3f3f3f3f3f3f3f
   117ea:	3f3f3f3f 3f3f3f3f 	.insn	8, 0x3f3f3f3f3f3f3f3f
   117f2:	3f3f3f3f 3f3f3f3f 	.insn	8, 0x3f3f3f3f3f3f3f3f
   117fa:	3f3f3f3f 3f3f3f3f 	.insn	8, 0x3f3f3f3f3f3f3f3f
   11802:	3f3f3f3f 3f3f3f3f 	.insn	8, 0x3f3f3f3f3f3f3f3f
   1180a:	3f3f3f3f 3f3f3f3f 	.insn	8, 0x3f3f3f3f3f3f3f3f
   11812:	3f3f3f3f 3f3f3f3f 	.insn	8, 0x3f3f3f3f3f3f3f3f
   1181a:	3f3f3f3f 3f3f3f3f 	.insn	8, 0x3f3f3f3f3f3f3f3f
   11822:	3f3f3f3f 3f3f3f3f 	.insn	8, 0x3f3f3f3f3f3f3f3f
   1182a:	3f3f3f3f 3f3f3f3f 	.insn	8, 0x3f3f3f3f3f3f3f3f
   11832:	3f3f3f3f 3f3f3f3f 	.insn	8, 0x3f3f3f3f3f3f3f3f
   1183a:	3f3f3f3f 3f3f3f3f 	.insn	8, 0x3f3f3f3f3f3f3f3f
   11842:	3f3f3f3f 3f3f3f3f 	.insn	8, 0x3f3f3f3f3f3f3f3f
   1184a:	3f3f3f3f 3f3f3f3f 	.insn	8, 0x3f3f3f3f3f3f3f3f
   11852:	3f3f3f3f 3f3f3f3f 	.insn	8, 0x3f3f3f3f3f3f3f3f
   1185a:	3f3f3f3f 3f3f3f3f 	.insn	8, 0x3f3f3f3f3f3f3f3f
   11862:	3f3f3f3f 3f3f3f3f 	.insn	8, 0x3f3f3f3f3f3f3f3f
   1186a:	3f3f3f3f 3f3f3f3f 	.insn	8, 0x3f3f3f3f3f3f3f3f
   11872:	3f3f3f3f 3f3f3f3f 	.insn	8, 0x3f3f3f3f3f3f3f3f
   1187a:	3f3f3f3f 3f3f3f3f 	.insn	8, 0x3f3f3f3f3f3f3f3f
   11882:	3f3f3f3f 3f3f3f3f 	.insn	8, 0x3f3f3f3f3f3f3f3f
   1188a:	3f3f3f3f 3f3f3f3f 	.insn	8, 0x3f3f3f3f3f3f3f3f
   11892:	3f3f3f3f 3f3f3f3f 	.insn	8, 0x3f3f3f3f3f3f3f3f
   1189a:	3f3f3f3f 3f3f3f3f 	.insn	8, 0x3f3f3f3f3f3f3f3f
   118a2:	3f3f3f3f 3f3f3f3f 	.insn	8, 0x3f3f3f3f3f3f3f3f
   118aa:	3f3f3f3f 3f3f3f3f 	.insn	8, 0x3f3f3f3f3f3f3f3f
   118b2:	3f3f3f3f 3f3f3f3f 	.insn	8, 0x3f3f3f3f3f3f3f3f
   118ba:	3f3f3f3f 3f3f3f3f 	.insn	8, 0x3f3f3f3f3f3f3f3f
   118c2:	3f3f3f3f 3f3f3f3f 	.insn	8, 0x3f3f3f3f3f3f3f3f
   118ca:	3f3f3f3f 3f3f3f3f 	.insn	8, 0x3f3f3f3f3f3f3f3f
   118d2:	3f3f3f3f 3f3f3f3f 	.insn	8, 0x3f3f3f3f3f3f3f3f
   118da:	3f3f3f3f 3f3f3f3f 	.insn	8, 0x3f3f3f3f3f3f3f3f
   118e2:	3f3f3f3f 3f3f3f3f 	.insn	8, 0x3f3f3f3f3f3f3f3f
   118ea:	3f3f3f3f 3f3f3f3f 	.insn	8, 0x3f3f3f3f3f3f3f3f
   118f2:	3f3f3f3f 3f3f3f3f 	.insn	8, 0x3f3f3f3f3f3f3f3f
   118fa:	3f3f3f3f 3f3f3f3f 	.insn	8, 0x3f3f3f3f3f3f3f3f
   11902:	3f3f3f3f 3f3f3f3f 	.insn	8, 0x3f3f3f3f3f3f3f3f
   1190a:	3f3f3f3f 3f3f3f3f 	.insn	8, 0x3f3f3f3f3f3f3f3f
   11912:	3f3f3f3f 3f3f3f3f 	.insn	8, 0x3f3f3f3f3f3f3f3f
   1191a:	3f3f3f3f 3f3f3f3f 	.insn	8, 0x3f3f3f3f3f3f3f3f
   11922:	3f3f3f3f 3f3f3f3f 	.insn	8, 0x3f3f3f3f3f3f3f3f
   1192a:	3f3f3f3f 3f3f3f3f 	.insn	8, 0x3f3f3f3f3f3f3f3f
   11932:	3f3f3f3f 3f3f3f3f 	.insn	8, 0x3f3f3f3f3f3f3f3f
   1193a:	3f3f3f3f 3f3f3f3f 	.insn	8, 0x3f3f3f3f3f3f3f3f
   11942:	3f3f3f3f 3f3f3f3f 	.insn	8, 0x3f3f3f3f3f3f3f3f
   1194a:	3f3f3f3f 3f3f3f3f 	.insn	8, 0x3f3f3f3f3f3f3f3f
   11952:	3f3f3f3f 3f3f3f3f 	.insn	8, 0x3f3f3f3f3f3f3f3f
   1195a:	3f3f3f3f 3f3f3f3f 	.insn	8, 0x3f3f3f3f3f3f3f3f
   11962:	3f3f3f3f 3f3f3f3f 	.insn	8, 0x3f3f3f3f3f3f3f3f
   1196a:	3f3f3f3f 3f3f3f3f 	.insn	8, 0x3f3f3f3f3f3f3f3f
   11972:	3f3f3f3f 3f3f3f3f 	.insn	8, 0x3f3f3f3f3f3f3f3f
   1197a:	3f3f3f3f 3f3f3f3f 	.insn	8, 0x3f3f3f3f3f3f3f3f
   11982:	3f3f3f3f 3f3f3f3f 	.insn	8, 0x3f3f3f3f3f3f3f3f
   1198a:	3f3f3f3f 3f3f3f3f 	.insn	8, 0x3f3f3f3f3f3f3f3f
   11992:	3f3f3f3f 3f3f3f3f 	.insn	8, 0x3f3f3f3f3f3f3f3f
   1199a:	3f3f3f3f 3f3f3f3f 	.insn	8, 0x3f3f3f3f3f3f3f3f
   119a2:	3f3f3f3f 3f3f3f3f 	.insn	8, 0x3f3f3f3f3f3f3f3f
   119aa:	3f3f3f3f 3f3f3f3f 	.insn	8, 0x3f3f3f3f3f3f3f3f
   119b2:	3f3f3f3f 3f3f3f3f 	.insn	8, 0x3f3f3f3f3f3f3f3f
   119ba:	3f3f3f3f 3f3f3f3f 	.insn	8, 0x3f3f3f3f3f3f3f3f
   119c2:	3f3f3f3f 3f3f3f3f 	.insn	8, 0x3f3f3f3f3f3f3f3f
   119ca:	3f3f3f3f 3f3f3f3f 	.insn	8, 0x3f3f3f3f3f3f3f3f
   119d2:	3f3f3f3f 3f3f3f3f 	.insn	8, 0x3f3f3f3f3f3f3f3f
   119da:	3f3f3f3f 3f3f3f3f 	.insn	8, 0x3f3f3f3f3f3f3f3f
   119e2:	3f3f3f3f 3f3f3f3f 	.insn	8, 0x3f3f3f3f3f3f3f3f
   119ea:	3f3f3f3f 3f3f3f3f 	.insn	8, 0x3f3f3f3f3f3f3f3f
   119f2:	3f3f3f3f 3f3f3f3f 	.insn	8, 0x3f3f3f3f3f3f3f3f
   119fa:	3f3f3f3f 3f3f3f3f 	.insn	8, 0x3f3f3f3f3f3f3f3f
   11a02:	3f3f3f3f 3f3f3f3f 	.insn	8, 0x3f3f3f3f3f3f3f3f
   11a0a:	3f3f3f3f 3f3f3f3f 	.insn	8, 0x3f3f3f3f3f3f3f3f
   11a12:	3f3f3f3f 3f3f3f3f 	.insn	8, 0x3f3f3f3f3f3f3f3f
   11a1a:	3f3f3f3f 3f3f3f3f 	.insn	8, 0x3f3f3f3f3f3f3f3f
   11a22:	3f3f3f3f 3f3f3f3f 	.insn	8, 0x3f3f3f3f3f3f3f3f
   11a2a:	3f3f3f3f 3f3f3f3f 	.insn	8, 0x3f3f3f3f3f3f3f3f
   11a32:	3f3f3f3f 3f3f3f3f 	.insn	8, 0x3f3f3f3f3f3f3f3f
   11a3a:	3f3f3f3f 3f3f3f3f 	.insn	8, 0x3f3f3f3f3f3f3f3f
   11a42:	3f3f3f3f 3f3f3f3f 	.insn	8, 0x3f3f3f3f3f3f3f3f
   11a4a:	3f3f3f3f 3f3f3f3f 	.insn	8, 0x3f3f3f3f3f3f3f3f
   11a52:	3f3f3f3f 3f3f3f3f 	.insn	8, 0x3f3f3f3f3f3f3f3f
   11a5a:	3f3f3f3f 3f3f3f3f 	.insn	8, 0x3f3f3f3f3f3f3f3f
   11a62:	3f3f3f3f 3f3f3f3f 	.insn	8, 0x3f3f3f3f3f3f3f3f
   11a6a:	3f3f3f3f 3f3f3f3f 	.insn	8, 0x3f3f3f3f3f3f3f3f
   11a72:	3f3f3f3f 3f3f3f3f 	.insn	8, 0x3f3f3f3f3f3f3f3f
   11a7a:	3f3f3f3f 3f3f3f3f 	.insn	8, 0x3f3f3f3f3f3f3f3f
   11a82:	3f3f3f3f 3f3f3f3f 	.insn	8, 0x3f3f3f3f3f3f3f3f
   11a8a:	3f3f3f3f 3f3f3f3f 	.insn	8, 0x3f3f3f3f3f3f3f3f
   11a92:	3f3f3f3f 3f3f3f3f 	.insn	8, 0x3f3f3f3f3f3f3f3f
   11a9a:	3f3f3f3f 3f3f3f3f 	.insn	8, 0x3f3f3f3f3f3f3f3f
   11aa2:	3f3f3f3f 3f3f3f3f 	.insn	8, 0x3f3f3f3f3f3f3f3f
   11aaa:	3f3f3f3f 3f3f3f3f 	.insn	8, 0x3f3f3f3f3f3f3f3f
   11ab2:	3f3f3f3f 3f3f3f3f 	.insn	8, 0x3f3f3f3f3f3f3f3f
   11aba:	3f3f3f3f 3f3f3f3f 	.insn	8, 0x3f3f3f3f3f3f3f3f
   11ac2:	3f3f3f3f 3f3f3f3f 	.insn	8, 0x3f3f3f3f3f3f3f3f
   11aca:	3f3f3f3f 3f3f3f3f 	.insn	8, 0x3f3f3f3f3f3f3f3f
   11ad2:	3f3f3f3f 3f3f3f3f 	.insn	8, 0x3f3f3f3f3f3f3f3f
   11ada:	3f3f3f3f 3f3f3f3f 	.insn	8, 0x3f3f3f3f3f3f3f3f
   11ae2:	3f3f3f3f 3f3f3f3f 	.insn	8, 0x3f3f3f3f3f3f3f3f
   11aea:	3f3f3f3f 3f3f3f3f 	.insn	8, 0x3f3f3f3f3f3f3f3f
   11af2:	3f3f3f3f 3f3f3f3f 	.insn	8, 0x3f3f3f3f3f3f3f3f
   11afa:	3f3f3f3f 3f3f3f3f 	.insn	8, 0x3f3f3f3f3f3f3f3f
   11b02:	3f3f3f3f 3f3f3f3f 	.insn	8, 0x3f3f3f3f3f3f3f3f
   11b0a:	3f3f3f3f 3f3f3f3f 	.insn	8, 0x3f3f3f3f3f3f3f3f
   11b12:	3f3f3f3f 3f3f3f3f 	.insn	8, 0x3f3f3f3f3f3f3f3f
   11b1a:	3f3f3f3f 3f3f3f3f 	.insn	8, 0x3f3f3f3f3f3f3f3f
   11b22:	3f3f3f3f 3f3f3f3f 	.insn	8, 0x3f3f3f3f3f3f3f3f
   11b2a:	3f3f3f3f 3f3f3f3f 	.insn	8, 0x3f3f3f3f3f3f3f3f
   11b32:	3f3f3f3f 3f3f3f3f 	.insn	8, 0x3f3f3f3f3f3f3f3f
   11b3a:	3f3f3f3f 3f3f3f3f 	.insn	8, 0x3f3f3f3f3f3f3f3f
   11b42:	3f3f3f3f 3f3f3f3f 	.insn	8, 0x3f3f3f3f3f3f3f3f
   11b4a:	3f3f3f3f 3f3f3f3f 	.insn	8, 0x3f3f3f3f3f3f3f3f
   11b52:	3f3f3f3f 3f3f3f3f 	.insn	8, 0x3f3f3f3f3f3f3f3f
   11b5a:	3f3f3f3f 3f3f3f3f 	.insn	8, 0x3f3f3f3f3f3f3f3f
   11b62:	3f3f3f3f 3f3f3f3f 	.insn	8, 0x3f3f3f3f3f3f3f3f
   11b6a:	3f3f3f3f 3f3f3f3f 	.insn	8, 0x3f3f3f3f3f3f3f3f
   11b72:	3f3f3f3f 3f3f3f3f 	.insn	8, 0x3f3f3f3f3f3f3f3f
   11b7a:	3f3f3f3f 3f3f3f3f 	.insn	8, 0x3f3f3f3f3f3f3f3f
   11b82:	3f3f3f3f 3f3f3f3f 	.insn	8, 0x3f3f3f3f3f3f3f3f
   11b8a:	3f3f3f3f 3f3f3f3f 	.insn	8, 0x3f3f3f3f3f3f3f3f
   11b92:	3f3f3f3f 3f3f3f3f 	.insn	8, 0x3f3f3f3f3f3f3f3f
   11b9a:	3f3f3f3f 3f3f3f3f 	.insn	8, 0x3f3f3f3f3f3f3f3f
   11ba2:	3f3f3f3f 3f3f3f3f 	.insn	8, 0x3f3f3f3f3f3f3f3f
   11baa:	3f3f3f3f 3f3f3f3f 	.insn	8, 0x3f3f3f3f3f3f3f3f
   11bb2:	3f3f3f3f 3f3f3f3f 	.insn	8, 0x3f3f3f3f3f3f3f3f
   11bba:	3f3f3f3f 3f3f3f3f 	.insn	8, 0x3f3f3f3f3f3f3f3f
   11bc2:	3f3f3f3f 3f3f3f3f 	.insn	8, 0x3f3f3f3f3f3f3f3f
   11bca:	3f3f3f3f 3f3f3f3f 	.insn	8, 0x3f3f3f3f3f3f3f3f
   11bd2:	3f3f3f3f 3f3f3f3f 	.insn	8, 0x3f3f3f3f3f3f3f3f
   11bda:	3f3f3f3f 3f3f3f3f 	.insn	8, 0x3f3f3f3f3f3f3f3f
   11be2:	3f3f3f3f 3f3f3f3f 	.insn	8, 0x3f3f3f3f3f3f3f3f
   11bea:	3f3f3f3f 3f3f3f3f 	.insn	8, 0x3f3f3f3f3f3f3f3f
   11bf2:	3f3f3f3f 3f3f3f3f 	.insn	8, 0x3f3f3f3f3f3f3f3f
   11bfa:	3f3f3f3f 3f3f3f3f 	.insn	8, 0x3f3f3f3f3f3f3f3f
   11c02:	3f3f3f3f 3f3f3f3f 	.insn	8, 0x3f3f3f3f3f3f3f3f
   11c0a:	3f3f3f3f 3f3f3f3f 	.insn	8, 0x3f3f3f3f3f3f3f3f
   11c12:	3f3f3f3f 3f3f3f3f 	.insn	8, 0x3f3f3f3f3f3f3f3f
   11c1a:	3f3f3f3f 3f3f3f3f 	.insn	8, 0x3f3f3f3f3f3f3f3f
   11c22:	3f3f3f3f 3f3f3f3f 	.insn	8, 0x3f3f3f3f3f3f3f3f
   11c2a:	3f3f3f3f 3f3f3f3f 	.insn	8, 0x3f3f3f3f3f3f3f3f
   11c32:	3f3f3f3f 3f3f3f3f 	.insn	8, 0x3f3f3f3f3f3f3f3f
   11c3a:	3f3f3f3f 3f3f3f3f 	.insn	8, 0x3f3f3f3f3f3f3f3f
   11c42:	3f3f3f3f 3f3f3f3f 	.insn	8, 0x3f3f3f3f3f3f3f3f
   11c4a:	3f3f3f3f 3f3f3f3f 	.insn	8, 0x3f3f3f3f3f3f3f3f
   11c52:	3f3f3f3f 3f3f3f3f 	.insn	8, 0x3f3f3f3f3f3f3f3f
   11c5a:	3f3f3f3f 3f3f3f3f 	.insn	8, 0x3f3f3f3f3f3f3f3f
   11c62:	3f3f3f3f 3f3f3f3f 	.insn	8, 0x3f3f3f3f3f3f3f3f
   11c6a:	3f3f3f3f 3f3f3f3f 	.insn	8, 0x3f3f3f3f3f3f3f3f
   11c72:	3f3f3f3f 3f3f3f3f 	.insn	8, 0x3f3f3f3f3f3f3f3f
   11c7a:	3f3f3f3f 3f3f3f3f 	.insn	8, 0x3f3f3f3f3f3f3f3f
   11c82:	3f3f3f3f 3f3f3f3f 	.insn	8, 0x3f3f3f3f3f3f3f3f
   11c8a:	3f3f3f3f 3f3f3f3f 	.insn	8, 0x3f3f3f3f3f3f3f3f
   11c92:	3f3f3f3f 3f3f3f3f 	.insn	8, 0x3f3f3f3f3f3f3f3f
   11c9a:	3f3f3f3f 3f3f3f3f 	.insn	8, 0x3f3f3f3f3f3f3f3f
   11ca2:	3f3f3f3f 3f3f3f3f 	.insn	8, 0x3f3f3f3f3f3f3f3f
   11caa:	3f3f3f3f 3f3f3f3f 	.insn	8, 0x3f3f3f3f3f3f3f3f
   11cb2:	3f3f3f3f 3f3f3f3f 	.insn	8, 0x3f3f3f3f3f3f3f3f
   11cba:	3f3f3f3f 3f3f3f3f 	.insn	8, 0x3f3f3f3f3f3f3f3f
   11cc2:	3f3f3f3f 3f3f3f3f 	.insn	8, 0x3f3f3f3f3f3f3f3f
   11cca:	3f3f3f3f 3f3f3f3f 	.insn	8, 0x3f3f3f3f3f3f3f3f
   11cd2:	3f3f3f3f 3f3f3f3f 	.insn	8, 0x3f3f3f3f3f3f3f3f
   11cda:	3f3f3f3f 3f3f3f3f 	.insn	8, 0x3f3f3f3f3f3f3f3f
   11ce2:	3f3f3f3f 3f3f3f3f 	.insn	8, 0x3f3f3f3f3f3f3f3f
   11cea:	3f3f3f3f 3f3f3f3f 	.insn	8, 0x3f3f3f3f3f3f3f3f
   11cf2:	3f3f3f3f 3f3f3f3f 	.insn	8, 0x3f3f3f3f3f3f3f3f
   11cfa:	3f3f3f3f 3f3f3f3f 	.insn	8, 0x3f3f3f3f3f3f3f3f
   11d02:	3f3f3f3f 3f3f3f3f 	.insn	8, 0x3f3f3f3f3f3f3f3f
   11d0a:	3f3f3f3f 3f3f3f3f 	.insn	8, 0x3f3f3f3f3f3f3f3f
   11d12:	3f3f3f3f 3f3f3f3f 	.insn	8, 0x3f3f3f3f3f3f3f3f
   11d1a:	3f3f3f3f 3f3f3f3f 	.insn	8, 0x3f3f3f3f3f3f3f3f
   11d22:	3f3f3f3f 3f3f3f3f 	.insn	8, 0x3f3f3f3f3f3f3f3f
   11d2a:	3f3f3f3f 3f3f3f3f 	.insn	8, 0x3f3f3f3f3f3f3f3f
   11d32:	3f3f3f3f 3f3f3f3f 	.insn	8, 0x3f3f3f3f3f3f3f3f
   11d3a:	3f3f3f3f 3f3f3f3f 	.insn	8, 0x3f3f3f3f3f3f3f3f
   11d42:	3f3f3f3f 3f3f3f3f 	.insn	8, 0x3f3f3f3f3f3f3f3f
   11d4a:	3f3f3f3f 3f3f3f3f 	.insn	8, 0x3f3f3f3f3f3f3f3f
   11d52:	3f3f3f3f 3f3f3f3f 	.insn	8, 0x3f3f3f3f3f3f3f3f
   11d5a:	3f3f3f3f 3f3f3f3f 	.insn	8, 0x3f3f3f3f3f3f3f3f
   11d62:	3f3f3f3f 3f3f3f3f 	.insn	8, 0x3f3f3f3f3f3f3f3f
   11d6a:	3f3f3f3f 3f3f3f3f 	.insn	8, 0x3f3f3f3f3f3f3f3f
   11d72:	3f3f3f3f 3f3f3f3f 	.insn	8, 0x3f3f3f3f3f3f3f3f
   11d7a:	3f3f3f3f 3f3f3f3f 	.insn	8, 0x3f3f3f3f3f3f3f3f
   11d82:	3f3f3f3f 3f3f3f3f 	.insn	8, 0x3f3f3f3f3f3f3f3f
   11d8a:	3f3f3f3f 3f3f3f3f 	.insn	8, 0x3f3f3f3f3f3f3f3f
   11d92:	3f3f3f3f 3f3f3f3f 	.insn	8, 0x3f3f3f3f3f3f3f3f
   11d9a:	3f3f3f3f 3f3f3f3f 	.insn	8, 0x3f3f3f3f3f3f3f3f
   11da2:	3f3f3f3f 3f3f3f3f 	.insn	8, 0x3f3f3f3f3f3f3f3f
   11daa:	3f3f3f3f 3f3f3f3f 	.insn	8, 0x3f3f3f3f3f3f3f3f
   11db2:	3f3f3f3f 3f3f3f3f 	.insn	8, 0x3f3f3f3f3f3f3f3f
   11dba:	3f3f3f3f 3f3f3f3f 	.insn	8, 0x3f3f3f3f3f3f3f3f
   11dc2:	3f3f3f3f 3f3f3f3f 	.insn	8, 0x3f3f3f3f3f3f3f3f
   11dca:	3f3f3f3f 3f3f3f3f 	.insn	8, 0x3f3f3f3f3f3f3f3f
   11dd2:	3f3f3f3f 3f3f3f3f 	.insn	8, 0x3f3f3f3f3f3f3f3f
   11dda:	3f3f3f3f 3f3f3f3f 	.insn	8, 0x3f3f3f3f3f3f3f3f
   11de2:	3f3f3f3f 3f3f3f3f 	.insn	8, 0x3f3f3f3f3f3f3f3f
   11dea:	3f3f3f3f 3f3f3f3f 	.insn	8, 0x3f3f3f3f3f3f3f3f
   11df2:	3f3f3f3f 3f3f3f3f 	.insn	8, 0x3f3f3f3f3f3f3f3f
   11dfa:	3f3f3f3f 3f3f3f3f 	.insn	8, 0x3f3f3f3f3f3f3f3f
   11e02:	3f3f3f3f 3f3f3f3f 	.insn	8, 0x3f3f3f3f3f3f3f3f
   11e0a:	3f3f3f3f 3f3f3f3f 	.insn	8, 0x3f3f3f3f3f3f3f3f
   11e12:	3f3f3f3f 3f3f3f3f 	.insn	8, 0x3f3f3f3f3f3f3f3f
   11e1a:	3f3f3f3f 3f3f3f3f 	.insn	8, 0x3f3f3f3f3f3f3f3f
   11e22:	3f3f3f3f 3f3f3f3f 	.insn	8, 0x3f3f3f3f3f3f3f3f
   11e2a:	3f3f3f3f 3f3f3f3f 	.insn	8, 0x3f3f3f3f3f3f3f3f
   11e32:	3f3f3f3f 3f3f3f3f 	.insn	8, 0x3f3f3f3f3f3f3f3f
   11e3a:	3f3f3f3f 3f3f3f3f 	.insn	8, 0x3f3f3f3f3f3f3f3f
   11e42:	3f3f3f3f 3f3f3f3f 	.insn	8, 0x3f3f3f3f3f3f3f3f
   11e4a:	3f3f3f3f 3f3f3f3f 	.insn	8, 0x3f3f3f3f3f3f3f3f
   11e52:	3f3f3f3f 3f3f3f3f 	.insn	8, 0x3f3f3f3f3f3f3f3f
   11e5a:	3f3f3f3f 3f3f3f3f 	.insn	8, 0x3f3f3f3f3f3f3f3f
   11e62:	3f3f3f3f 3f3f3f3f 	.insn	8, 0x3f3f3f3f3f3f3f3f
   11e6a:	3f3f3f3f 3f3f3f3f 	.insn	8, 0x3f3f3f3f3f3f3f3f
   11e72:	3f3f3f3f 3f3f3f3f 	.insn	8, 0x3f3f3f3f3f3f3f3f
   11e7a:	3f3f3f3f 3f3f3f3f 	.insn	8, 0x3f3f3f3f3f3f3f3f
   11e82:	3f3f3f3f 3f3f3f3f 	.insn	8, 0x3f3f3f3f3f3f3f3f
   11e8a:	3f3f3f3f 3f3f3f3f 	.insn	8, 0x3f3f3f3f3f3f3f3f
   11e92:	3f3f3f3f 3f3f3f3f 	.insn	8, 0x3f3f3f3f3f3f3f3f
   11e9a:	3f3f3f3f 3f3f3f3f 	.insn	8, 0x3f3f3f3f3f3f3f3f
   11ea2:	3f3f3f3f 3f3f3f3f 	.insn	8, 0x3f3f3f3f3f3f3f3f
   11eaa:	3f3f3f3f 3f3f3f3f 	.insn	8, 0x3f3f3f3f3f3f3f3f
   11eb2:	3f3f3f3f 3f3f3f3f 	.insn	8, 0x3f3f3f3f3f3f3f3f
   11eba:	3f3f3f3f 3f3f3f3f 	.insn	8, 0x3f3f3f3f3f3f3f3f
   11ec2:	3f3f3f3f 3f3f3f3f 	.insn	8, 0x3f3f3f3f3f3f3f3f
   11eca:	3f3f3f3f 3f3f3f3f 	.insn	8, 0x3f3f3f3f3f3f3f3f
   11ed2:	3f3f3f3f 3f3f3f3f 	.insn	8, 0x3f3f3f3f3f3f3f3f
   11eda:	3f3f3f3f 3f3f3f3f 	.insn	8, 0x3f3f3f3f3f3f3f3f
   11ee2:	3f3f3f3f 3f3f3f3f 	.insn	8, 0x3f3f3f3f3f3f3f3f
   11eea:	3f3f3f3f 3f3f3f3f 	.insn	8, 0x3f3f3f3f3f3f3f3f
   11ef2:	3f3f3f3f 3f3f3f3f 	.insn	8, 0x3f3f3f3f3f3f3f3f
   11efa:	3f3f3f3f 3f3f3f3f 	.insn	8, 0x3f3f3f3f3f3f3f3f
   11f02:	3f3f3f3f 3f3f3f3f 	.insn	8, 0x3f3f3f3f3f3f3f3f
   11f0a:	3f3f3f3f 3f3f3f3f 	.insn	8, 0x3f3f3f3f3f3f3f3f
   11f12:	3f3f3f3f 3f3f3f3f 	.insn	8, 0x3f3f3f3f3f3f3f3f
   11f1a:	3f3f3f3f 3f3f3f3f 	.insn	8, 0x3f3f3f3f3f3f3f3f
   11f22:	3f3f3f3f 3f3f3f3f 	.insn	8, 0x3f3f3f3f3f3f3f3f
   11f2a:	3f3f3f3f 3f3f3f3f 	.insn	8, 0x3f3f3f3f3f3f3f3f
   11f32:	3f3f3f3f 3f3f3f3f 	.insn	8, 0x3f3f3f3f3f3f3f3f
   11f3a:	3f3f3f3f 3f3f3f3f 	.insn	8, 0x3f3f3f3f3f3f3f3f
   11f42:	3f3f3f3f 3f3f3f3f 	.insn	8, 0x3f3f3f3f3f3f3f3f
   11f4a:	3f3f3f3f 3f3f3f3f 	.insn	8, 0x3f3f3f3f3f3f3f3f
   11f52:	3f3f3f3f 3f3f3f3f 	.insn	8, 0x3f3f3f3f3f3f3f3f
   11f5a:	3f3f3f3f 3f3f3f3f 	.insn	8, 0x3f3f3f3f3f3f3f3f
   11f62:	3f3f3f3f 3f3f3f3f 	.insn	8, 0x3f3f3f3f3f3f3f3f
   11f6a:	3f3f3f3f 3f3f3f3f 	.insn	8, 0x3f3f3f3f3f3f3f3f
   11f72:	3f3f3f3f 3f3f3f3f 	.insn	8, 0x3f3f3f3f3f3f3f3f
   11f7a:	3f3f3f3f 3f3f3f3f 	.insn	8, 0x3f3f3f3f3f3f3f3f
   11f82:	3f3f3f3f 3f3f3f3f 	.insn	8, 0x3f3f3f3f3f3f3f3f
   11f8a:	3f3f3f3f 3f3f3f3f 	.insn	8, 0x3f3f3f3f3f3f3f3f
   11f92:	3f3f3f3f 3f3f3f3f 	.insn	8, 0x3f3f3f3f3f3f3f3f
   11f9a:	3f3f3f3f 3f3f3f3f 	.insn	8, 0x3f3f3f3f3f3f3f3f
   11fa2:	3f3f3f3f 3f3f3f3f 	.insn	8, 0x3f3f3f3f3f3f3f3f
   11faa:	3f3f3f3f 3f3f3f3f 	.insn	8, 0x3f3f3f3f3f3f3f3f
   11fb2:	3f3f3f3f 3f3f3f3f 	.insn	8, 0x3f3f3f3f3f3f3f3f
   11fba:	3f3f3f3f 3f3f3f3f 	.insn	8, 0x3f3f3f3f3f3f3f3f
   11fc2:	3f3f3f3f 3f3f3f3f 	.insn	8, 0x3f3f3f3f3f3f3f3f
   11fca:	3f3f3f3f 3f3f3f3f 	.insn	8, 0x3f3f3f3f3f3f3f3f
   11fd2:	3f3f3f3f 3f3f3f3f 	.insn	8, 0x3f3f3f3f3f3f3f3f
   11fda:	3f3f3f3f 3f3f3f3f 	.insn	8, 0x3f3f3f3f3f3f3f3f
   11fe2:	3f3f3f3f 3f3f3f3f 	.insn	8, 0x3f3f3f3f3f3f3f3f
   11fea:	3f3f3f3f 3f3f3f3f 	.insn	8, 0x3f3f3f3f3f3f3f3f
   11ff2:	3f3f3f3f 3f3f3f3f 	.insn	8, 0x3f3f3f3f3f3f3f3f
   11ffa:	3f3f3f3f 3f3f3f3f 	.insn	8, 0x3f3f3f3f3f3f3f3f
   12002:	3f3f3f3f 3f3f3f3f 	.insn	8, 0x3f3f3f3f3f3f3f3f
   1200a:	3f3f3f3f 3f3f3f3f 	.insn	8, 0x3f3f3f3f3f3f3f3f
   12012:	3f3f3f3f 3f3f3f3f 	.insn	8, 0x3f3f3f3f3f3f3f3f
   1201a:	3f3f3f3f 3f3f3f3f 	.insn	8, 0x3f3f3f3f3f3f3f3f
   12022:	3f3f3f3f 3f3f3f3f 	.insn	8, 0x3f3f3f3f3f3f3f3f
   1202a:	3f3f3f3f 3f3f3f3f 	.insn	8, 0x3f3f3f3f3f3f3f3f
   12032:	3f3f3f3f 3f3f3f3f 	.insn	8, 0x3f3f3f3f3f3f3f3f
   1203a:	3f3f3f3f 3f3f3f3f 	.insn	8, 0x3f3f3f3f3f3f3f3f
   12042:	3f3f3f3f 3f3f3f3f 	.insn	8, 0x3f3f3f3f3f3f3f3f
   1204a:	3f3f3f3f 3f3f3f3f 	.insn	8, 0x3f3f3f3f3f3f3f3f
   12052:	3f3f3f3f 3f3f3f3f 	.insn	8, 0x3f3f3f3f3f3f3f3f
   1205a:	3f3f3f3f 3f3f3f3f 	.insn	8, 0x3f3f3f3f3f3f3f3f
   12062:	3f3f3f3f 3f3f3f3f 	.insn	8, 0x3f3f3f3f3f3f3f3f
   1206a:	3f3f3f3f 3f3f3f3f 	.insn	8, 0x3f3f3f3f3f3f3f3f
   12072:	3f3f3f3f 3f3f3f3f 	.insn	8, 0x3f3f3f3f3f3f3f3f
   1207a:	3f3f3f3f 3f3f3f3f 	.insn	8, 0x3f3f3f3f3f3f3f3f
   12082:	3f3f3f3f 3f3f3f3f 	.insn	8, 0x3f3f3f3f3f3f3f3f
   1208a:	3f3f3f3f 3f3f3f3f 	.insn	8, 0x3f3f3f3f3f3f3f3f
   12092:	3f3f3f3f 3f3f3f3f 	.insn	8, 0x3f3f3f3f3f3f3f3f
   1209a:	3f3f3f3f 3f3f3f3f 	.insn	8, 0x3f3f3f3f3f3f3f3f
   120a2:	3f3f3f3f 3f3f3f3f 	.insn	8, 0x3f3f3f3f3f3f3f3f
   120aa:	3f3f3f3f 3f3f3f3f 	.insn	8, 0x3f3f3f3f3f3f3f3f
   120b2:	3f3f3f3f 3f3f3f3f 	.insn	8, 0x3f3f3f3f3f3f3f3f
   120ba:	3f3f3f3f 3f3f3f3f 	.insn	8, 0x3f3f3f3f3f3f3f3f
   120c2:	3f3f3f3f 3f3f3f3f 	.insn	8, 0x3f3f3f3f3f3f3f3f
   120ca:	3f3f3f3f 3f3f3f3f 	.insn	8, 0x3f3f3f3f3f3f3f3f
   120d2:	3f3f3f3f 3f3f3f3f 	.insn	8, 0x3f3f3f3f3f3f3f3f
   120da:	3f3f3f3f 3f3f3f3f 	.insn	8, 0x3f3f3f3f3f3f3f3f
   120e2:	3f3f3f3f 3f3f3f3f 	.insn	8, 0x3f3f3f3f3f3f3f3f
   120ea:	3f3f3f3f 3f3f3f3f 	.insn	8, 0x3f3f3f3f3f3f3f3f
   120f2:	3f3f3f3f 3f3f3f3f 	.insn	8, 0x3f3f3f3f3f3f3f3f
   120fa:	3f3f3f3f 3f3f3f3f 	.insn	8, 0x3f3f3f3f3f3f3f3f
   12102:	3f3f3f3f 3f3f3f3f 	.insn	8, 0x3f3f3f3f3f3f3f3f
   1210a:	3f3f3f3f 3f3f3f3f 	.insn	8, 0x3f3f3f3f3f3f3f3f
   12112:	3f3f3f3f 3f3f3f3f 	.insn	8, 0x3f3f3f3f3f3f3f3f
   1211a:	3f3f3f3f 3f3f3f3f 	.insn	8, 0x3f3f3f3f3f3f3f3f
   12122:	3f3f3f3f 3f3f3f3f 	.insn	8, 0x3f3f3f3f3f3f3f3f
   1212a:	3f3f3f3f 3f3f3f3f 	.insn	8, 0x3f3f3f3f3f3f3f3f
   12132:	3f3f3f3f 3f3f3f3f 	.insn	8, 0x3f3f3f3f3f3f3f3f
   1213a:	3f3f3f3f 3f3f3f3f 	.insn	8, 0x3f3f3f3f3f3f3f3f
   12142:	3f3f3f3f 3f3f3f3f 	.insn	8, 0x3f3f3f3f3f3f3f3f
   1214a:	3f3f3f3f 3f3f3f3f 	.insn	8, 0x3f3f3f3f3f3f3f3f
   12152:	3f3f3f3f 3f3f3f3f 	.insn	8, 0x3f3f3f3f3f3f3f3f
   1215a:	3f3f3f3f 3f3f3f3f 	.insn	8, 0x3f3f3f3f3f3f3f3f
   12162:	3f3f3f3f 3f3f3f3f 	.insn	8, 0x3f3f3f3f3f3f3f3f
   1216a:	3f3f3f3f 3f3f3f3f 	.insn	8, 0x3f3f3f3f3f3f3f3f
   12172:	3f3f3f3f 3f3f3f3f 	.insn	8, 0x3f3f3f3f3f3f3f3f
   1217a:	3f3f3f3f 3f3f3f3f 	.insn	8, 0x3f3f3f3f3f3f3f3f
   12182:	3f3f3f3f 3f3f3f3f 	.insn	8, 0x3f3f3f3f3f3f3f3f
   1218a:	3f3f3f3f 3f3f3f3f 	.insn	8, 0x3f3f3f3f3f3f3f3f
   12192:	3f3f3f3f 3f3f3f3f 	.insn	8, 0x3f3f3f3f3f3f3f3f
   1219a:	3f3f3f3f 3f3f3f3f 	.insn	8, 0x3f3f3f3f3f3f3f3f
   121a2:	3f3f3f3f 3f3f3f3f 	.insn	8, 0x3f3f3f3f3f3f3f3f
   121aa:	3f3f3f3f 3f3f3f3f 	.insn	8, 0x3f3f3f3f3f3f3f3f
   121b2:	3f3f3f3f 3f3f3f3f 	.insn	8, 0x3f3f3f3f3f3f3f3f
   121ba:	3f3f3f3f 3f3f3f3f 	.insn	8, 0x3f3f3f3f3f3f3f3f
   121c2:	3f3f3f3f 3f3f3f3f 	.insn	8, 0x3f3f3f3f3f3f3f3f
   121ca:	3f3f3f3f 3f3f3f3f 	.insn	8, 0x3f3f3f3f3f3f3f3f
   121d2:	3f3f3f3f 3f3f3f3f 	.insn	8, 0x3f3f3f3f3f3f3f3f
   121da:	3f3f3f3f 3f3f3f3f 	.insn	8, 0x3f3f3f3f3f3f3f3f
   121e2:	3f3f3f3f 3f3f3f3f 	.insn	8, 0x3f3f3f3f3f3f3f3f
   121ea:	3f3f3f3f 3f3f3f3f 	.insn	8, 0x3f3f3f3f3f3f3f3f
   121f2:	3f3f3f3f 3f3f3f3f 	.insn	8, 0x3f3f3f3f3f3f3f3f
   121fa:	3f3f3f3f 3f3f3f3f 	.insn	8, 0x3f3f3f3f3f3f3f3f
   12202:	3f3f3f3f 3f3f3f3f 	.insn	8, 0x3f3f3f3f3f3f3f3f
   1220a:	3f3f3f3f 3f3f3f3f 	.insn	8, 0x3f3f3f3f3f3f3f3f
   12212:	3f3f3f3f 3f3f3f3f 	.insn	8, 0x3f3f3f3f3f3f3f3f
   1221a:	3f3f3f3f 3f3f3f3f 	.insn	8, 0x3f3f3f3f3f3f3f3f
   12222:	3f3f3f3f 3f3f3f3f 	.insn	8, 0x3f3f3f3f3f3f3f3f
   1222a:	3f3f3f3f 3f3f3f3f 	.insn	8, 0x3f3f3f3f3f3f3f3f
   12232:	3f3f3f3f 3f3f3f3f 	.insn	8, 0x3f3f3f3f3f3f3f3f
   1223a:	3f3f3f3f 3f3f3f3f 	.insn	8, 0x3f3f3f3f3f3f3f3f
   12242:	3f3f3f3f 3f3f3f3f 	.insn	8, 0x3f3f3f3f3f3f3f3f
   1224a:	3f3f3f3f 3f3f3f3f 	.insn	8, 0x3f3f3f3f3f3f3f3f
   12252:	3f3f3f3f 3f3f3f3f 	.insn	8, 0x3f3f3f3f3f3f3f3f
   1225a:	3f3f3f3f 3f3f3f3f 	.insn	8, 0x3f3f3f3f3f3f3f3f
   12262:	3f3f3f3f 3f3f3f3f 	.insn	8, 0x3f3f3f3f3f3f3f3f
   1226a:	3f3f3f3f 3f3f3f3f 	.insn	8, 0x3f3f3f3f3f3f3f3f
   12272:	3f3f3f3f 3f3f3f3f 	.insn	8, 0x3f3f3f3f3f3f3f3f
   1227a:	3f3f3f3f 3f3f3f3f 	.insn	8, 0x3f3f3f3f3f3f3f3f
   12282:	3f3f3f3f 3f3f3f3f 	.insn	8, 0x3f3f3f3f3f3f3f3f
   1228a:	3f3f3f3f 3f3f3f3f 	.insn	8, 0x3f3f3f3f3f3f3f3f
   12292:	3f3f3f3f 3f3f3f3f 	.insn	8, 0x3f3f3f3f3f3f3f3f
   1229a:	3f3f3f3f 3f3f3f3f 	.insn	8, 0x3f3f3f3f3f3f3f3f
   122a2:	3f3f3f3f 3f3f3f3f 	.insn	8, 0x3f3f3f3f3f3f3f3f
   122aa:	3f3f3f3f 3f3f3f3f 	.insn	8, 0x3f3f3f3f3f3f3f3f
   122b2:	3f3f3f3f 3f3f3f3f 	.insn	8, 0x3f3f3f3f3f3f3f3f
   122ba:	3f3f3f3f 3f3f3f3f 	.insn	8, 0x3f3f3f3f3f3f3f3f
   122c2:	3f3f3f3f 3f3f3f3f 	.insn	8, 0x3f3f3f3f3f3f3f3f
   122ca:	3f3f3f3f 3f3f3f3f 	.insn	8, 0x3f3f3f3f3f3f3f3f
   122d2:	3f3f3f3f 3f3f3f3f 	.insn	8, 0x3f3f3f3f3f3f3f3f
   122da:	3f3f3f3f 3f3f3f3f 	.insn	8, 0x3f3f3f3f3f3f3f3f
   122e2:	3f3f3f3f 3f3f3f3f 	.insn	8, 0x3f3f3f3f3f3f3f3f
   122ea:	3f3f3f3f 3f3f3f3f 	.insn	8, 0x3f3f3f3f3f3f3f3f
   122f2:	3f3f3f3f 3f3f3f3f 	.insn	8, 0x3f3f3f3f3f3f3f3f
   122fa:	3f3f3f3f 3f3f3f3f 	.insn	8, 0x3f3f3f3f3f3f3f3f
   12302:	3f3f3f3f 3f3f3f3f 	.insn	8, 0x3f3f3f3f3f3f3f3f
   1230a:	3f3f3f3f 3f3f3f3f 	.insn	8, 0x3f3f3f3f3f3f3f3f
   12312:	3f3f3f3f 3f3f3f3f 	.insn	8, 0x3f3f3f3f3f3f3f3f
   1231a:	3f3f3f3f 3f3f3f3f 	.insn	8, 0x3f3f3f3f3f3f3f3f
   12322:	3f3f3f3f 3f3f3f3f 	.insn	8, 0x3f3f3f3f3f3f3f3f
   1232a:	3f3f3f3f 3f3f3f3f 	.insn	8, 0x3f3f3f3f3f3f3f3f
   12332:	3f3f3f3f 3f3f3f3f 	.insn	8, 0x3f3f3f3f3f3f3f3f
   1233a:	3f3f3f3f 3f3f3f3f 	.insn	8, 0x3f3f3f3f3f3f3f3f
   12342:	3f3f3f3f 3f3f3f3f 	.insn	8, 0x3f3f3f3f3f3f3f3f
   1234a:	3f3f3f3f 3f3f3f3f 	.insn	8, 0x3f3f3f3f3f3f3f3f
   12352:	3f3f3f3f 3f3f3f3f 	.insn	8, 0x3f3f3f3f3f3f3f3f
   1235a:	3f3f3f3f 3f3f3f3f 	.insn	8, 0x3f3f3f3f3f3f3f3f
   12362:	3f3f3f3f 3f3f3f3f 	.insn	8, 0x3f3f3f3f3f3f3f3f
   1236a:	3f3f3f3f 3f3f3f3f 	.insn	8, 0x3f3f3f3f3f3f3f3f
   12372:	3f3f3f3f 3f3f3f3f 	.insn	8, 0x3f3f3f3f3f3f3f3f
   1237a:	3f3f3f3f 3f3f3f3f 	.insn	8, 0x3f3f3f3f3f3f3f3f
   12382:	3f3f3f3f 3f3f3f3f 	.insn	8, 0x3f3f3f3f3f3f3f3f
   1238a:	3f3f3f3f 3f3f3f3f 	.insn	8, 0x3f3f3f3f3f3f3f3f
   12392:	3f3f3f3f 3f3f3f3f 	.insn	8, 0x3f3f3f3f3f3f3f3f
   1239a:	3f3f3f3f 3f3f3f3f 	.insn	8, 0x3f3f3f3f3f3f3f3f
   123a2:	3f3f3f3f 3f3f3f3f 	.insn	8, 0x3f3f3f3f3f3f3f3f
   123aa:	3f3f3f3f 3f3f3f3f 	.insn	8, 0x3f3f3f3f3f3f3f3f
   123b2:	3f3f3f3f 3f3f3f3f 	.insn	8, 0x3f3f3f3f3f3f3f3f
   123ba:	3f3f3f3f 3f3f3f3f 	.insn	8, 0x3f3f3f3f3f3f3f3f
   123c2:	3f3f3f3f 3f3f3f3f 	.insn	8, 0x3f3f3f3f3f3f3f3f
   123ca:	3f3f3f3f 3f3f3f3f 	.insn	8, 0x3f3f3f3f3f3f3f3f
   123d2:	3f3f3f3f 3f3f3f3f 	.insn	8, 0x3f3f3f3f3f3f3f3f
   123da:	3f3f3f3f 3f3f3f3f 	.insn	8, 0x3f3f3f3f3f3f3f3f
   123e2:	3f3f3f3f 3f3f3f3f 	.insn	8, 0x3f3f3f3f3f3f3f3f
   123ea:	3f3f3f3f 3f3f3f3f 	.insn	8, 0x3f3f3f3f3f3f3f3f
   123f2:	3f3f3f3f 3f3f3f3f 	.insn	8, 0x3f3f3f3f3f3f3f3f
   123fa:	3f3f3f3f 3f3f3f3f 	.insn	8, 0x3f3f3f3f3f3f3f3f
   12402:	3f3f3f3f 3f3f3f3f 	.insn	8, 0x3f3f3f3f3f3f3f3f
   1240a:	3f3f3f3f 3f3f3f3f 	.insn	8, 0x3f3f3f3f3f3f3f3f
   12412:	3f3f3f3f 3f3f3f3f 	.insn	8, 0x3f3f3f3f3f3f3f3f
   1241a:	3f3f3f3f 3f3f3f3f 	.insn	8, 0x3f3f3f3f3f3f3f3f
   12422:	3f3f3f3f 3f3f3f3f 	.insn	8, 0x3f3f3f3f3f3f3f3f
   1242a:	3f3f3f3f 3f3f3f3f 	.insn	8, 0x3f3f3f3f3f3f3f3f
   12432:	3f3f3f3f 3f3f3f3f 	.insn	8, 0x3f3f3f3f3f3f3f3f
   1243a:	3f3f3f3f 3f3f3f3f 	.insn	8, 0x3f3f3f3f3f3f3f3f
   12442:	3f3f3f3f 3f3f3f3f 	.insn	8, 0x3f3f3f3f3f3f3f3f
   1244a:	3f3f3f3f 3f3f3f3f 	.insn	8, 0x3f3f3f3f3f3f3f3f
   12452:	3f3f3f3f 3f3f3f3f 	.insn	8, 0x3f3f3f3f3f3f3f3f
   1245a:	3f3f3f3f 3f3f3f3f 	.insn	8, 0x3f3f3f3f3f3f3f3f
   12462:	3f3f3f3f 3f3f3f3f 	.insn	8, 0x3f3f3f3f3f3f3f3f
   1246a:	3f3f3f3f 3f3f3f3f 	.insn	8, 0x3f3f3f3f3f3f3f3f
   12472:	3f3f3f3f 3f3f3f3f 	.insn	8, 0x3f3f3f3f3f3f3f3f
   1247a:	3f3f3f3f 3f3f3f3f 	.insn	8, 0x3f3f3f3f3f3f3f3f
   12482:	3f3f3f3f 3f3f3f3f 	.insn	8, 0x3f3f3f3f3f3f3f3f
   1248a:	3f3f3f3f 3f3f3f3f 	.insn	8, 0x3f3f3f3f3f3f3f3f
   12492:	3f3f3f3f 3f3f3f3f 	.insn	8, 0x3f3f3f3f3f3f3f3f
   1249a:	3f3f3f3f 3f3f3f3f 	.insn	8, 0x3f3f3f3f3f3f3f3f
   124a2:	3f3f3f3f 3f3f3f3f 	.insn	8, 0x3f3f3f3f3f3f3f3f
   124aa:	3f3f3f3f 3f3f3f3f 	.insn	8, 0x3f3f3f3f3f3f3f3f
   124b2:	3f3f3f3f 3f3f3f3f 	.insn	8, 0x3f3f3f3f3f3f3f3f
   124ba:	3f3f3f3f 3f3f3f3f 	.insn	8, 0x3f3f3f3f3f3f3f3f
   124c2:	3f3f3f3f 3f3f3f3f 	.insn	8, 0x3f3f3f3f3f3f3f3f
   124ca:	3f3f3f3f 3f3f3f3f 	.insn	8, 0x3f3f3f3f3f3f3f3f
   124d2:	3f3f3f3f 3f3f3f3f 	.insn	8, 0x3f3f3f3f3f3f3f3f
   124da:	3f3f3f3f 3f3f3f3f 	.insn	8, 0x3f3f3f3f3f3f3f3f
   124e2:	3f3f3f3f 3f3f3f3f 	.insn	8, 0x3f3f3f3f3f3f3f3f
   124ea:	3f3f3f3f 3f3f3f3f 	.insn	8, 0x3f3f3f3f3f3f3f3f
   124f2:	3f3f3f3f 3f3f3f3f 	.insn	8, 0x3f3f3f3f3f3f3f3f
   124fa:	3f3f3f3f 3f3f3f3f 	.insn	8, 0x3f3f3f3f3f3f3f3f
   12502:	3f3f3f3f 3f3f3f3f 	.insn	8, 0x3f3f3f3f3f3f3f3f
   1250a:	3f3f3f3f 3f3f3f3f 	.insn	8, 0x3f3f3f3f3f3f3f3f
   12512:	3f3f3f3f 3f3f3f3f 	.insn	8, 0x3f3f3f3f3f3f3f3f
   1251a:	3f3f3f3f 3f3f3f3f 	.insn	8, 0x3f3f3f3f3f3f3f3f
   12522:	3f3f3f3f 3f3f3f3f 	.insn	8, 0x3f3f3f3f3f3f3f3f
   1252a:	3f3f3f3f 3f3f3f3f 	.insn	8, 0x3f3f3f3f3f3f3f3f
   12532:	3f3f3f3f 3f3f3f3f 	.insn	8, 0x3f3f3f3f3f3f3f3f
   1253a:	3f3f3f3f 3f3f3f3f 	.insn	8, 0x3f3f3f3f3f3f3f3f
   12542:	3f3f3f3f 3f3f3f3f 	.insn	8, 0x3f3f3f3f3f3f3f3f
   1254a:	3f3f3f3f 3f3f3f3f 	.insn	8, 0x3f3f3f3f3f3f3f3f
   12552:	3f3f3f3f 3f3f3f3f 	.insn	8, 0x3f3f3f3f3f3f3f3f
   1255a:	3f3f3f3f 3f3f3f3f 	.insn	8, 0x3f3f3f3f3f3f3f3f
   12562:	3f3f3f3f 3f3f3f3f 	.insn	8, 0x3f3f3f3f3f3f3f3f
   1256a:	3f3f3f3f 3f3f3f3f 	.insn	8, 0x3f3f3f3f3f3f3f3f
   12572:	3f3f3f3f 3f3f3f3f 	.insn	8, 0x3f3f3f3f3f3f3f3f
   1257a:	3f3f3f3f 3f3f3f3f 	.insn	8, 0x3f3f3f3f3f3f3f3f
   12582:	3f3f3f3f 3f3f3f3f 	.insn	8, 0x3f3f3f3f3f3f3f3f
   1258a:	3f3f3f3f 3f3f3f3f 	.insn	8, 0x3f3f3f3f3f3f3f3f
   12592:	3f3f3f3f 3f3f3f3f 	.insn	8, 0x3f3f3f3f3f3f3f3f
   1259a:	3f3f3f3f 3f3f3f3f 	.insn	8, 0x3f3f3f3f3f3f3f3f
   125a2:	3f3f3f3f 3f3f3f3f 	.insn	8, 0x3f3f3f3f3f3f3f3f
   125aa:	3f3f3f3f 3f3f3f3f 	.insn	8, 0x3f3f3f3f3f3f3f3f
   125b2:	3f3f3f3f 3f3f3f3f 	.insn	8, 0x3f3f3f3f3f3f3f3f
   125ba:	3f3f3f3f 3f3f3f3f 	.insn	8, 0x3f3f3f3f3f3f3f3f
   125c2:	3f3f3f3f 3f3f3f3f 	.insn	8, 0x3f3f3f3f3f3f3f3f
   125ca:	3f3f3f3f 3f3f3f3f 	.insn	8, 0x3f3f3f3f3f3f3f3f
   125d2:	3f3f3f3f 3f3f3f3f 	.insn	8, 0x3f3f3f3f3f3f3f3f
   125da:	3f3f3f3f 3f3f3f3f 	.insn	8, 0x3f3f3f3f3f3f3f3f
   125e2:	3f3f3f3f 3f3f3f3f 	.insn	8, 0x3f3f3f3f3f3f3f3f
   125ea:	3f3f3f3f 3f3f3f3f 	.insn	8, 0x3f3f3f3f3f3f3f3f
   125f2:	3f3f3f3f 3f3f3f3f 	.insn	8, 0x3f3f3f3f3f3f3f3f
   125fa:	3f3f3f3f 3f3f3f3f 	.insn	8, 0x3f3f3f3f3f3f3f3f
   12602:	3f3f3f3f 3f3f3f3f 	.insn	8, 0x3f3f3f3f3f3f3f3f
   1260a:	3f3f3f3f 3f3f3f3f 	.insn	8, 0x3f3f3f3f3f3f3f3f
   12612:	3f3f3f3f 3f3f3f3f 	.insn	8, 0x3f3f3f3f3f3f3f3f
   1261a:	3f3f3f3f 3f3f3f3f 	.insn	8, 0x3f3f3f3f3f3f3f3f
   12622:	3f3f3f3f 3f3f3f3f 	.insn	8, 0x3f3f3f3f3f3f3f3f
   1262a:	3f3f3f3f 3f3f3f3f 	.insn	8, 0x3f3f3f3f3f3f3f3f
   12632:	3f3f3f3f 3f3f3f3f 	.insn	8, 0x3f3f3f3f3f3f3f3f
   1263a:	3f3f3f3f 3f3f3f3f 	.insn	8, 0x3f3f3f3f3f3f3f3f
   12642:	3f3f3f3f 3f3f3f3f 	.insn	8, 0x3f3f3f3f3f3f3f3f
   1264a:	3f3f3f3f 3f3f3f3f 	.insn	8, 0x3f3f3f3f3f3f3f3f
   12652:	3f3f3f3f 3f3f3f3f 	.insn	8, 0x3f3f3f3f3f3f3f3f
   1265a:	3f3f3f3f 3f3f3f3f 	.insn	8, 0x3f3f3f3f3f3f3f3f
   12662:	3f3f3f3f 3f3f3f3f 	.insn	8, 0x3f3f3f3f3f3f3f3f
   1266a:	3f3f3f3f 3f3f3f3f 	.insn	8, 0x3f3f3f3f3f3f3f3f
   12672:	3f3f3f3f 3f3f3f3f 	.insn	8, 0x3f3f3f3f3f3f3f3f
   1267a:	3f3f3f3f 3f3f3f3f 	.insn	8, 0x3f3f3f3f3f3f3f3f
   12682:	3f3f3f3f 3f3f3f3f 	.insn	8, 0x3f3f3f3f3f3f3f3f
   1268a:	3f3f3f3f 3f3f3f3f 	.insn	8, 0x3f3f3f3f3f3f3f3f
   12692:	3f3f3f3f 3f3f3f3f 	.insn	8, 0x3f3f3f3f3f3f3f3f
   1269a:	3f3f3f3f 3f3f3f3f 	.insn	8, 0x3f3f3f3f3f3f3f3f
   126a2:	3f3f3f3f 3f3f3f3f 	.insn	8, 0x3f3f3f3f3f3f3f3f
   126aa:	3f3f3f3f 3f3f3f3f 	.insn	8, 0x3f3f3f3f3f3f3f3f
   126b2:	3f3f3f3f 3f3f3f3f 	.insn	8, 0x3f3f3f3f3f3f3f3f
   126ba:	3f3f3f3f 3f3f3f3f 	.insn	8, 0x3f3f3f3f3f3f3f3f
   126c2:	3f3f3f3f 3f3f3f3f 	.insn	8, 0x3f3f3f3f3f3f3f3f
   126ca:	3f3f3f3f 3f3f3f3f 	.insn	8, 0x3f3f3f3f3f3f3f3f
   126d2:	3f3f3f3f 3f3f3f3f 	.insn	8, 0x3f3f3f3f3f3f3f3f
   126da:	3f3f3f3f 3f3f3f3f 	.insn	8, 0x3f3f3f3f3f3f3f3f
   126e2:	3f3f3f3f 3f3f3f3f 	.insn	8, 0x3f3f3f3f3f3f3f3f
   126ea:	3f3f3f3f 3f3f3f3f 	.insn	8, 0x3f3f3f3f3f3f3f3f
   126f2:	3f3f3f3f 3f3f3f3f 	.insn	8, 0x3f3f3f3f3f3f3f3f
   126fa:	3f3f3f3f 3f3f3f3f 	.insn	8, 0x3f3f3f3f3f3f3f3f
   12702:	3f3f3f3f 3f3f3f3f 	.insn	8, 0x3f3f3f3f3f3f3f3f
   1270a:	3f3f3f3f 3f3f3f3f 	.insn	8, 0x3f3f3f3f3f3f3f3f
   12712:	3f3f3f3f 3f3f3f3f 	.insn	8, 0x3f3f3f3f3f3f3f3f
   1271a:	3f3f3f3f 3f3f3f3f 	.insn	8, 0x3f3f3f3f3f3f3f3f
   12722:	3f3f3f3f 3f3f3f3f 	.insn	8, 0x3f3f3f3f3f3f3f3f
   1272a:	3f3f3f3f 3f3f3f3f 	.insn	8, 0x3f3f3f3f3f3f3f3f
   12732:	3f3f3f3f 3f3f3f3f 	.insn	8, 0x3f3f3f3f3f3f3f3f
   1273a:	3f3f3f3f 3f3f3f3f 	.insn	8, 0x3f3f3f3f3f3f3f3f
   12742:	3f3f3f3f 3f3f3f3f 	.insn	8, 0x3f3f3f3f3f3f3f3f
   1274a:	3f3f3f3f 3f3f3f3f 	.insn	8, 0x3f3f3f3f3f3f3f3f
   12752:	3f3f3f3f 3f3f3f3f 	.insn	8, 0x3f3f3f3f3f3f3f3f
   1275a:	3f3f3f3f 3f3f3f3f 	.insn	8, 0x3f3f3f3f3f3f3f3f
   12762:	3f3f3f3f 3f3f3f3f 	.insn	8, 0x3f3f3f3f3f3f3f3f
   1276a:	3f3f3f3f 3f3f3f3f 	.insn	8, 0x3f3f3f3f3f3f3f3f
   12772:	3f3f3f3f 3f3f3f3f 	.insn	8, 0x3f3f3f3f3f3f3f3f
   1277a:	3f3f3f3f 3f3f3f3f 	.insn	8, 0x3f3f3f3f3f3f3f3f
   12782:	3f3f3f3f 3f3f3f3f 	.insn	8, 0x3f3f3f3f3f3f3f3f
   1278a:	3f3f3f3f 3f3f3f3f 	.insn	8, 0x3f3f3f3f3f3f3f3f
   12792:	3f3f3f3f 3f3f3f3f 	.insn	8, 0x3f3f3f3f3f3f3f3f
   1279a:	3f3f3f3f 3f3f3f3f 	.insn	8, 0x3f3f3f3f3f3f3f3f
   127a2:	3f3f3f3f 3f3f3f3f 	.insn	8, 0x3f3f3f3f3f3f3f3f
   127aa:	3f3f3f3f 3f3f3f3f 	.insn	8, 0x3f3f3f3f3f3f3f3f
   127b2:	3f3f3f3f 3f3f3f3f 	.insn	8, 0x3f3f3f3f3f3f3f3f
   127ba:	3f3f3f3f 3f3f3f3f 	.insn	8, 0x3f3f3f3f3f3f3f3f
   127c2:	3f3f3f3f 3f3f3f3f 	.insn	8, 0x3f3f3f3f3f3f3f3f
   127ca:	3f3f3f3f 3f3f3f3f 	.insn	8, 0x3f3f3f3f3f3f3f3f
   127d2:	3f3f3f3f 3f3f3f3f 	.insn	8, 0x3f3f3f3f3f3f3f3f
   127da:	3f3f3f3f 3f3f3f3f 	.insn	8, 0x3f3f3f3f3f3f3f3f
   127e2:	3f3f3f3f 3f3f3f3f 	.insn	8, 0x3f3f3f3f3f3f3f3f
   127ea:	3f3f3f3f 3f3f3f3f 	.insn	8, 0x3f3f3f3f3f3f3f3f
   127f2:	3f3f3f3f 3f3f3f3f 	.insn	8, 0x3f3f3f3f3f3f3f3f
   127fa:	3f3f3f3f 3f3f3f3f 	.insn	8, 0x3f3f3f3f3f3f3f3f
   12802:	3f3f3f3f 3f3f3f3f 	.insn	8, 0x3f3f3f3f3f3f3f3f
   1280a:	3f3f3f3f 3f3f3f3f 	.insn	8, 0x3f3f3f3f3f3f3f3f
   12812:	3f3f3f3f 3f3f3f3f 	.insn	8, 0x3f3f3f3f3f3f3f3f
   1281a:	3f3f3f3f 3f3f3f3f 	.insn	8, 0x3f3f3f3f3f3f3f3f
   12822:	3f3f3f3f 3f3f3f3f 	.insn	8, 0x3f3f3f3f3f3f3f3f
   1282a:	3f3f3f3f 3f3f3f3f 	.insn	8, 0x3f3f3f3f3f3f3f3f
   12832:	3f3f3f3f 3f3f3f3f 	.insn	8, 0x3f3f3f3f3f3f3f3f
   1283a:	3f3f3f3f 3f3f3f3f 	.insn	8, 0x3f3f3f3f3f3f3f3f
   12842:	3f3f3f3f 3f3f3f3f 	.insn	8, 0x3f3f3f3f3f3f3f3f
   1284a:	3f3f3f3f 3f3f3f3f 	.insn	8, 0x3f3f3f3f3f3f3f3f
   12852:	3f3f3f3f 3f3f3f3f 	.insn	8, 0x3f3f3f3f3f3f3f3f
   1285a:	3f3f3f3f 3f3f3f3f 	.insn	8, 0x3f3f3f3f3f3f3f3f
   12862:	3f3f3f3f 3f3f3f3f 	.insn	8, 0x3f3f3f3f3f3f3f3f
   1286a:	3f3f3f3f 3f3f3f3f 	.insn	8, 0x3f3f3f3f3f3f3f3f
   12872:	3f3f3f3f 3f3f3f3f 	.insn	8, 0x3f3f3f3f3f3f3f3f
   1287a:	3f3f3f3f 3f3f3f3f 	.insn	8, 0x3f3f3f3f3f3f3f3f
   12882:	3f3f3f3f 3f3f3f3f 	.insn	8, 0x3f3f3f3f3f3f3f3f
   1288a:	3f3f3f3f 3f3f3f3f 	.insn	8, 0x3f3f3f3f3f3f3f3f
   12892:	3f3f3f3f 3f3f3f3f 	.insn	8, 0x3f3f3f3f3f3f3f3f
   1289a:	3f3f3f3f 3f3f3f3f 	.insn	8, 0x3f3f3f3f3f3f3f3f
   128a2:	3f3f3f3f 3f3f3f3f 	.insn	8, 0x3f3f3f3f3f3f3f3f
   128aa:	3f3f3f3f 3f3f3f3f 	.insn	8, 0x3f3f3f3f3f3f3f3f
   128b2:	3f3f3f3f 3f3f3f3f 	.insn	8, 0x3f3f3f3f3f3f3f3f
   128ba:	3f3f3f3f 3f3f3f3f 	.insn	8, 0x3f3f3f3f3f3f3f3f
   128c2:	3f3f3f3f 3f3f3f3f 	.insn	8, 0x3f3f3f3f3f3f3f3f
   128ca:	3f3f3f3f 3f3f3f3f 	.insn	8, 0x3f3f3f3f3f3f3f3f
   128d2:	3f3f3f3f 3f3f3f3f 	.insn	8, 0x3f3f3f3f3f3f3f3f
   128da:	3f3f3f3f 3f3f3f3f 	.insn	8, 0x3f3f3f3f3f3f3f3f
   128e2:	3f3f3f3f 3f3f3f3f 	.insn	8, 0x3f3f3f3f3f3f3f3f
   128ea:	3f3f3f3f 3f3f3f3f 	.insn	8, 0x3f3f3f3f3f3f3f3f
   128f2:	3f3f3f3f 3f3f3f3f 	.insn	8, 0x3f3f3f3f3f3f3f3f
   128fa:	3f3f3f3f 3f3f3f3f 	.insn	8, 0x3f3f3f3f3f3f3f3f
   12902:	3f3f3f3f 3f3f3f3f 	.insn	8, 0x3f3f3f3f3f3f3f3f
   1290a:	3f3f3f3f 3f3f3f3f 	.insn	8, 0x3f3f3f3f3f3f3f3f
   12912:	3f3f3f3f 3f3f3f3f 	.insn	8, 0x3f3f3f3f3f3f3f3f
   1291a:	3f3f3f3f 3f3f3f3f 	.insn	8, 0x3f3f3f3f3f3f3f3f
   12922:	3f3f3f3f 3f3f3f3f 	.insn	8, 0x3f3f3f3f3f3f3f3f
   1292a:	3f3f3f3f 3f3f3f3f 	.insn	8, 0x3f3f3f3f3f3f3f3f
   12932:	3f3f3f3f 3f3f3f3f 	.insn	8, 0x3f3f3f3f3f3f3f3f
   1293a:	3f3f3f3f 3f3f3f3f 	.insn	8, 0x3f3f3f3f3f3f3f3f
   12942:	3f3f3f3f 3f3f3f3f 	.insn	8, 0x3f3f3f3f3f3f3f3f
   1294a:	3f3f3f3f 3f3f3f3f 	.insn	8, 0x3f3f3f3f3f3f3f3f
   12952:	3f3f3f3f 3f3f3f3f 	.insn	8, 0x3f3f3f3f3f3f3f3f
   1295a:	3f3f3f3f 3f3f3f3f 	.insn	8, 0x3f3f3f3f3f3f3f3f
   12962:	3f3f3f3f 3f3f3f3f 	.insn	8, 0x3f3f3f3f3f3f3f3f
   1296a:	3f3f3f3f 3f3f3f3f 	.insn	8, 0x3f3f3f3f3f3f3f3f
   12972:	3f3f3f3f 3f3f3f3f 	.insn	8, 0x3f3f3f3f3f3f3f3f
   1297a:	3f3f3f3f 3f3f3f3f 	.insn	8, 0x3f3f3f3f3f3f3f3f
   12982:	3f3f3f3f 3f3f3f3f 	.insn	8, 0x3f3f3f3f3f3f3f3f
   1298a:	3f3f3f3f 3f3f3f3f 	.insn	8, 0x3f3f3f3f3f3f3f3f
   12992:	3f3f3f3f 3f3f3f3f 	.insn	8, 0x3f3f3f3f3f3f3f3f
   1299a:	3f3f3f3f 3f3f3f3f 	.insn	8, 0x3f3f3f3f3f3f3f3f
   129a2:	3f3f3f3f 3f3f3f3f 	.insn	8, 0x3f3f3f3f3f3f3f3f
   129aa:	3f3f3f3f 3f3f3f3f 	.insn	8, 0x3f3f3f3f3f3f3f3f
   129b2:	3f3f3f3f 3f3f3f3f 	.insn	8, 0x3f3f3f3f3f3f3f3f
   129ba:	3f3f3f3f 3f3f3f3f 	.insn	8, 0x3f3f3f3f3f3f3f3f
   129c2:	3f3f3f3f 3f3f3f3f 	.insn	8, 0x3f3f3f3f3f3f3f3f
   129ca:	3f3f3f3f 3f3f3f3f 	.insn	8, 0x3f3f3f3f3f3f3f3f
   129d2:	3f3f3f3f 3f3f3f3f 	.insn	8, 0x3f3f3f3f3f3f3f3f
   129da:	3f3f3f3f 3f3f3f3f 	.insn	8, 0x3f3f3f3f3f3f3f3f
   129e2:	3f3f3f3f 3f3f3f3f 	.insn	8, 0x3f3f3f3f3f3f3f3f
   129ea:	3f3f3f3f 3f3f3f3f 	.insn	8, 0x3f3f3f3f3f3f3f3f
   129f2:	3f3f3f3f 3f3f3f3f 	.insn	8, 0x3f3f3f3f3f3f3f3f
   129fa:	3f3f3f3f 3f3f3f3f 	.insn	8, 0x3f3f3f3f3f3f3f3f
   12a02:	3f3f3f3f 3f3f3f3f 	.insn	8, 0x3f3f3f3f3f3f3f3f
   12a0a:	3f3f3f3f 3f3f3f3f 	.insn	8, 0x3f3f3f3f3f3f3f3f
   12a12:	3f3f3f3f 3f3f3f3f 	.insn	8, 0x3f3f3f3f3f3f3f3f
   12a1a:	3f3f3f3f 3f3f3f3f 	.insn	8, 0x3f3f3f3f3f3f3f3f
   12a22:	3f3f3f3f 3f3f3f3f 	.insn	8, 0x3f3f3f3f3f3f3f3f
   12a2a:	3f3f3f3f 3f3f3f3f 	.insn	8, 0x3f3f3f3f3f3f3f3f
   12a32:	3f3f3f3f 3f3f3f3f 	.insn	8, 0x3f3f3f3f3f3f3f3f
   12a3a:	3f3f3f3f 3f3f3f3f 	.insn	8, 0x3f3f3f3f3f3f3f3f
   12a42:	3f3f3f3f 3f3f3f3f 	.insn	8, 0x3f3f3f3f3f3f3f3f
   12a4a:	3f3f3f3f 3f3f3f3f 	.insn	8, 0x3f3f3f3f3f3f3f3f
   12a52:	3f3f3f3f 3f3f3f3f 	.insn	8, 0x3f3f3f3f3f3f3f3f
   12a5a:	3f3f3f3f 3f3f3f3f 	.insn	8, 0x3f3f3f3f3f3f3f3f
   12a62:	3f3f3f3f 3f3f3f3f 	.insn	8, 0x3f3f3f3f3f3f3f3f
   12a6a:	3f3f3f3f 3f3f3f3f 	.insn	8, 0x3f3f3f3f3f3f3f3f
   12a72:	3f3f3f3f 3f3f3f3f 	.insn	8, 0x3f3f3f3f3f3f3f3f
   12a7a:	3f3f3f3f 3f3f3f3f 	.insn	8, 0x3f3f3f3f3f3f3f3f
   12a82:	3f3f3f3f 3f3f3f3f 	.insn	8, 0x3f3f3f3f3f3f3f3f
   12a8a:	3f3f3f3f 3f3f3f3f 	.insn	8, 0x3f3f3f3f3f3f3f3f
   12a92:	3f3f3f3f 3f3f3f3f 	.insn	8, 0x3f3f3f3f3f3f3f3f
   12a9a:	3f3f3f3f 3f3f3f3f 	.insn	8, 0x3f3f3f3f3f3f3f3f
   12aa2:	3f3f3f3f 3f3f3f3f 	.insn	8, 0x3f3f3f3f3f3f3f3f
   12aaa:	3f3f3f3f 3f3f3f3f 	.insn	8, 0x3f3f3f3f3f3f3f3f
   12ab2:	3f3f3f3f 3f3f3f3f 	.insn	8, 0x3f3f3f3f3f3f3f3f
   12aba:	3f3f3f3f 3f3f3f3f 	.insn	8, 0x3f3f3f3f3f3f3f3f
   12ac2:	3f3f3f3f 3f3f3f3f 	.insn	8, 0x3f3f3f3f3f3f3f3f
   12aca:	3f3f3f3f 3f3f3f3f 	.insn	8, 0x3f3f3f3f3f3f3f3f
   12ad2:	3f3f3f3f 3f3f3f3f 	.insn	8, 0x3f3f3f3f3f3f3f3f
   12ada:	3f3f3f3f 3f3f3f3f 	.insn	8, 0x3f3f3f3f3f3f3f3f
   12ae2:	3f3f3f3f 3f3f3f3f 	.insn	8, 0x3f3f3f3f3f3f3f3f
   12aea:	3f3f3f3f 3f3f3f3f 	.insn	8, 0x3f3f3f3f3f3f3f3f
   12af2:	3f3f3f3f 3f3f3f3f 	.insn	8, 0x3f3f3f3f3f3f3f3f
   12afa:	3f3f3f3f 3f3f3f3f 	.insn	8, 0x3f3f3f3f3f3f3f3f
   12b02:	3f3f3f3f 3f3f3f3f 	.insn	8, 0x3f3f3f3f3f3f3f3f
   12b0a:	3f3f3f3f 3f3f3f3f 	.insn	8, 0x3f3f3f3f3f3f3f3f
   12b12:	3f3f3f3f 3f3f3f3f 	.insn	8, 0x3f3f3f3f3f3f3f3f
   12b1a:	3f3f3f3f 3f3f3f3f 	.insn	8, 0x3f3f3f3f3f3f3f3f
   12b22:	3f3f3f3f 3f3f3f3f 	.insn	8, 0x3f3f3f3f3f3f3f3f
   12b2a:	3f3f3f3f 3f3f3f3f 	.insn	8, 0x3f3f3f3f3f3f3f3f
   12b32:	3f3f3f3f 3f3f3f3f 	.insn	8, 0x3f3f3f3f3f3f3f3f
   12b3a:	3f3f3f3f 3f3f3f3f 	.insn	8, 0x3f3f3f3f3f3f3f3f
   12b42:	3f3f3f3f 3f3f3f3f 	.insn	8, 0x3f3f3f3f3f3f3f3f
   12b4a:	3f3f3f3f 3f3f3f3f 	.insn	8, 0x3f3f3f3f3f3f3f3f
   12b52:	3f3f3f3f 3f3f3f3f 	.insn	8, 0x3f3f3f3f3f3f3f3f
   12b5a:	3f3f3f3f 3f3f3f3f 	.insn	8, 0x3f3f3f3f3f3f3f3f
   12b62:	3f3f3f3f 3f3f3f3f 	.insn	8, 0x3f3f3f3f3f3f3f3f
   12b6a:	3f3f3f3f 3f3f3f3f 	.insn	8, 0x3f3f3f3f3f3f3f3f
   12b72:	3f3f3f3f 3f3f3f3f 	.insn	8, 0x3f3f3f3f3f3f3f3f
   12b7a:	3f3f3f3f 3f3f3f3f 	.insn	8, 0x3f3f3f3f3f3f3f3f
   12b82:	3f3f3f3f 3f3f3f3f 	.insn	8, 0x3f3f3f3f3f3f3f3f
   12b8a:	3f3f3f3f 3f3f3f3f 	.insn	8, 0x3f3f3f3f3f3f3f3f
   12b92:	3f3f3f3f 3f3f3f3f 	.insn	8, 0x3f3f3f3f3f3f3f3f
   12b9a:	3f3f3f3f 3f3f3f3f 	.insn	8, 0x3f3f3f3f3f3f3f3f
   12ba2:	3f3f3f3f 3f3f3f3f 	.insn	8, 0x3f3f3f3f3f3f3f3f
   12baa:	3f3f3f3f 3f3f3f3f 	.insn	8, 0x3f3f3f3f3f3f3f3f
   12bb2:	3f3f3f3f 3f3f3f3f 	.insn	8, 0x3f3f3f3f3f3f3f3f
   12bba:	3f3f3f3f 3f3f3f3f 	.insn	8, 0x3f3f3f3f3f3f3f3f
   12bc2:	3f3f3f3f 3f3f3f3f 	.insn	8, 0x3f3f3f3f3f3f3f3f
   12bca:	3f3f3f3f 3f3f3f3f 	.insn	8, 0x3f3f3f3f3f3f3f3f
   12bd2:	3f3f3f3f 3f3f3f3f 	.insn	8, 0x3f3f3f3f3f3f3f3f
   12bda:	3f3f3f3f 3f3f3f3f 	.insn	8, 0x3f3f3f3f3f3f3f3f
   12be2:	3f3f3f3f 3f3f3f3f 	.insn	8, 0x3f3f3f3f3f3f3f3f
   12bea:	3f3f3f3f 3f3f3f3f 	.insn	8, 0x3f3f3f3f3f3f3f3f
   12bf2:	3f3f3f3f 3f3f3f3f 	.insn	8, 0x3f3f3f3f3f3f3f3f
   12bfa:	3f3f3f3f 3f3f3f3f 	.insn	8, 0x3f3f3f3f3f3f3f3f
   12c02:	3f3f3f3f 3f3f3f3f 	.insn	8, 0x3f3f3f3f3f3f3f3f
   12c0a:	3f3f3f3f 3f3f3f3f 	.insn	8, 0x3f3f3f3f3f3f3f3f
   12c12:	3f3f3f3f 3f3f3f3f 	.insn	8, 0x3f3f3f3f3f3f3f3f
   12c1a:	3f3f3f3f 3f3f3f3f 	.insn	8, 0x3f3f3f3f3f3f3f3f
   12c22:	3f3f3f3f 3f3f3f3f 	.insn	8, 0x3f3f3f3f3f3f3f3f
   12c2a:	3f3f3f3f 3f3f3f3f 	.insn	8, 0x3f3f3f3f3f3f3f3f
   12c32:	3f3f3f3f 3f3f3f3f 	.insn	8, 0x3f3f3f3f3f3f3f3f
   12c3a:	3f3f3f3f 3f3f3f3f 	.insn	8, 0x3f3f3f3f3f3f3f3f
   12c42:	3f3f3f3f 3f3f3f3f 	.insn	8, 0x3f3f3f3f3f3f3f3f
   12c4a:	3f3f3f3f 3f3f3f3f 	.insn	8, 0x3f3f3f3f3f3f3f3f
   12c52:	3f3f3f3f 3f3f3f3f 	.insn	8, 0x3f3f3f3f3f3f3f3f
   12c5a:	3f3f3f3f 3f3f3f3f 	.insn	8, 0x3f3f3f3f3f3f3f3f
   12c62:	3f3f3f3f 3f3f3f3f 	.insn	8, 0x3f3f3f3f3f3f3f3f
   12c6a:	3f3f3f3f 3f3f3f3f 	.insn	8, 0x3f3f3f3f3f3f3f3f
   12c72:	3f3f3f3f 3f3f3f3f 	.insn	8, 0x3f3f3f3f3f3f3f3f
   12c7a:	3f3f3f3f 3f3f3f3f 	.insn	8, 0x3f3f3f3f3f3f3f3f
   12c82:	3f3f3f3f 3f3f3f3f 	.insn	8, 0x3f3f3f3f3f3f3f3f
   12c8a:	3f3f3f3f 3f3f3f3f 	.insn	8, 0x3f3f3f3f3f3f3f3f
   12c92:	3f3f3f3f 3f3f3f3f 	.insn	8, 0x3f3f3f3f3f3f3f3f
   12c9a:	3f3f3f3f 3f3f3f3f 	.insn	8, 0x3f3f3f3f3f3f3f3f
   12ca2:	3f3f3f3f 3f3f3f3f 	.insn	8, 0x3f3f3f3f3f3f3f3f
   12caa:	3f3f3f3f 3f3f3f3f 	.insn	8, 0x3f3f3f3f3f3f3f3f
   12cb2:	3f3f3f3f 3f3f3f3f 	.insn	8, 0x3f3f3f3f3f3f3f3f
   12cba:	3f3f3f3f 3f3f3f3f 	.insn	8, 0x3f3f3f3f3f3f3f3f
   12cc2:	3f3f3f3f 3f3f3f3f 	.insn	8, 0x3f3f3f3f3f3f3f3f
   12cca:	3f3f3f3f 3f3f3f3f 	.insn	8, 0x3f3f3f3f3f3f3f3f
   12cd2:	3f3f3f3f 3f3f3f3f 	.insn	8, 0x3f3f3f3f3f3f3f3f
   12cda:	3f3f3f3f 3f3f3f3f 	.insn	8, 0x3f3f3f3f3f3f3f3f
   12ce2:	3f3f3f3f 3f3f3f3f 	.insn	8, 0x3f3f3f3f3f3f3f3f
   12cea:	3f3f3f3f 3f3f3f3f 	.insn	8, 0x3f3f3f3f3f3f3f3f
   12cf2:	3f3f3f3f 3f3f3f3f 	.insn	8, 0x3f3f3f3f3f3f3f3f
   12cfa:	3f3f3f3f 3f3f3f3f 	.insn	8, 0x3f3f3f3f3f3f3f3f
   12d02:	3f3f3f3f 3f3f3f3f 	.insn	8, 0x3f3f3f3f3f3f3f3f
   12d0a:	3f3f3f3f 3f3f3f3f 	.insn	8, 0x3f3f3f3f3f3f3f3f
   12d12:	3f3f3f3f 3f3f3f3f 	.insn	8, 0x3f3f3f3f3f3f3f3f
   12d1a:	3f3f3f3f 3f3f3f3f 	.insn	8, 0x3f3f3f3f3f3f3f3f
   12d22:	3f3f3f3f 3f3f3f3f 	.insn	8, 0x3f3f3f3f3f3f3f3f
   12d2a:	3f3f3f3f 3f3f3f3f 	.insn	8, 0x3f3f3f3f3f3f3f3f
   12d32:	3f3f3f3f 3f3f3f3f 	.insn	8, 0x3f3f3f3f3f3f3f3f
   12d3a:	3f3f3f3f 3f3f3f3f 	.insn	8, 0x3f3f3f3f3f3f3f3f
   12d42:	3f3f3f3f 3f3f3f3f 	.insn	8, 0x3f3f3f3f3f3f3f3f
   12d4a:	3f3f3f3f 3f3f3f3f 	.insn	8, 0x3f3f3f3f3f3f3f3f
   12d52:	3f3f3f3f 3f3f3f3f 	.insn	8, 0x3f3f3f3f3f3f3f3f
   12d5a:	3f3f3f3f 3f3f3f3f 	.insn	8, 0x3f3f3f3f3f3f3f3f
   12d62:	3f3f3f3f 3f3f3f3f 	.insn	8, 0x3f3f3f3f3f3f3f3f
   12d6a:	3f3f3f3f 3f3f3f3f 	.insn	8, 0x3f3f3f3f3f3f3f3f
   12d72:	3f3f3f3f 3f3f3f3f 	.insn	8, 0x3f3f3f3f3f3f3f3f
   12d7a:	3f3f3f3f 3f3f3f3f 	.insn	8, 0x3f3f3f3f3f3f3f3f
   12d82:	3f3f3f3f 3f3f3f3f 	.insn	8, 0x3f3f3f3f3f3f3f3f
   12d8a:	3f3f3f3f 3f3f3f3f 	.insn	8, 0x3f3f3f3f3f3f3f3f
   12d92:	3f3f3f3f 3f3f3f3f 	.insn	8, 0x3f3f3f3f3f3f3f3f
   12d9a:	3f3f3f3f 3f3f3f3f 	.insn	8, 0x3f3f3f3f3f3f3f3f
   12da2:	3f3f3f3f 3f3f3f3f 	.insn	8, 0x3f3f3f3f3f3f3f3f
   12daa:	3f3f3f3f 3f3f3f3f 	.insn	8, 0x3f3f3f3f3f3f3f3f
   12db2:	3f3f3f3f 3f3f3f3f 	.insn	8, 0x3f3f3f3f3f3f3f3f
   12dba:	3f3f3f3f 3f3f3f3f 	.insn	8, 0x3f3f3f3f3f3f3f3f
   12dc2:	3f3f3f3f 3f3f3f3f 	.insn	8, 0x3f3f3f3f3f3f3f3f
   12dca:	3f3f3f3f 3f3f3f3f 	.insn	8, 0x3f3f3f3f3f3f3f3f
   12dd2:	3f3f3f3f 3f3f3f3f 	.insn	8, 0x3f3f3f3f3f3f3f3f
   12dda:	3f3f3f3f 3f3f3f3f 	.insn	8, 0x3f3f3f3f3f3f3f3f
   12de2:	3f3f3f3f 3f3f3f3f 	.insn	8, 0x3f3f3f3f3f3f3f3f
   12dea:	3f3f3f3f 3f3f3f3f 	.insn	8, 0x3f3f3f3f3f3f3f3f
   12df2:	3f3f3f3f 3f3f3f3f 	.insn	8, 0x3f3f3f3f3f3f3f3f
   12dfa:	3f3f3f3f 3f3f3f3f 	.insn	8, 0x3f3f3f3f3f3f3f3f
   12e02:	3f3f3f3f 3f3f3f3f 	.insn	8, 0x3f3f3f3f3f3f3f3f
   12e0a:	3f3f3f3f 3f3f3f3f 	.insn	8, 0x3f3f3f3f3f3f3f3f
   12e12:	3f3f3f3f 3f3f3f3f 	.insn	8, 0x3f3f3f3f3f3f3f3f
   12e1a:	3f3f3f3f 3f3f3f3f 	.insn	8, 0x3f3f3f3f3f3f3f3f
   12e22:	3f3f3f3f 3f3f3f3f 	.insn	8, 0x3f3f3f3f3f3f3f3f
   12e2a:	3f3f3f3f 3f3f3f3f 	.insn	8, 0x3f3f3f3f3f3f3f3f
   12e32:	3f3f3f3f 3f3f3f3f 	.insn	8, 0x3f3f3f3f3f3f3f3f
   12e3a:	3f3f3f3f 3f3f3f3f 	.insn	8, 0x3f3f3f3f3f3f3f3f
   12e42:	3f3f3f3f 3f3f3f3f 	.insn	8, 0x3f3f3f3f3f3f3f3f
   12e4a:	3f3f3f3f 3f3f3f3f 	.insn	8, 0x3f3f3f3f3f3f3f3f
   12e52:	3f3f3f3f 3f3f3f3f 	.insn	8, 0x3f3f3f3f3f3f3f3f
   12e5a:	3f3f3f3f 3f3f3f3f 	.insn	8, 0x3f3f3f3f3f3f3f3f
   12e62:	3f3f3f3f 3f3f3f3f 	.insn	8, 0x3f3f3f3f3f3f3f3f
   12e6a:	3f3f3f3f 3f3f3f3f 	.insn	8, 0x3f3f3f3f3f3f3f3f
   12e72:	3f3f3f3f 3f3f3f3f 	.insn	8, 0x3f3f3f3f3f3f3f3f
   12e7a:	3f3f3f3f 3f3f3f3f 	.insn	8, 0x3f3f3f3f3f3f3f3f
   12e82:	3f3f3f3f 3f3f3f3f 	.insn	8, 0x3f3f3f3f3f3f3f3f
   12e8a:	3f3f3f3f 3f3f3f3f 	.insn	8, 0x3f3f3f3f3f3f3f3f
   12e92:	3f3f3f3f 3f3f3f3f 	.insn	8, 0x3f3f3f3f3f3f3f3f
   12e9a:	3f3f3f3f 3f3f3f3f 	.insn	8, 0x3f3f3f3f3f3f3f3f
   12ea2:	3f3f3f3f 3f3f3f3f 	.insn	8, 0x3f3f3f3f3f3f3f3f
   12eaa:	3f3f3f3f 3f3f3f3f 	.insn	8, 0x3f3f3f3f3f3f3f3f
   12eb2:	3f3f3f3f 3f3f3f3f 	.insn	8, 0x3f3f3f3f3f3f3f3f
   12eba:	3f3f3f3f 3f3f3f3f 	.insn	8, 0x3f3f3f3f3f3f3f3f
   12ec2:	3f3f3f3f 3f3f3f3f 	.insn	8, 0x3f3f3f3f3f3f3f3f
   12eca:	3f3f3f3f 3f3f3f3f 	.insn	8, 0x3f3f3f3f3f3f3f3f
   12ed2:	3f3f3f3f 3f3f3f3f 	.insn	8, 0x3f3f3f3f3f3f3f3f
   12eda:	3f3f3f3f 3f3f3f3f 	.insn	8, 0x3f3f3f3f3f3f3f3f
   12ee2:	3f3f3f3f 3f3f3f3f 	.insn	8, 0x3f3f3f3f3f3f3f3f
   12eea:	3f3f3f3f 3f3f3f3f 	.insn	8, 0x3f3f3f3f3f3f3f3f
   12ef2:	3f3f3f3f 3f3f3f3f 	.insn	8, 0x3f3f3f3f3f3f3f3f
   12efa:	3f3f3f3f 3f3f3f3f 	.insn	8, 0x3f3f3f3f3f3f3f3f
   12f02:	3f3f3f3f 3f3f3f3f 	.insn	8, 0x3f3f3f3f3f3f3f3f
   12f0a:	3f3f3f3f 3f3f3f3f 	.insn	8, 0x3f3f3f3f3f3f3f3f
   12f12:	3f3f3f3f 3f3f3f3f 	.insn	8, 0x3f3f3f3f3f3f3f3f
   12f1a:	3f3f3f3f 3f3f3f3f 	.insn	8, 0x3f3f3f3f3f3f3f3f
   12f22:	3f3f3f3f 3f3f3f3f 	.insn	8, 0x3f3f3f3f3f3f3f3f
   12f2a:	3f3f3f3f 3f3f3f3f 	.insn	8, 0x3f3f3f3f3f3f3f3f
   12f32:	3f3f3f3f 3f3f3f3f 	.insn	8, 0x3f3f3f3f3f3f3f3f
   12f3a:	3f3f3f3f 3f3f3f3f 	.insn	8, 0x3f3f3f3f3f3f3f3f
   12f42:	3f3f3f3f 3f3f3f3f 	.insn	8, 0x3f3f3f3f3f3f3f3f
   12f4a:	3f3f3f3f 3f3f3f3f 	.insn	8, 0x3f3f3f3f3f3f3f3f
   12f52:	3f3f3f3f 3f3f3f3f 	.insn	8, 0x3f3f3f3f3f3f3f3f
   12f5a:	3f3f3f3f 3f3f3f3f 	.insn	8, 0x3f3f3f3f3f3f3f3f
   12f62:	3f3f3f3f 3f3f3f3f 	.insn	8, 0x3f3f3f3f3f3f3f3f
   12f6a:	3f3f3f3f 3f3f3f3f 	.insn	8, 0x3f3f3f3f3f3f3f3f
   12f72:	3f3f3f3f 3f3f3f3f 	.insn	8, 0x3f3f3f3f3f3f3f3f
   12f7a:	3f3f3f3f 3f3f3f3f 	.insn	8, 0x3f3f3f3f3f3f3f3f
   12f82:	3f3f3f3f 3f3f3f3f 	.insn	8, 0x3f3f3f3f3f3f3f3f
   12f8a:	3f3f3f3f 3f3f3f3f 	.insn	8, 0x3f3f3f3f3f3f3f3f
   12f92:	3f3f3f3f 3f3f3f3f 	.insn	8, 0x3f3f3f3f3f3f3f3f
   12f9a:	3f3f3f3f 3f3f3f3f 	.insn	8, 0x3f3f3f3f3f3f3f3f
   12fa2:	3f3f3f3f 3f3f3f3f 	.insn	8, 0x3f3f3f3f3f3f3f3f
   12faa:	3f3f3f3f 3f3f3f3f 	.insn	8, 0x3f3f3f3f3f3f3f3f
   12fb2:	3f3f3f3f 3f3f3f3f 	.insn	8, 0x3f3f3f3f3f3f3f3f
   12fba:	3f3f3f3f 3f3f3f3f 	.insn	8, 0x3f3f3f3f3f3f3f3f
   12fc2:	3f3f3f3f 3f3f3f3f 	.insn	8, 0x3f3f3f3f3f3f3f3f
   12fca:	3f3f3f3f 3f3f3f3f 	.insn	8, 0x3f3f3f3f3f3f3f3f
   12fd2:	3f3f3f3f 3f3f3f3f 	.insn	8, 0x3f3f3f3f3f3f3f3f
   12fda:	3f3f3f3f 3f3f3f3f 	.insn	8, 0x3f3f3f3f3f3f3f3f
   12fe2:	3f3f3f3f 3f3f3f3f 	.insn	8, 0x3f3f3f3f3f3f3f3f
   12fea:	3f3f3f3f 3f3f3f3f 	.insn	8, 0x3f3f3f3f3f3f3f3f
   12ff2:	3f3f3f3f 3f3f3f3f 	.insn	8, 0x3f3f3f3f3f3f3f3f
   12ffa:	3f3f3f3f 3f3f3f3f 	.insn	8, 0x3f3f3f3f3f3f3f3f
   13002:	3f3f3f3f 3f3f3f3f 	.insn	8, 0x3f3f3f3f3f3f3f3f
   1300a:	3f3f3f3f 3f3f3f3f 	.insn	8, 0x3f3f3f3f3f3f3f3f
   13012:	3f3f3f3f 3f3f3f3f 	.insn	8, 0x3f3f3f3f3f3f3f3f
   1301a:	3f3f3f3f 3f3f3f3f 	.insn	8, 0x3f3f3f3f3f3f3f3f
   13022:	3f3f3f3f 3f3f3f3f 	.insn	8, 0x3f3f3f3f3f3f3f3f
   1302a:	3f3f3f3f 3f3f3f3f 	.insn	8, 0x3f3f3f3f3f3f3f3f
   13032:	3f3f3f3f 3f3f3f3f 	.insn	8, 0x3f3f3f3f3f3f3f3f
   1303a:	3f3f3f3f 3f3f3f3f 	.insn	8, 0x3f3f3f3f3f3f3f3f
   13042:	3f3f3f3f 3f3f3f3f 	.insn	8, 0x3f3f3f3f3f3f3f3f
   1304a:	3f3f3f3f 3f3f3f3f 	.insn	8, 0x3f3f3f3f3f3f3f3f
   13052:	3f3f3f3f 3f3f3f3f 	.insn	8, 0x3f3f3f3f3f3f3f3f
   1305a:	3f3f3f3f 3f3f3f3f 	.insn	8, 0x3f3f3f3f3f3f3f3f
   13062:	3f3f3f3f 3f3f3f3f 	.insn	8, 0x3f3f3f3f3f3f3f3f
   1306a:	3f3f3f3f 3f3f3f3f 	.insn	8, 0x3f3f3f3f3f3f3f3f
   13072:	3f3f3f3f 3f3f3f3f 	.insn	8, 0x3f3f3f3f3f3f3f3f
   1307a:	3f3f3f3f 3f3f3f3f 	.insn	8, 0x3f3f3f3f3f3f3f3f
   13082:	3f3f3f3f 3f3f3f3f 	.insn	8, 0x3f3f3f3f3f3f3f3f
   1308a:	3f3f3f3f 3f3f3f3f 	.insn	8, 0x3f3f3f3f3f3f3f3f
   13092:	3f3f3f3f 3f3f3f3f 	.insn	8, 0x3f3f3f3f3f3f3f3f
   1309a:	3f3f3f3f 3f3f3f3f 	.insn	8, 0x3f3f3f3f3f3f3f3f
   130a2:	3f3f3f3f 3f3f3f3f 	.insn	8, 0x3f3f3f3f3f3f3f3f
   130aa:	3f3f3f3f 3f3f3f3f 	.insn	8, 0x3f3f3f3f3f3f3f3f
   130b2:	3f3f3f3f 3f3f3f3f 	.insn	8, 0x3f3f3f3f3f3f3f3f
   130ba:	3f3f3f3f 3f3f3f3f 	.insn	8, 0x3f3f3f3f3f3f3f3f
   130c2:	3f3f3f3f 3f3f3f3f 	.insn	8, 0x3f3f3f3f3f3f3f3f
   130ca:	3f3f3f3f 3f3f3f3f 	.insn	8, 0x3f3f3f3f3f3f3f3f
   130d2:	3f3f3f3f 3f3f3f3f 	.insn	8, 0x3f3f3f3f3f3f3f3f
   130da:	3f3f3f3f 3f3f3f3f 	.insn	8, 0x3f3f3f3f3f3f3f3f
   130e2:	3f3f3f3f 3f3f3f3f 	.insn	8, 0x3f3f3f3f3f3f3f3f
   130ea:	3f3f3f3f 3f3f3f3f 	.insn	8, 0x3f3f3f3f3f3f3f3f
   130f2:	3f3f3f3f 3f3f3f3f 	.insn	8, 0x3f3f3f3f3f3f3f3f
   130fa:	3f3f3f3f 3f3f3f3f 	.insn	8, 0x3f3f3f3f3f3f3f3f
   13102:	3f3f3f3f 3f3f3f3f 	.insn	8, 0x3f3f3f3f3f3f3f3f
   1310a:	3f3f3f3f 3f3f3f3f 	.insn	8, 0x3f3f3f3f3f3f3f3f
   13112:	3f3f3f3f 3f3f3f3f 	.insn	8, 0x3f3f3f3f3f3f3f3f
   1311a:	3f3f3f3f 3f3f3f3f 	.insn	8, 0x3f3f3f3f3f3f3f3f
   13122:	3f3f3f3f 3f3f3f3f 	.insn	8, 0x3f3f3f3f3f3f3f3f
   1312a:	3f3f3f3f 3f3f3f3f 	.insn	8, 0x3f3f3f3f3f3f3f3f
   13132:	3f3f3f3f 3f3f3f3f 	.insn	8, 0x3f3f3f3f3f3f3f3f
   1313a:	3f3f3f3f 3f3f3f3f 	.insn	8, 0x3f3f3f3f3f3f3f3f
   13142:	3f3f3f3f 3f3f3f3f 	.insn	8, 0x3f3f3f3f3f3f3f3f
   1314a:	3f3f3f3f 3f3f3f3f 	.insn	8, 0x3f3f3f3f3f3f3f3f
   13152:	3f3f3f3f 3f3f3f3f 	.insn	8, 0x3f3f3f3f3f3f3f3f
   1315a:	3f3f3f3f 3f3f3f3f 	.insn	8, 0x3f3f3f3f3f3f3f3f
   13162:	3f3f3f3f 3f3f3f3f 	.insn	8, 0x3f3f3f3f3f3f3f3f
   1316a:	3f3f3f3f 3f3f3f3f 	.insn	8, 0x3f3f3f3f3f3f3f3f
   13172:	3f3f3f3f 3f3f3f3f 	.insn	8, 0x3f3f3f3f3f3f3f3f
   1317a:	3f3f3f3f 3f3f3f3f 	.insn	8, 0x3f3f3f3f3f3f3f3f
   13182:	3f3f3f3f 3f3f3f3f 	.insn	8, 0x3f3f3f3f3f3f3f3f
   1318a:	3f3f3f3f 3f3f3f3f 	.insn	8, 0x3f3f3f3f3f3f3f3f
   13192:	3f3f3f3f 3f3f3f3f 	.insn	8, 0x3f3f3f3f3f3f3f3f
   1319a:	3f3f3f3f 3f3f3f3f 	.insn	8, 0x3f3f3f3f3f3f3f3f
   131a2:	3f3f3f3f 3f3f3f3f 	.insn	8, 0x3f3f3f3f3f3f3f3f
   131aa:	3f3f3f3f 3f3f3f3f 	.insn	8, 0x3f3f3f3f3f3f3f3f
   131b2:	3f3f3f3f 3f3f3f3f 	.insn	8, 0x3f3f3f3f3f3f3f3f
   131ba:	3f3f3f3f 3f3f3f3f 	.insn	8, 0x3f3f3f3f3f3f3f3f
   131c2:	3f3f3f3f 3f3f3f3f 	.insn	8, 0x3f3f3f3f3f3f3f3f
   131ca:	3f3f3f3f 3f3f3f3f 	.insn	8, 0x3f3f3f3f3f3f3f3f
   131d2:	3f3f3f3f 3f3f3f3f 	.insn	8, 0x3f3f3f3f3f3f3f3f
   131da:	3f3f3f3f 3f3f3f3f 	.insn	8, 0x3f3f3f3f3f3f3f3f
   131e2:	3f3f3f3f 3f3f3f3f 	.insn	8, 0x3f3f3f3f3f3f3f3f
   131ea:	3f3f3f3f 3f3f3f3f 	.insn	8, 0x3f3f3f3f3f3f3f3f
   131f2:	3f3f3f3f 3f3f3f3f 	.insn	8, 0x3f3f3f3f3f3f3f3f
   131fa:	3f3f3f3f 3f3f3f3f 	.insn	8, 0x3f3f3f3f3f3f3f3f
   13202:	3f3f3f3f 3f3f3f3f 	.insn	8, 0x3f3f3f3f3f3f3f3f
   1320a:	3f3f3f3f 3f3f3f3f 	.insn	8, 0x3f3f3f3f3f3f3f3f
   13212:	3f3f3f3f 3f3f3f3f 	.insn	8, 0x3f3f3f3f3f3f3f3f
   1321a:	3f3f3f3f 3f3f3f3f 	.insn	8, 0x3f3f3f3f3f3f3f3f
   13222:	3f3f3f3f 3f3f3f3f 	.insn	8, 0x3f3f3f3f3f3f3f3f
   1322a:	3f3f3f3f 3f3f3f3f 	.insn	8, 0x3f3f3f3f3f3f3f3f
   13232:	3f3f3f3f 3f3f3f3f 	.insn	8, 0x3f3f3f3f3f3f3f3f
   1323a:	3f3f3f3f 3f3f3f3f 	.insn	8, 0x3f3f3f3f3f3f3f3f
   13242:	3f3f3f3f 3f3f3f3f 	.insn	8, 0x3f3f3f3f3f3f3f3f
   1324a:	3f3f3f3f 3f3f3f3f 	.insn	8, 0x3f3f3f3f3f3f3f3f
   13252:	3f3f3f3f 3f3f3f3f 	.insn	8, 0x3f3f3f3f3f3f3f3f
   1325a:	3f3f3f3f 3f3f3f3f 	.insn	8, 0x3f3f3f3f3f3f3f3f
   13262:	3f3f3f3f 3f3f3f3f 	.insn	8, 0x3f3f3f3f3f3f3f3f
   1326a:	3f3f3f3f 3f3f3f3f 	.insn	8, 0x3f3f3f3f3f3f3f3f
   13272:	3f3f3f3f 3f3f3f3f 	.insn	8, 0x3f3f3f3f3f3f3f3f
   1327a:	3f3f3f3f 3f3f3f3f 	.insn	8, 0x3f3f3f3f3f3f3f3f
   13282:	3f3f3f3f 3f3f3f3f 	.insn	8, 0x3f3f3f3f3f3f3f3f
   1328a:	3f3f3f3f 3f3f3f3f 	.insn	8, 0x3f3f3f3f3f3f3f3f
   13292:	3f3f3f3f 3f3f3f3f 	.insn	8, 0x3f3f3f3f3f3f3f3f
   1329a:	3f3f3f3f 3f3f3f3f 	.insn	8, 0x3f3f3f3f3f3f3f3f
   132a2:	3f3f3f3f 3f3f3f3f 	.insn	8, 0x3f3f3f3f3f3f3f3f
   132aa:	3f3f3f3f 3f3f3f3f 	.insn	8, 0x3f3f3f3f3f3f3f3f
   132b2:	3f3f3f3f 3f3f3f3f 	.insn	8, 0x3f3f3f3f3f3f3f3f
   132ba:	3f3f3f3f 3f3f3f3f 	.insn	8, 0x3f3f3f3f3f3f3f3f
   132c2:	3f3f3f3f 3f3f3f3f 	.insn	8, 0x3f3f3f3f3f3f3f3f
   132ca:	3f3f3f3f 3f3f3f3f 	.insn	8, 0x3f3f3f3f3f3f3f3f
   132d2:	3f3f3f3f 3f3f3f3f 	.insn	8, 0x3f3f3f3f3f3f3f3f
   132da:	3f3f3f3f 3f3f3f3f 	.insn	8, 0x3f3f3f3f3f3f3f3f
   132e2:	3f3f3f3f 3f3f3f3f 	.insn	8, 0x3f3f3f3f3f3f3f3f
   132ea:	3f3f3f3f 3f3f3f3f 	.insn	8, 0x3f3f3f3f3f3f3f3f
   132f2:	3f3f3f3f 3f3f3f3f 	.insn	8, 0x3f3f3f3f3f3f3f3f
   132fa:	3f3f3f3f 3f3f3f3f 	.insn	8, 0x3f3f3f3f3f3f3f3f
   13302:	3f3f3f3f 3f3f3f3f 	.insn	8, 0x3f3f3f3f3f3f3f3f
   1330a:	3f3f3f3f 3f3f3f3f 	.insn	8, 0x3f3f3f3f3f3f3f3f
   13312:	3f3f3f3f 3f3f3f3f 	.insn	8, 0x3f3f3f3f3f3f3f3f
   1331a:	3f3f3f3f 3f3f3f3f 	.insn	8, 0x3f3f3f3f3f3f3f3f
   13322:	3f3f3f3f 3f3f3f3f 	.insn	8, 0x3f3f3f3f3f3f3f3f
   1332a:	3f3f3f3f 3f3f3f3f 	.insn	8, 0x3f3f3f3f3f3f3f3f
   13332:	3f3f3f3f 3f3f3f3f 	.insn	8, 0x3f3f3f3f3f3f3f3f
   1333a:	3f3f3f3f 3f3f3f3f 	.insn	8, 0x3f3f3f3f3f3f3f3f
   13342:	3f3f3f3f 3f3f3f3f 	.insn	8, 0x3f3f3f3f3f3f3f3f
   1334a:	3f3f3f3f 3f3f3f3f 	.insn	8, 0x3f3f3f3f3f3f3f3f
   13352:	3f3f3f3f 3f3f3f3f 	.insn	8, 0x3f3f3f3f3f3f3f3f
   1335a:	3f3f3f3f 3f3f3f3f 	.insn	8, 0x3f3f3f3f3f3f3f3f
   13362:	3f3f3f3f 3f3f3f3f 	.insn	8, 0x3f3f3f3f3f3f3f3f
   1336a:	3f3f3f3f 3f3f3f3f 	.insn	8, 0x3f3f3f3f3f3f3f3f
   13372:	3f3f3f3f 3f3f3f3f 	.insn	8, 0x3f3f3f3f3f3f3f3f
   1337a:	3f3f3f3f 3f3f3f3f 	.insn	8, 0x3f3f3f3f3f3f3f3f
   13382:	3f3f3f3f 3f3f3f3f 	.insn	8, 0x3f3f3f3f3f3f3f3f
   1338a:	3f3f3f3f 3f3f3f3f 	.insn	8, 0x3f3f3f3f3f3f3f3f
   13392:	3f3f3f3f 3f3f3f3f 	.insn	8, 0x3f3f3f3f3f3f3f3f
   1339a:	3f3f3f3f 3f3f3f3f 	.insn	8, 0x3f3f3f3f3f3f3f3f
   133a2:	3f3f3f3f 3f3f3f3f 	.insn	8, 0x3f3f3f3f3f3f3f3f
   133aa:	3f3f3f3f 3f3f3f3f 	.insn	8, 0x3f3f3f3f3f3f3f3f
   133b2:	3f3f3f3f 3f3f3f3f 	.insn	8, 0x3f3f3f3f3f3f3f3f
   133ba:	3f3f3f3f 3f3f3f3f 	.insn	8, 0x3f3f3f3f3f3f3f3f
   133c2:	3f3f3f3f 3f3f3f3f 	.insn	8, 0x3f3f3f3f3f3f3f3f
   133ca:	3f3f3f3f 3f3f3f3f 	.insn	8, 0x3f3f3f3f3f3f3f3f
   133d2:	3f3f3f3f 3f3f3f3f 	.insn	8, 0x3f3f3f3f3f3f3f3f
   133da:	3f3f3f3f 3f3f3f3f 	.insn	8, 0x3f3f3f3f3f3f3f3f
   133e2:	3f3f3f3f 3f3f3f3f 	.insn	8, 0x3f3f3f3f3f3f3f3f
   133ea:	3f3f3f3f 3f3f3f3f 	.insn	8, 0x3f3f3f3f3f3f3f3f
   133f2:	3f3f3f3f 3f3f3f3f 	.insn	8, 0x3f3f3f3f3f3f3f3f
   133fa:	3f3f3f3f 3f3f3f3f 	.insn	8, 0x3f3f3f3f3f3f3f3f
   13402:	3f3f3f3f 3f3f3f3f 	.insn	8, 0x3f3f3f3f3f3f3f3f
   1340a:	3f3f3f3f 3f3f3f3f 	.insn	8, 0x3f3f3f3f3f3f3f3f
   13412:	3f3f3f3f 3f3f3f3f 	.insn	8, 0x3f3f3f3f3f3f3f3f
   1341a:	3f3f3f3f 3f3f3f3f 	.insn	8, 0x3f3f3f3f3f3f3f3f
   13422:	3f3f3f3f 3f3f3f3f 	.insn	8, 0x3f3f3f3f3f3f3f3f
   1342a:	3f3f3f3f 3f3f3f3f 	.insn	8, 0x3f3f3f3f3f3f3f3f
   13432:	3f3f3f3f 3f3f3f3f 	.insn	8, 0x3f3f3f3f3f3f3f3f
   1343a:	3f3f3f3f 3f3f3f3f 	.insn	8, 0x3f3f3f3f3f3f3f3f
   13442:	3f3f3f3f 3f3f3f3f 	.insn	8, 0x3f3f3f3f3f3f3f3f
   1344a:	3f3f3f3f 3f3f3f3f 	.insn	8, 0x3f3f3f3f3f3f3f3f
   13452:	3f3f3f3f 3f3f3f3f 	.insn	8, 0x3f3f3f3f3f3f3f3f
   1345a:	3f3f3f3f 3f3f3f3f 	.insn	8, 0x3f3f3f3f3f3f3f3f
   13462:	3f3f3f3f 3f3f3f3f 	.insn	8, 0x3f3f3f3f3f3f3f3f
   1346a:	3f3f3f3f 3f3f3f3f 	.insn	8, 0x3f3f3f3f3f3f3f3f
   13472:	3f3f3f3f 3f3f3f3f 	.insn	8, 0x3f3f3f3f3f3f3f3f
   1347a:	3f3f3f3f 3f3f3f3f 	.insn	8, 0x3f3f3f3f3f3f3f3f
   13482:	3f3f3f3f 3f3f3f3f 	.insn	8, 0x3f3f3f3f3f3f3f3f
   1348a:	3f3f3f3f 3f3f3f3f 	.insn	8, 0x3f3f3f3f3f3f3f3f
   13492:	3f3f3f3f 3f3f3f3f 	.insn	8, 0x3f3f3f3f3f3f3f3f
   1349a:	3f3f3f3f 3f3f3f3f 	.insn	8, 0x3f3f3f3f3f3f3f3f
   134a2:	3f3f3f3f 3f3f3f3f 	.insn	8, 0x3f3f3f3f3f3f3f3f
   134aa:	3f3f3f3f 3f3f3f3f 	.insn	8, 0x3f3f3f3f3f3f3f3f
   134b2:	3f3f3f3f 3f3f3f3f 	.insn	8, 0x3f3f3f3f3f3f3f3f
   134ba:	3f3f3f3f 3f3f3f3f 	.insn	8, 0x3f3f3f3f3f3f3f3f
   134c2:	3f3f3f3f 3f3f3f3f 	.insn	8, 0x3f3f3f3f3f3f3f3f
   134ca:	3f3f3f3f 3f3f3f3f 	.insn	8, 0x3f3f3f3f3f3f3f3f
   134d2:	3f3f3f3f 3f3f3f3f 	.insn	8, 0x3f3f3f3f3f3f3f3f
   134da:	3f3f3f3f 3f3f3f3f 	.insn	8, 0x3f3f3f3f3f3f3f3f
   134e2:	3f3f3f3f 3f3f3f3f 	.insn	8, 0x3f3f3f3f3f3f3f3f
   134ea:	3f3f3f3f 3f3f3f3f 	.insn	8, 0x3f3f3f3f3f3f3f3f
   134f2:	3f3f3f3f 3f3f3f3f 	.insn	8, 0x3f3f3f3f3f3f3f3f
   134fa:	3f3f3f3f 3f3f3f3f 	.insn	8, 0x3f3f3f3f3f3f3f3f
   13502:	3f3f3f3f 3f3f3f3f 	.insn	8, 0x3f3f3f3f3f3f3f3f
   1350a:	3f3f3f3f 3f3f3f3f 	.insn	8, 0x3f3f3f3f3f3f3f3f
   13512:	3f3f3f3f 3f3f3f3f 	.insn	8, 0x3f3f3f3f3f3f3f3f
   1351a:	3f3f3f3f 3f3f3f3f 	.insn	8, 0x3f3f3f3f3f3f3f3f
   13522:	3f3f3f3f 3f3f3f3f 	.insn	8, 0x3f3f3f3f3f3f3f3f
   1352a:	3f3f3f3f 3f3f3f3f 	.insn	8, 0x3f3f3f3f3f3f3f3f
   13532:	3f3f3f3f 3f3f3f3f 	.insn	8, 0x3f3f3f3f3f3f3f3f
   1353a:	3f3f3f3f 3f3f3f3f 	.insn	8, 0x3f3f3f3f3f3f3f3f
   13542:	3f3f3f3f 3f3f3f3f 	.insn	8, 0x3f3f3f3f3f3f3f3f
   1354a:	3f3f3f3f 3f3f3f3f 	.insn	8, 0x3f3f3f3f3f3f3f3f
   13552:	3f3f3f3f 3f3f3f3f 	.insn	8, 0x3f3f3f3f3f3f3f3f
   1355a:	3f3f3f3f 3f3f3f3f 	.insn	8, 0x3f3f3f3f3f3f3f3f
   13562:	3f3f3f3f 3f3f3f3f 	.insn	8, 0x3f3f3f3f3f3f3f3f
   1356a:	3f3f3f3f 3f3f3f3f 	.insn	8, 0x3f3f3f3f3f3f3f3f
   13572:	3f3f3f3f 3f3f3f3f 	.insn	8, 0x3f3f3f3f3f3f3f3f
   1357a:	3f3f3f3f 3f3f3f3f 	.insn	8, 0x3f3f3f3f3f3f3f3f
   13582:	3f3f3f3f 3f3f3f3f 	.insn	8, 0x3f3f3f3f3f3f3f3f
   1358a:	3f3f3f3f 3f3f3f3f 	.insn	8, 0x3f3f3f3f3f3f3f3f
   13592:	3f3f3f3f 3f3f3f3f 	.insn	8, 0x3f3f3f3f3f3f3f3f
   1359a:	3f3f3f3f 3f3f3f3f 	.insn	8, 0x3f3f3f3f3f3f3f3f
   135a2:	3f3f3f3f 3f3f3f3f 	.insn	8, 0x3f3f3f3f3f3f3f3f
   135aa:	3f3f3f3f 3f3f3f3f 	.insn	8, 0x3f3f3f3f3f3f3f3f
   135b2:	3f3f3f3f 3f3f3f3f 	.insn	8, 0x3f3f3f3f3f3f3f3f
   135ba:	3f3f3f3f 3f3f3f3f 	.insn	8, 0x3f3f3f3f3f3f3f3f
   135c2:	3f3f3f3f 3f3f3f3f 	.insn	8, 0x3f3f3f3f3f3f3f3f
   135ca:	3f3f3f3f 3f3f3f3f 	.insn	8, 0x3f3f3f3f3f3f3f3f
   135d2:	3f3f3f3f 3f3f3f3f 	.insn	8, 0x3f3f3f3f3f3f3f3f
   135da:	3f3f3f3f 3f3f3f3f 	.insn	8, 0x3f3f3f3f3f3f3f3f
   135e2:	3f3f3f3f 3f3f3f3f 	.insn	8, 0x3f3f3f3f3f3f3f3f
   135ea:	3f3f3f3f 3f3f3f3f 	.insn	8, 0x3f3f3f3f3f3f3f3f
   135f2:	3f3f3f3f 3f3f3f3f 	.insn	8, 0x3f3f3f3f3f3f3f3f
   135fa:	3f3f3f3f 3f3f3f3f 	.insn	8, 0x3f3f3f3f3f3f3f3f
   13602:	3f3f3f3f 3f3f3f3f 	.insn	8, 0x3f3f3f3f3f3f3f3f
   1360a:	3f3f3f3f 3f3f3f3f 	.insn	8, 0x3f3f3f3f3f3f3f3f
   13612:	3f3f3f3f 3f3f3f3f 	.insn	8, 0x3f3f3f3f3f3f3f3f
   1361a:	3f3f3f3f 3f3f3f3f 	.insn	8, 0x3f3f3f3f3f3f3f3f
   13622:	3f3f3f3f 3f3f3f3f 	.insn	8, 0x3f3f3f3f3f3f3f3f
   1362a:	3f3f3f3f 3f3f3f3f 	.insn	8, 0x3f3f3f3f3f3f3f3f
   13632:	3f3f3f3f 3f3f3f3f 	.insn	8, 0x3f3f3f3f3f3f3f3f
   1363a:	3f3f3f3f 3f3f3f3f 	.insn	8, 0x3f3f3f3f3f3f3f3f
   13642:	3f3f3f3f 3f3f3f3f 	.insn	8, 0x3f3f3f3f3f3f3f3f
   1364a:	3f3f3f3f 3f3f3f3f 	.insn	8, 0x3f3f3f3f3f3f3f3f
   13652:	3f3f3f3f 3f3f3f3f 	.insn	8, 0x3f3f3f3f3f3f3f3f
   1365a:	3f3f3f3f 3f3f3f3f 	.insn	8, 0x3f3f3f3f3f3f3f3f
   13662:	3f3f3f3f 3f3f3f3f 	.insn	8, 0x3f3f3f3f3f3f3f3f
   1366a:	3f3f3f3f 3f3f3f3f 	.insn	8, 0x3f3f3f3f3f3f3f3f
   13672:	3f3f3f3f 3f3f3f3f 	.insn	8, 0x3f3f3f3f3f3f3f3f
   1367a:	3f3f3f3f 3f3f3f3f 	.insn	8, 0x3f3f3f3f3f3f3f3f
   13682:	3f3f3f3f 3f3f3f3f 	.insn	8, 0x3f3f3f3f3f3f3f3f
   1368a:	3f3f3f3f 3f3f3f3f 	.insn	8, 0x3f3f3f3f3f3f3f3f
   13692:	3f3f3f3f 3f3f3f3f 	.insn	8, 0x3f3f3f3f3f3f3f3f
   1369a:	3f3f3f3f 3f3f3f3f 	.insn	8, 0x3f3f3f3f3f3f3f3f
   136a2:	3f3f3f3f 3f3f3f3f 	.insn	8, 0x3f3f3f3f3f3f3f3f
   136aa:	3f3f3f3f 3f3f3f3f 	.insn	8, 0x3f3f3f3f3f3f3f3f
   136b2:	3f3f3f3f 3f3f3f3f 	.insn	8, 0x3f3f3f3f3f3f3f3f
   136ba:	3f3f3f3f 3f3f3f3f 	.insn	8, 0x3f3f3f3f3f3f3f3f
   136c2:	3f3f3f3f 3f3f3f3f 	.insn	8, 0x3f3f3f3f3f3f3f3f
   136ca:	3f3f3f3f 3f3f3f3f 	.insn	8, 0x3f3f3f3f3f3f3f3f
   136d2:	3f3f3f3f 3f3f3f3f 	.insn	8, 0x3f3f3f3f3f3f3f3f
   136da:	3f3f3f3f 3f3f3f3f 	.insn	8, 0x3f3f3f3f3f3f3f3f
   136e2:	3f3f3f3f 3f3f3f3f 	.insn	8, 0x3f3f3f3f3f3f3f3f
   136ea:	3f3f3f3f 3f3f3f3f 	.insn	8, 0x3f3f3f3f3f3f3f3f
   136f2:	3f3f3f3f 3f3f3f3f 	.insn	8, 0x3f3f3f3f3f3f3f3f
   136fa:	3f3f3f3f 3f3f3f3f 	.insn	8, 0x3f3f3f3f3f3f3f3f
   13702:	3f3f3f3f 3f3f3f3f 	.insn	8, 0x3f3f3f3f3f3f3f3f
   1370a:	3f3f3f3f 3f3f3f3f 	.insn	8, 0x3f3f3f3f3f3f3f3f
   13712:	3f3f3f3f 3f3f3f3f 	.insn	8, 0x3f3f3f3f3f3f3f3f
   1371a:	3f3f3f3f 3f3f3f3f 	.insn	8, 0x3f3f3f3f3f3f3f3f
   13722:	3f3f3f3f 3f3f3f3f 	.insn	8, 0x3f3f3f3f3f3f3f3f
   1372a:	3f3f3f3f 3f3f3f3f 	.insn	8, 0x3f3f3f3f3f3f3f3f
   13732:	3f3f3f3f 3f3f3f3f 	.insn	8, 0x3f3f3f3f3f3f3f3f
   1373a:	3f3f3f3f 3f3f3f3f 	.insn	8, 0x3f3f3f3f3f3f3f3f
   13742:	3f3f3f3f 3f3f3f3f 	.insn	8, 0x3f3f3f3f3f3f3f3f
   1374a:	3f3f3f3f 3f3f3f3f 	.insn	8, 0x3f3f3f3f3f3f3f3f
   13752:	3f3f3f3f 3f3f3f3f 	.insn	8, 0x3f3f3f3f3f3f3f3f
   1375a:	3f3f3f3f 3f3f3f3f 	.insn	8, 0x3f3f3f3f3f3f3f3f
   13762:	3f3f3f3f 3f3f3f3f 	.insn	8, 0x3f3f3f3f3f3f3f3f
   1376a:	3f3f3f3f 3f3f3f3f 	.insn	8, 0x3f3f3f3f3f3f3f3f
   13772:	3f3f3f3f 3f3f3f3f 	.insn	8, 0x3f3f3f3f3f3f3f3f
   1377a:	3f3f3f3f 3f3f3f3f 	.insn	8, 0x3f3f3f3f3f3f3f3f
   13782:	3f3f3f3f 3f3f3f3f 	.insn	8, 0x3f3f3f3f3f3f3f3f
   1378a:	3f3f3f3f 3f3f3f3f 	.insn	8, 0x3f3f3f3f3f3f3f3f
   13792:	3f3f3f3f 3f3f3f3f 	.insn	8, 0x3f3f3f3f3f3f3f3f
   1379a:	3f3f3f3f 3f3f3f3f 	.insn	8, 0x3f3f3f3f3f3f3f3f
   137a2:	3f3f3f3f 3f3f3f3f 	.insn	8, 0x3f3f3f3f3f3f3f3f
   137aa:	3f3f3f3f 3f3f3f3f 	.insn	8, 0x3f3f3f3f3f3f3f3f
   137b2:	3f3f3f3f 3f3f3f3f 	.insn	8, 0x3f3f3f3f3f3f3f3f
   137ba:	3f3f3f3f 3f3f3f3f 	.insn	8, 0x3f3f3f3f3f3f3f3f
   137c2:	3f3f3f3f 3f3f3f3f 	.insn	8, 0x3f3f3f3f3f3f3f3f
   137ca:	3f3f3f3f 3f3f3f3f 	.insn	8, 0x3f3f3f3f3f3f3f3f
   137d2:	3f3f3f3f 3f3f3f3f 	.insn	8, 0x3f3f3f3f3f3f3f3f
   137da:	3f3f3f3f 3f3f3f3f 	.insn	8, 0x3f3f3f3f3f3f3f3f
   137e2:	3f3f3f3f 3f3f3f3f 	.insn	8, 0x3f3f3f3f3f3f3f3f
   137ea:	3f3f3f3f 3f3f3f3f 	.insn	8, 0x3f3f3f3f3f3f3f3f
   137f2:	3f3f3f3f 3f3f3f3f 	.insn	8, 0x3f3f3f3f3f3f3f3f
   137fa:	3f3f3f3f 3f3f3f3f 	.insn	8, 0x3f3f3f3f3f3f3f3f
   13802:	3f3f3f3f 3f3f3f3f 	.insn	8, 0x3f3f3f3f3f3f3f3f
   1380a:	3f3f3f3f 3f3f3f3f 	.insn	8, 0x3f3f3f3f3f3f3f3f
   13812:	3f3f3f3f 3f3f3f3f 	.insn	8, 0x3f3f3f3f3f3f3f3f
   1381a:	3f3f3f3f 3f3f3f3f 	.insn	8, 0x3f3f3f3f3f3f3f3f
   13822:	3f3f3f3f 3f3f3f3f 	.insn	8, 0x3f3f3f3f3f3f3f3f
   1382a:	3f3f3f3f 3f3f3f3f 	.insn	8, 0x3f3f3f3f3f3f3f3f
   13832:	3f3f3f3f 3f3f3f3f 	.insn	8, 0x3f3f3f3f3f3f3f3f
   1383a:	3f3f3f3f 3f3f3f3f 	.insn	8, 0x3f3f3f3f3f3f3f3f
   13842:	3f3f3f3f 3f3f3f3f 	.insn	8, 0x3f3f3f3f3f3f3f3f
   1384a:	3f3f3f3f 3f3f3f3f 	.insn	8, 0x3f3f3f3f3f3f3f3f
   13852:	3f3f3f3f 3f3f3f3f 	.insn	8, 0x3f3f3f3f3f3f3f3f
   1385a:	3f3f3f3f 3f3f3f3f 	.insn	8, 0x3f3f3f3f3f3f3f3f
   13862:	3f3f3f3f 3f3f3f3f 	.insn	8, 0x3f3f3f3f3f3f3f3f
   1386a:	3f3f3f3f 3f3f3f3f 	.insn	8, 0x3f3f3f3f3f3f3f3f
   13872:	3f3f3f3f 3f3f3f3f 	.insn	8, 0x3f3f3f3f3f3f3f3f
   1387a:	3f3f3f3f 3f3f3f3f 	.insn	8, 0x3f3f3f3f3f3f3f3f
   13882:	3f3f3f3f 3f3f3f3f 	.insn	8, 0x3f3f3f3f3f3f3f3f
   1388a:	3f3f3f3f 3f3f3f3f 	.insn	8, 0x3f3f3f3f3f3f3f3f
   13892:	3f3f3f3f 3f3f3f3f 	.insn	8, 0x3f3f3f3f3f3f3f3f
   1389a:	3f3f3f3f 3f3f3f3f 	.insn	8, 0x3f3f3f3f3f3f3f3f
   138a2:	3f3f3f3f 3f3f3f3f 	.insn	8, 0x3f3f3f3f3f3f3f3f
   138aa:	3f3f3f3f 3f3f3f3f 	.insn	8, 0x3f3f3f3f3f3f3f3f
   138b2:	3f3f3f3f 3f3f3f3f 	.insn	8, 0x3f3f3f3f3f3f3f3f
   138ba:	3f3f3f3f 3f3f3f3f 	.insn	8, 0x3f3f3f3f3f3f3f3f
   138c2:	3f3f3f3f 3f3f3f3f 	.insn	8, 0x3f3f3f3f3f3f3f3f
   138ca:	3f3f3f3f 3f3f3f3f 	.insn	8, 0x3f3f3f3f3f3f3f3f
   138d2:	3f3f3f3f 3f3f3f3f 	.insn	8, 0x3f3f3f3f3f3f3f3f
   138da:	3f3f3f3f 3f3f3f3f 	.insn	8, 0x3f3f3f3f3f3f3f3f
   138e2:	3f3f3f3f 3f3f3f3f 	.insn	8, 0x3f3f3f3f3f3f3f3f
   138ea:	3f3f3f3f 3f3f3f3f 	.insn	8, 0x3f3f3f3f3f3f3f3f
   138f2:	3f3f3f3f 3f3f3f3f 	.insn	8, 0x3f3f3f3f3f3f3f3f
   138fa:	3f3f3f3f 3f3f3f3f 	.insn	8, 0x3f3f3f3f3f3f3f3f
   13902:	3f3f3f3f 3f3f3f3f 	.insn	8, 0x3f3f3f3f3f3f3f3f
   1390a:	3f3f3f3f 3f3f3f3f 	.insn	8, 0x3f3f3f3f3f3f3f3f
   13912:	3f3f3f3f 3f3f3f3f 	.insn	8, 0x3f3f3f3f3f3f3f3f
   1391a:	3f3f3f3f 3f3f3f3f 	.insn	8, 0x3f3f3f3f3f3f3f3f
   13922:	3f3f3f3f 3f3f3f3f 	.insn	8, 0x3f3f3f3f3f3f3f3f
   1392a:	3f3f3f3f 3f3f3f3f 	.insn	8, 0x3f3f3f3f3f3f3f3f
   13932:	3f3f3f3f 3f3f3f3f 	.insn	8, 0x3f3f3f3f3f3f3f3f
   1393a:	3f3f3f3f 3f3f3f3f 	.insn	8, 0x3f3f3f3f3f3f3f3f
   13942:	3f3f3f3f 3f3f3f3f 	.insn	8, 0x3f3f3f3f3f3f3f3f
   1394a:	3f3f3f3f 3f3f3f3f 	.insn	8, 0x3f3f3f3f3f3f3f3f
   13952:	3f3f3f3f 3f3f3f3f 	.insn	8, 0x3f3f3f3f3f3f3f3f
   1395a:	3f3f3f3f 3f3f3f3f 	.insn	8, 0x3f3f3f3f3f3f3f3f
   13962:	3f3f3f3f 3f3f3f3f 	.insn	8, 0x3f3f3f3f3f3f3f3f
   1396a:	3f3f3f3f 3f3f3f3f 	.insn	8, 0x3f3f3f3f3f3f3f3f
   13972:	3f3f3f3f 3f3f3f3f 	.insn	8, 0x3f3f3f3f3f3f3f3f
   1397a:	3f3f3f3f 3f3f3f3f 	.insn	8, 0x3f3f3f3f3f3f3f3f
   13982:	3f3f3f3f 3f3f3f3f 	.insn	8, 0x3f3f3f3f3f3f3f3f
   1398a:	3f3f3f3f 3f3f3f3f 	.insn	8, 0x3f3f3f3f3f3f3f3f
   13992:	3f3f3f3f 3f3f3f3f 	.insn	8, 0x3f3f3f3f3f3f3f3f
   1399a:	3f3f3f3f 3f3f3f3f 	.insn	8, 0x3f3f3f3f3f3f3f3f
   139a2:	3f3f3f3f 3f3f3f3f 	.insn	8, 0x3f3f3f3f3f3f3f3f
   139aa:	3f3f3f3f 3f3f3f3f 	.insn	8, 0x3f3f3f3f3f3f3f3f
   139b2:	3f3f3f3f 3f3f3f3f 	.insn	8, 0x3f3f3f3f3f3f3f3f
   139ba:	3f3f3f3f 3f3f3f3f 	.insn	8, 0x3f3f3f3f3f3f3f3f
   139c2:	3f3f3f3f 3f3f3f3f 	.insn	8, 0x3f3f3f3f3f3f3f3f
   139ca:	3f3f3f3f 3f3f3f3f 	.insn	8, 0x3f3f3f3f3f3f3f3f
   139d2:	3f3f3f3f 3f3f3f3f 	.insn	8, 0x3f3f3f3f3f3f3f3f
   139da:	3f3f3f3f 3f3f3f3f 	.insn	8, 0x3f3f3f3f3f3f3f3f
   139e2:	3f3f3f3f 3f3f3f3f 	.insn	8, 0x3f3f3f3f3f3f3f3f
   139ea:	3f3f3f3f 3f3f3f3f 	.insn	8, 0x3f3f3f3f3f3f3f3f
   139f2:	3f3f3f3f 3f3f3f3f 	.insn	8, 0x3f3f3f3f3f3f3f3f
   139fa:	3f3f3f3f 3f3f3f3f 	.insn	8, 0x3f3f3f3f3f3f3f3f
   13a02:	3f3f3f3f 3f3f3f3f 	.insn	8, 0x3f3f3f3f3f3f3f3f
   13a0a:	3f3f3f3f 3f3f3f3f 	.insn	8, 0x3f3f3f3f3f3f3f3f
   13a12:	3f3f3f3f 3f3f3f3f 	.insn	8, 0x3f3f3f3f3f3f3f3f
   13a1a:	3f3f3f3f 3f3f3f3f 	.insn	8, 0x3f3f3f3f3f3f3f3f
   13a22:	3f3f3f3f 3f3f3f3f 	.insn	8, 0x3f3f3f3f3f3f3f3f
   13a2a:	3f3f3f3f 3f3f3f3f 	.insn	8, 0x3f3f3f3f3f3f3f3f
   13a32:	3f3f3f3f 3f3f3f3f 	.insn	8, 0x3f3f3f3f3f3f3f3f
   13a3a:	3f3f3f3f 3f3f3f3f 	.insn	8, 0x3f3f3f3f3f3f3f3f
   13a42:	3f3f3f3f 3f3f3f3f 	.insn	8, 0x3f3f3f3f3f3f3f3f
   13a4a:	3f3f3f3f 3f3f3f3f 	.insn	8, 0x3f3f3f3f3f3f3f3f
   13a52:	3f3f3f3f 3f3f3f3f 	.insn	8, 0x3f3f3f3f3f3f3f3f
   13a5a:	3f3f3f3f 3f3f3f3f 	.insn	8, 0x3f3f3f3f3f3f3f3f
   13a62:	3f3f3f3f 3f3f3f3f 	.insn	8, 0x3f3f3f3f3f3f3f3f
   13a6a:	3f3f3f3f 3f3f3f3f 	.insn	8, 0x3f3f3f3f3f3f3f3f
   13a72:	3f3f3f3f 3f3f3f3f 	.insn	8, 0x3f3f3f3f3f3f3f3f
   13a7a:	3f3f3f3f 3f3f3f3f 	.insn	8, 0x3f3f3f3f3f3f3f3f
   13a82:	3f3f3f3f 3f3f3f3f 	.insn	8, 0x3f3f3f3f3f3f3f3f
   13a8a:	3f3f3f3f 3f3f3f3f 	.insn	8, 0x3f3f3f3f3f3f3f3f
   13a92:	3f3f3f3f 3f3f3f3f 	.insn	8, 0x3f3f3f3f3f3f3f3f
   13a9a:	3f3f3f3f 3f3f3f3f 	.insn	8, 0x3f3f3f3f3f3f3f3f
   13aa2:	3f3f3f3f 3f3f3f3f 	.insn	8, 0x3f3f3f3f3f3f3f3f
   13aaa:	3f3f3f3f 3f3f3f3f 	.insn	8, 0x3f3f3f3f3f3f3f3f
   13ab2:	3f3f3f3f 3f3f3f3f 	.insn	8, 0x3f3f3f3f3f3f3f3f
   13aba:	3f3f3f3f 3f3f3f3f 	.insn	8, 0x3f3f3f3f3f3f3f3f
   13ac2:	3f3f3f3f 3f3f3f3f 	.insn	8, 0x3f3f3f3f3f3f3f3f
   13aca:	3f3f3f3f 3f3f3f3f 	.insn	8, 0x3f3f3f3f3f3f3f3f
   13ad2:	3f3f3f3f 3f3f3f3f 	.insn	8, 0x3f3f3f3f3f3f3f3f
   13ada:	3f3f3f3f 3f3f3f3f 	.insn	8, 0x3f3f3f3f3f3f3f3f
   13ae2:	3f3f3f3f 3f3f3f3f 	.insn	8, 0x3f3f3f3f3f3f3f3f
   13aea:	3f3f3f3f 3f3f3f3f 	.insn	8, 0x3f3f3f3f3f3f3f3f
   13af2:	3f3f3f3f 3f3f3f3f 	.insn	8, 0x3f3f3f3f3f3f3f3f
   13afa:	3f3f3f3f 3f3f3f3f 	.insn	8, 0x3f3f3f3f3f3f3f3f
   13b02:	3f3f3f3f 3f3f3f3f 	.insn	8, 0x3f3f3f3f3f3f3f3f
   13b0a:	3f3f3f3f 3f3f3f3f 	.insn	8, 0x3f3f3f3f3f3f3f3f
   13b12:	3f3f3f3f 3f3f3f3f 	.insn	8, 0x3f3f3f3f3f3f3f3f
   13b1a:	3f3f3f3f 3f3f3f3f 	.insn	8, 0x3f3f3f3f3f3f3f3f
   13b22:	3f3f3f3f 3f3f3f3f 	.insn	8, 0x3f3f3f3f3f3f3f3f
   13b2a:	3f3f3f3f 3f3f3f3f 	.insn	8, 0x3f3f3f3f3f3f3f3f
   13b32:	3f3f3f3f 3f3f3f3f 	.insn	8, 0x3f3f3f3f3f3f3f3f
   13b3a:	3f3f3f3f 3f3f3f3f 	.insn	8, 0x3f3f3f3f3f3f3f3f
   13b42:	3f3f3f3f 3f3f3f3f 	.insn	8, 0x3f3f3f3f3f3f3f3f
   13b4a:	3f3f3f3f 3f3f3f3f 	.insn	8, 0x3f3f3f3f3f3f3f3f
   13b52:	3f3f3f3f 3f3f3f3f 	.insn	8, 0x3f3f3f3f3f3f3f3f
   13b5a:	3f3f3f3f 3f3f3f3f 	.insn	8, 0x3f3f3f3f3f3f3f3f
   13b62:	3f3f3f3f 3f3f3f3f 	.insn	8, 0x3f3f3f3f3f3f3f3f
   13b6a:	3f3f3f3f 3f3f3f3f 	.insn	8, 0x3f3f3f3f3f3f3f3f
   13b72:	3f3f3f3f 3f3f3f3f 	.insn	8, 0x3f3f3f3f3f3f3f3f
   13b7a:	3f3f3f3f 3f3f3f3f 	.insn	8, 0x3f3f3f3f3f3f3f3f
   13b82:	3f3f3f3f 3f3f3f3f 	.insn	8, 0x3f3f3f3f3f3f3f3f
   13b8a:	3f3f3f3f 3f3f3f3f 	.insn	8, 0x3f3f3f3f3f3f3f3f
   13b92:	3f3f3f3f 3f3f3f3f 	.insn	8, 0x3f3f3f3f3f3f3f3f
   13b9a:	3f3f3f3f 3f3f3f3f 	.insn	8, 0x3f3f3f3f3f3f3f3f
   13ba2:	3f3f3f3f 3f3f3f3f 	.insn	8, 0x3f3f3f3f3f3f3f3f
   13baa:	3f3f3f3f 3f3f3f3f 	.insn	8, 0x3f3f3f3f3f3f3f3f
   13bb2:	3f3f3f3f 3f3f3f3f 	.insn	8, 0x3f3f3f3f3f3f3f3f
   13bba:	3f3f3f3f 3f3f3f3f 	.insn	8, 0x3f3f3f3f3f3f3f3f
   13bc2:	3f3f3f3f 3f3f3f3f 	.insn	8, 0x3f3f3f3f3f3f3f3f
   13bca:	3f3f3f3f 3f3f3f3f 	.insn	8, 0x3f3f3f3f3f3f3f3f
   13bd2:	3f3f3f3f 3f3f3f3f 	.insn	8, 0x3f3f3f3f3f3f3f3f
   13bda:	3f3f3f3f 3f3f3f3f 	.insn	8, 0x3f3f3f3f3f3f3f3f
   13be2:	3f3f3f3f 3f3f3f3f 	.insn	8, 0x3f3f3f3f3f3f3f3f
   13bea:	3f3f3f3f 3f3f3f3f 	.insn	8, 0x3f3f3f3f3f3f3f3f
   13bf2:	3f3f3f3f 3f3f3f3f 	.insn	8, 0x3f3f3f3f3f3f3f3f
   13bfa:	3f3f3f3f 3f3f3f3f 	.insn	8, 0x3f3f3f3f3f3f3f3f
   13c02:	3f3f3f3f 3f3f3f3f 	.insn	8, 0x3f3f3f3f3f3f3f3f
   13c0a:	3f3f3f3f 3f3f3f3f 	.insn	8, 0x3f3f3f3f3f3f3f3f
   13c12:	3f3f3f3f 3f3f3f3f 	.insn	8, 0x3f3f3f3f3f3f3f3f
   13c1a:	3f3f3f3f 3f3f3f3f 	.insn	8, 0x3f3f3f3f3f3f3f3f
   13c22:	3f3f3f3f 3f3f3f3f 	.insn	8, 0x3f3f3f3f3f3f3f3f
   13c2a:	3f3f3f3f 3f3f3f3f 	.insn	8, 0x3f3f3f3f3f3f3f3f
   13c32:	3f3f3f3f 3f3f3f3f 	.insn	8, 0x3f3f3f3f3f3f3f3f
   13c3a:	3f3f3f3f 3f3f3f3f 	.insn	8, 0x3f3f3f3f3f3f3f3f
   13c42:	3f3f3f3f 3f3f3f3f 	.insn	8, 0x3f3f3f3f3f3f3f3f
   13c4a:	3f3f3f3f 3f3f3f3f 	.insn	8, 0x3f3f3f3f3f3f3f3f
   13c52:	3f3f3f3f 3f3f3f3f 	.insn	8, 0x3f3f3f3f3f3f3f3f
   13c5a:	3f3f3f3f 3f3f3f3f 	.insn	8, 0x3f3f3f3f3f3f3f3f
   13c62:	3f3f3f3f 3f3f3f3f 	.insn	8, 0x3f3f3f3f3f3f3f3f
   13c6a:	3f3f3f3f 3f3f3f3f 	.insn	8, 0x3f3f3f3f3f3f3f3f
   13c72:	3f3f3f3f 3f3f3f3f 	.insn	8, 0x3f3f3f3f3f3f3f3f
   13c7a:	3f3f3f3f 3f3f3f3f 	.insn	8, 0x3f3f3f3f3f3f3f3f
   13c82:	3f3f3f3f 3f3f3f3f 	.insn	8, 0x3f3f3f3f3f3f3f3f
   13c8a:	3f3f3f3f 3f3f3f3f 	.insn	8, 0x3f3f3f3f3f3f3f3f
   13c92:	3f3f3f3f 3f3f3f3f 	.insn	8, 0x3f3f3f3f3f3f3f3f
   13c9a:	3f3f3f3f 3f3f3f3f 	.insn	8, 0x3f3f3f3f3f3f3f3f
   13ca2:	3f3f3f3f 3f3f3f3f 	.insn	8, 0x3f3f3f3f3f3f3f3f
   13caa:	3f3f3f3f 3f3f3f3f 	.insn	8, 0x3f3f3f3f3f3f3f3f
   13cb2:	3f3f3f3f 3f3f3f3f 	.insn	8, 0x3f3f3f3f3f3f3f3f
   13cba:	3f3f3f3f 3f3f3f3f 	.insn	8, 0x3f3f3f3f3f3f3f3f
   13cc2:	3f3f3f3f 3f3f3f3f 	.insn	8, 0x3f3f3f3f3f3f3f3f
   13cca:	3f3f3f3f 3f3f3f3f 	.insn	8, 0x3f3f3f3f3f3f3f3f
   13cd2:	3f3f3f3f 3f3f3f3f 	.insn	8, 0x3f3f3f3f3f3f3f3f
   13cda:	3f3f3f3f 3f3f3f3f 	.insn	8, 0x3f3f3f3f3f3f3f3f
   13ce2:	3f3f3f3f 3f3f3f3f 	.insn	8, 0x3f3f3f3f3f3f3f3f
   13cea:	3f3f3f3f 3f3f3f3f 	.insn	8, 0x3f3f3f3f3f3f3f3f
   13cf2:	3f3f3f3f 3f3f3f3f 	.insn	8, 0x3f3f3f3f3f3f3f3f
   13cfa:	3f3f3f3f 3f3f3f3f 	.insn	8, 0x3f3f3f3f3f3f3f3f
   13d02:	3f3f3f3f 3f3f3f3f 	.insn	8, 0x3f3f3f3f3f3f3f3f
   13d0a:	3f3f3f3f 3f3f3f3f 	.insn	8, 0x3f3f3f3f3f3f3f3f
   13d12:	3f3f3f3f 3f3f3f3f 	.insn	8, 0x3f3f3f3f3f3f3f3f
   13d1a:	3f3f3f3f 3f3f3f3f 	.insn	8, 0x3f3f3f3f3f3f3f3f
   13d22:	3f3f3f3f 3f3f3f3f 	.insn	8, 0x3f3f3f3f3f3f3f3f
   13d2a:	3f3f3f3f 3f3f3f3f 	.insn	8, 0x3f3f3f3f3f3f3f3f
   13d32:	3f3f3f3f 3f3f3f3f 	.insn	8, 0x3f3f3f3f3f3f3f3f
   13d3a:	3f3f3f3f 3f3f3f3f 	.insn	8, 0x3f3f3f3f3f3f3f3f
   13d42:	3f3f3f3f 3f3f3f3f 	.insn	8, 0x3f3f3f3f3f3f3f3f
   13d4a:	3f3f3f3f 3f3f3f3f 	.insn	8, 0x3f3f3f3f3f3f3f3f
   13d52:	3f3f3f3f 3f3f3f3f 	.insn	8, 0x3f3f3f3f3f3f3f3f
   13d5a:	3f3f3f3f 3f3f3f3f 	.insn	8, 0x3f3f3f3f3f3f3f3f
   13d62:	3f3f3f3f 3f3f3f3f 	.insn	8, 0x3f3f3f3f3f3f3f3f
   13d6a:	3f3f3f3f 3f3f3f3f 	.insn	8, 0x3f3f3f3f3f3f3f3f
   13d72:	3f3f3f3f 3f3f3f3f 	.insn	8, 0x3f3f3f3f3f3f3f3f
   13d7a:	3f3f3f3f 3f3f3f3f 	.insn	8, 0x3f3f3f3f3f3f3f3f
   13d82:	3f3f3f3f 3f3f3f3f 	.insn	8, 0x3f3f3f3f3f3f3f3f
   13d8a:	3f3f3f3f 3f3f3f3f 	.insn	8, 0x3f3f3f3f3f3f3f3f
   13d92:	3f3f3f3f 3f3f3f3f 	.insn	8, 0x3f3f3f3f3f3f3f3f
   13d9a:	3f3f3f3f 3f3f3f3f 	.insn	8, 0x3f3f3f3f3f3f3f3f
   13da2:	3f3f3f3f 3f3f3f3f 	.insn	8, 0x3f3f3f3f3f3f3f3f
   13daa:	3f3f3f3f 3f3f3f3f 	.insn	8, 0x3f3f3f3f3f3f3f3f
   13db2:	3f3f3f3f 3f3f3f3f 	.insn	8, 0x3f3f3f3f3f3f3f3f
   13dba:	3f3f3f3f 3f3f3f3f 	.insn	8, 0x3f3f3f3f3f3f3f3f
   13dc2:	3f3f3f3f 3f3f3f3f 	.insn	8, 0x3f3f3f3f3f3f3f3f
   13dca:	3f3f3f3f 3f3f3f3f 	.insn	8, 0x3f3f3f3f3f3f3f3f
   13dd2:	3f3f3f3f 3f3f3f3f 	.insn	8, 0x3f3f3f3f3f3f3f3f
   13dda:	3f3f3f3f 3f3f3f3f 	.insn	8, 0x3f3f3f3f3f3f3f3f
   13de2:	3f3f3f3f 3f3f3f3f 	.insn	8, 0x3f3f3f3f3f3f3f3f
   13dea:	3f3f3f3f 3f3f3f3f 	.insn	8, 0x3f3f3f3f3f3f3f3f
   13df2:	3f3f3f3f 3f3f3f3f 	.insn	8, 0x3f3f3f3f3f3f3f3f
   13dfa:	3f3f3f3f 3f3f3f3f 	.insn	8, 0x3f3f3f3f3f3f3f3f
   13e02:	3f3f3f3f 3f3f3f3f 	.insn	8, 0x3f3f3f3f3f3f3f3f
   13e0a:	3f3f3f3f 3f3f3f3f 	.insn	8, 0x3f3f3f3f3f3f3f3f
   13e12:	3f3f3f3f 3f3f3f3f 	.insn	8, 0x3f3f3f3f3f3f3f3f
   13e1a:	3f3f3f3f 3f3f3f3f 	.insn	8, 0x3f3f3f3f3f3f3f3f
   13e22:	3f3f3f3f 3f3f3f3f 	.insn	8, 0x3f3f3f3f3f3f3f3f
   13e2a:	3f3f3f3f 3f3f3f3f 	.insn	8, 0x3f3f3f3f3f3f3f3f
   13e32:	3f3f3f3f 3f3f3f3f 	.insn	8, 0x3f3f3f3f3f3f3f3f
   13e3a:	3f3f3f3f 3f3f3f3f 	.insn	8, 0x3f3f3f3f3f3f3f3f
   13e42:	3f3f3f3f 3f3f3f3f 	.insn	8, 0x3f3f3f3f3f3f3f3f
   13e4a:	3f3f3f3f 3f3f3f3f 	.insn	8, 0x3f3f3f3f3f3f3f3f
   13e52:	3f3f3f3f 3f3f3f3f 	.insn	8, 0x3f3f3f3f3f3f3f3f
   13e5a:	3f3f3f3f 3f3f3f3f 	.insn	8, 0x3f3f3f3f3f3f3f3f
   13e62:	3f3f3f3f 3f3f3f3f 	.insn	8, 0x3f3f3f3f3f3f3f3f
   13e6a:	3f3f3f3f 3f3f3f3f 	.insn	8, 0x3f3f3f3f3f3f3f3f
   13e72:	3f3f3f3f 3f3f3f3f 	.insn	8, 0x3f3f3f3f3f3f3f3f
   13e7a:	3f3f3f3f 3f3f3f3f 	.insn	8, 0x3f3f3f3f3f3f3f3f
   13e82:	3f3f3f3f 3f3f3f3f 	.insn	8, 0x3f3f3f3f3f3f3f3f
   13e8a:	3f3f3f3f 3f3f3f3f 	.insn	8, 0x3f3f3f3f3f3f3f3f
   13e92:	3f3f3f3f 3f3f3f3f 	.insn	8, 0x3f3f3f3f3f3f3f3f
   13e9a:	3f3f3f3f 3f3f3f3f 	.insn	8, 0x3f3f3f3f3f3f3f3f
   13ea2:	3f3f3f3f 3f3f3f3f 	.insn	8, 0x3f3f3f3f3f3f3f3f
   13eaa:	3f3f3f3f 3f3f3f3f 	.insn	8, 0x3f3f3f3f3f3f3f3f
   13eb2:	3f3f3f3f 3f3f3f3f 	.insn	8, 0x3f3f3f3f3f3f3f3f
   13eba:	3f3f3f3f 3f3f3f3f 	.insn	8, 0x3f3f3f3f3f3f3f3f
   13ec2:	3f3f3f3f 3f3f3f3f 	.insn	8, 0x3f3f3f3f3f3f3f3f
   13eca:	3f3f3f3f 3f3f3f3f 	.insn	8, 0x3f3f3f3f3f3f3f3f
   13ed2:	3f3f3f3f 3f3f3f3f 	.insn	8, 0x3f3f3f3f3f3f3f3f
   13eda:	3f3f3f3f 3f3f3f3f 	.insn	8, 0x3f3f3f3f3f3f3f3f
   13ee2:	3f3f3f3f 3f3f3f3f 	.insn	8, 0x3f3f3f3f3f3f3f3f
   13eea:	3f3f3f3f 3f3f3f3f 	.insn	8, 0x3f3f3f3f3f3f3f3f
   13ef2:	3f3f3f3f 3f3f3f3f 	.insn	8, 0x3f3f3f3f3f3f3f3f
   13efa:	3f3f3f3f 3f3f3f3f 	.insn	8, 0x3f3f3f3f3f3f3f3f
   13f02:	3f3f3f3f 3f3f3f3f 	.insn	8, 0x3f3f3f3f3f3f3f3f
   13f0a:	3f3f3f3f 3f3f3f3f 	.insn	8, 0x3f3f3f3f3f3f3f3f
   13f12:	3f3f3f3f 3f3f3f3f 	.insn	8, 0x3f3f3f3f3f3f3f3f
   13f1a:	3f3f3f3f 3f3f3f3f 	.insn	8, 0x3f3f3f3f3f3f3f3f
   13f22:	3f3f3f3f 3f3f3f3f 	.insn	8, 0x3f3f3f3f3f3f3f3f
   13f2a:	3f3f3f3f 3f3f3f3f 	.insn	8, 0x3f3f3f3f3f3f3f3f
   13f32:	3f3f3f3f 3f3f3f3f 	.insn	8, 0x3f3f3f3f3f3f3f3f
   13f3a:	3f3f3f3f 3f3f3f3f 	.insn	8, 0x3f3f3f3f3f3f3f3f
   13f42:	3f3f3f3f 3f3f3f3f 	.insn	8, 0x3f3f3f3f3f3f3f3f
   13f4a:	3f3f3f3f 3f3f3f3f 	.insn	8, 0x3f3f3f3f3f3f3f3f
   13f52:	3f3f3f3f 3f3f3f3f 	.insn	8, 0x3f3f3f3f3f3f3f3f
   13f5a:	3f3f3f3f 3f3f3f3f 	.insn	8, 0x3f3f3f3f3f3f3f3f
   13f62:	3f3f3f3f 3f3f3f3f 	.insn	8, 0x3f3f3f3f3f3f3f3f
   13f6a:	3f3f3f3f 3f3f3f3f 	.insn	8, 0x3f3f3f3f3f3f3f3f
   13f72:	3f3f3f3f 3f3f3f3f 	.insn	8, 0x3f3f3f3f3f3f3f3f
   13f7a:	3f3f3f3f 3f3f3f3f 	.insn	8, 0x3f3f3f3f3f3f3f3f
   13f82:	3f3f3f3f 3f3f3f3f 	.insn	8, 0x3f3f3f3f3f3f3f3f
   13f8a:	3f3f3f3f 3f3f3f3f 	.insn	8, 0x3f3f3f3f3f3f3f3f
   13f92:	3f3f3f3f 3f3f3f3f 	.insn	8, 0x3f3f3f3f3f3f3f3f
   13f9a:	3f3f3f3f 3f3f3f3f 	.insn	8, 0x3f3f3f3f3f3f3f3f
   13fa2:	3f3f3f3f 3f3f3f3f 	.insn	8, 0x3f3f3f3f3f3f3f3f
   13faa:	3f3f3f3f 3f3f3f3f 	.insn	8, 0x3f3f3f3f3f3f3f3f
   13fb2:	3f3f3f3f 3f3f3f3f 	.insn	8, 0x3f3f3f3f3f3f3f3f
   13fba:	3f3f3f3f 3f3f3f3f 	.insn	8, 0x3f3f3f3f3f3f3f3f
   13fc2:	3f3f3f3f 3f3f3f3f 	.insn	8, 0x3f3f3f3f3f3f3f3f
   13fca:	3f3f3f3f 3f3f3f3f 	.insn	8, 0x3f3f3f3f3f3f3f3f
   13fd2:	3f3f3f3f 3f3f3f3f 	.insn	8, 0x3f3f3f3f3f3f3f3f
   13fda:	3f3f3f3f 3f3f3f3f 	.insn	8, 0x3f3f3f3f3f3f3f3f
   13fe2:	3f3f3f3f 3f3f3f3f 	.insn	8, 0x3f3f3f3f3f3f3f3f
   13fea:	3f3f3f3f 3f3f3f3f 	.insn	8, 0x3f3f3f3f3f3f3f3f
   13ff2:	3f3f3f3f 3f3f3f3f 	.insn	8, 0x3f3f3f3f3f3f3f3f
   13ffa:	3f3f3f3f 3f3f3f3f 	.insn	8, 0x3f3f3f3f3f3f3f3f
   14002:	3f3f3f3f 3f3f3f3f 	.insn	8, 0x3f3f3f3f3f3f3f3f
   1400a:	3f3f3f3f 3f3f3f3f 	.insn	8, 0x3f3f3f3f3f3f3f3f
   14012:	3f3f3f3f 3f3f3f3f 	.insn	8, 0x3f3f3f3f3f3f3f3f
   1401a:	3f3f3f3f 3f3f3f3f 	.insn	8, 0x3f3f3f3f3f3f3f3f
   14022:	3f3f3f3f 3f3f3f3f 	.insn	8, 0x3f3f3f3f3f3f3f3f
   1402a:	3f3f3f3f 3f3f3f3f 	.insn	8, 0x3f3f3f3f3f3f3f3f
   14032:	3f3f3f3f 3f3f3f3f 	.insn	8, 0x3f3f3f3f3f3f3f3f
   1403a:	3f3f3f3f 3f3f3f3f 	.insn	8, 0x3f3f3f3f3f3f3f3f
   14042:	3f3f3f3f 3f3f3f3f 	.insn	8, 0x3f3f3f3f3f3f3f3f
   1404a:	3f3f3f3f 3f3f3f3f 	.insn	8, 0x3f3f3f3f3f3f3f3f
   14052:	3f3f3f3f 3f3f3f3f 	.insn	8, 0x3f3f3f3f3f3f3f3f
   1405a:	3f3f3f3f 3f3f3f3f 	.insn	8, 0x3f3f3f3f3f3f3f3f
   14062:	3f3f3f3f 3f3f3f3f 	.insn	8, 0x3f3f3f3f3f3f3f3f
   1406a:	3f3f3f3f 3f3f3f3f 	.insn	8, 0x3f3f3f3f3f3f3f3f
   14072:	3f3f3f3f 3f3f3f3f 	.insn	8, 0x3f3f3f3f3f3f3f3f
   1407a:	3f3f3f3f 3f3f3f3f 	.insn	8, 0x3f3f3f3f3f3f3f3f
   14082:	3f3f3f3f 3f3f3f3f 	.insn	8, 0x3f3f3f3f3f3f3f3f
   1408a:	3f3f3f3f 3f3f3f3f 	.insn	8, 0x3f3f3f3f3f3f3f3f
   14092:	3f3f3f3f 3f3f3f3f 	.insn	8, 0x3f3f3f3f3f3f3f3f
   1409a:	3f3f3f3f 3f3f3f3f 	.insn	8, 0x3f3f3f3f3f3f3f3f
   140a2:	3f3f3f3f 3f3f3f3f 	.insn	8, 0x3f3f3f3f3f3f3f3f
   140aa:	3f3f3f3f 3f3f3f3f 	.insn	8, 0x3f3f3f3f3f3f3f3f
   140b2:	3f3f3f3f 3f3f3f3f 	.insn	8, 0x3f3f3f3f3f3f3f3f
   140ba:	3f3f3f3f 3f3f3f3f 	.insn	8, 0x3f3f3f3f3f3f3f3f
   140c2:	3f3f3f3f 3f3f3f3f 	.insn	8, 0x3f3f3f3f3f3f3f3f
   140ca:	3f3f3f3f 3f3f3f3f 	.insn	8, 0x3f3f3f3f3f3f3f3f
   140d2:	3f3f3f3f 3f3f3f3f 	.insn	8, 0x3f3f3f3f3f3f3f3f
   140da:	3f3f3f3f 3f3f3f3f 	.insn	8, 0x3f3f3f3f3f3f3f3f
   140e2:	3f3f3f3f 3f3f3f3f 	.insn	8, 0x3f3f3f3f3f3f3f3f
   140ea:	3f3f3f3f 3f3f3f3f 	.insn	8, 0x3f3f3f3f3f3f3f3f
   140f2:	3f3f3f3f 3f3f3f3f 	.insn	8, 0x3f3f3f3f3f3f3f3f
   140fa:	3f3f3f3f 3f3f3f3f 	.insn	8, 0x3f3f3f3f3f3f3f3f
   14102:	3f3f3f3f 3f3f3f3f 	.insn	8, 0x3f3f3f3f3f3f3f3f
   1410a:	3f3f3f3f 3f3f3f3f 	.insn	8, 0x3f3f3f3f3f3f3f3f
   14112:	3f3f3f3f 3f3f3f3f 	.insn	8, 0x3f3f3f3f3f3f3f3f
   1411a:	3f3f3f3f 3f3f3f3f 	.insn	8, 0x3f3f3f3f3f3f3f3f
   14122:	3f3f3f3f 3f3f3f3f 	.insn	8, 0x3f3f3f3f3f3f3f3f
   1412a:	3f3f3f3f 3f3f3f3f 	.insn	8, 0x3f3f3f3f3f3f3f3f
   14132:	3f3f3f3f 3f3f3f3f 	.insn	8, 0x3f3f3f3f3f3f3f3f
   1413a:	3f3f3f3f 3f3f3f3f 	.insn	8, 0x3f3f3f3f3f3f3f3f
   14142:	3f3f3f3f 3f3f3f3f 	.insn	8, 0x3f3f3f3f3f3f3f3f
   1414a:	3f3f3f3f 3f3f3f3f 	.insn	8, 0x3f3f3f3f3f3f3f3f
   14152:	3f3f3f3f 3f3f3f3f 	.insn	8, 0x3f3f3f3f3f3f3f3f
   1415a:	3f3f3f3f 3f3f3f3f 	.insn	8, 0x3f3f3f3f3f3f3f3f
   14162:	3f3f3f3f 3f3f3f3f 	.insn	8, 0x3f3f3f3f3f3f3f3f
   1416a:	3f3f3f3f 3f3f3f3f 	.insn	8, 0x3f3f3f3f3f3f3f3f
   14172:	3f3f3f3f 3f3f3f3f 	.insn	8, 0x3f3f3f3f3f3f3f3f
   1417a:	3f3f3f3f 3f3f3f3f 	.insn	8, 0x3f3f3f3f3f3f3f3f
   14182:	3f3f3f3f 3f3f3f3f 	.insn	8, 0x3f3f3f3f3f3f3f3f
   1418a:	3f3f3f3f 3f3f3f3f 	.insn	8, 0x3f3f3f3f3f3f3f3f
   14192:	3f3f3f3f 3f3f3f3f 	.insn	8, 0x3f3f3f3f3f3f3f3f
   1419a:	3f3f3f3f 3f3f3f3f 	.insn	8, 0x3f3f3f3f3f3f3f3f
   141a2:	3f3f3f3f 3f3f3f3f 	.insn	8, 0x3f3f3f3f3f3f3f3f
   141aa:	3f3f3f3f 3f3f3f3f 	.insn	8, 0x3f3f3f3f3f3f3f3f
   141b2:	3f3f3f3f 3f3f3f3f 	.insn	8, 0x3f3f3f3f3f3f3f3f
   141ba:	3f3f3f3f 3f3f3f3f 	.insn	8, 0x3f3f3f3f3f3f3f3f
   141c2:	3f3f3f3f 3f3f3f3f 	.insn	8, 0x3f3f3f3f3f3f3f3f
   141ca:	3f3f3f3f 3f3f3f3f 	.insn	8, 0x3f3f3f3f3f3f3f3f
   141d2:	3f3f3f3f 3f3f3f3f 	.insn	8, 0x3f3f3f3f3f3f3f3f
   141da:	3f3f3f3f 3f3f3f3f 	.insn	8, 0x3f3f3f3f3f3f3f3f
   141e2:	3f3f3f3f 3f3f3f3f 	.insn	8, 0x3f3f3f3f3f3f3f3f
   141ea:	3f3f3f3f 3f3f3f3f 	.insn	8, 0x3f3f3f3f3f3f3f3f
   141f2:	3f3f3f3f 3f3f3f3f 	.insn	8, 0x3f3f3f3f3f3f3f3f
   141fa:	3f3f3f3f 3f3f3f3f 	.insn	8, 0x3f3f3f3f3f3f3f3f
   14202:	3f3f3f3f 3f3f3f3f 	.insn	8, 0x3f3f3f3f3f3f3f3f
   1420a:	3f3f3f3f 3f3f3f3f 	.insn	8, 0x3f3f3f3f3f3f3f3f
   14212:	3f3f3f3f 3f3f3f3f 	.insn	8, 0x3f3f3f3f3f3f3f3f
   1421a:	3f3f3f3f 3f3f3f3f 	.insn	8, 0x3f3f3f3f3f3f3f3f
   14222:	3f3f3f3f 3f3f3f3f 	.insn	8, 0x3f3f3f3f3f3f3f3f
   1422a:	3f3f3f3f 3f3f3f3f 	.insn	8, 0x3f3f3f3f3f3f3f3f
   14232:	3f3f3f3f 3f3f3f3f 	.insn	8, 0x3f3f3f3f3f3f3f3f
   1423a:	3f3f3f3f 3f3f3f3f 	.insn	8, 0x3f3f3f3f3f3f3f3f
   14242:	3f3f3f3f 3f3f3f3f 	.insn	8, 0x3f3f3f3f3f3f3f3f
   1424a:	3f3f3f3f 3f3f3f3f 	.insn	8, 0x3f3f3f3f3f3f3f3f
   14252:	3f3f3f3f 3f3f3f3f 	.insn	8, 0x3f3f3f3f3f3f3f3f
   1425a:	3f3f3f3f 3f3f3f3f 	.insn	8, 0x3f3f3f3f3f3f3f3f
   14262:	3f3f3f3f 3f3f3f3f 	.insn	8, 0x3f3f3f3f3f3f3f3f
   1426a:	3f3f3f3f 3f3f3f3f 	.insn	8, 0x3f3f3f3f3f3f3f3f
   14272:	3f3f3f3f 3f3f3f3f 	.insn	8, 0x3f3f3f3f3f3f3f3f
   1427a:	3f3f3f3f 3f3f3f3f 	.insn	8, 0x3f3f3f3f3f3f3f3f
   14282:	3f3f3f3f 3f3f3f3f 	.insn	8, 0x3f3f3f3f3f3f3f3f
   1428a:	3f3f3f3f 3f3f3f3f 	.insn	8, 0x3f3f3f3f3f3f3f3f
   14292:	3f3f3f3f 3f3f3f3f 	.insn	8, 0x3f3f3f3f3f3f3f3f
   1429a:	3f3f3f3f 3f3f3f3f 	.insn	8, 0x3f3f3f3f3f3f3f3f
   142a2:	3f3f3f3f 3f3f3f3f 	.insn	8, 0x3f3f3f3f3f3f3f3f
   142aa:	3f3f3f3f 3f3f3f3f 	.insn	8, 0x3f3f3f3f3f3f3f3f
   142b2:	3f3f3f3f 3f3f3f3f 	.insn	8, 0x3f3f3f3f3f3f3f3f
   142ba:	3f3f3f3f 3f3f3f3f 	.insn	8, 0x3f3f3f3f3f3f3f3f
   142c2:	3f3f3f3f 3f3f3f3f 	.insn	8, 0x3f3f3f3f3f3f3f3f
   142ca:	3f3f3f3f 3f3f3f3f 	.insn	8, 0x3f3f3f3f3f3f3f3f
   142d2:	3f3f3f3f 3f3f3f3f 	.insn	8, 0x3f3f3f3f3f3f3f3f
   142da:	3f3f3f3f 3f3f3f3f 	.insn	8, 0x3f3f3f3f3f3f3f3f
   142e2:	3f3f3f3f 3f3f3f3f 	.insn	8, 0x3f3f3f3f3f3f3f3f
   142ea:	3f3f3f3f 3f3f3f3f 	.insn	8, 0x3f3f3f3f3f3f3f3f
   142f2:	3f3f3f3f 3f3f3f3f 	.insn	8, 0x3f3f3f3f3f3f3f3f
   142fa:	3f3f3f3f 3f3f3f3f 	.insn	8, 0x3f3f3f3f3f3f3f3f
   14302:	3f3f3f3f 3f3f3f3f 	.insn	8, 0x3f3f3f3f3f3f3f3f
   1430a:	3f3f3f3f 3f3f3f3f 	.insn	8, 0x3f3f3f3f3f3f3f3f
   14312:	3f3f3f3f 3f3f3f3f 	.insn	8, 0x3f3f3f3f3f3f3f3f
   1431a:	3f3f3f3f 3f3f3f3f 	.insn	8, 0x3f3f3f3f3f3f3f3f
   14322:	3f3f3f3f 3f3f3f3f 	.insn	8, 0x3f3f3f3f3f3f3f3f
   1432a:	3f3f3f3f 3f3f3f3f 	.insn	8, 0x3f3f3f3f3f3f3f3f
   14332:	3f3f3f3f 3f3f3f3f 	.insn	8, 0x3f3f3f3f3f3f3f3f
   1433a:	3f3f3f3f 3f3f3f3f 	.insn	8, 0x3f3f3f3f3f3f3f3f
   14342:	3f3f3f3f 3f3f3f3f 	.insn	8, 0x3f3f3f3f3f3f3f3f
   1434a:	3f3f3f3f 3f3f3f3f 	.insn	8, 0x3f3f3f3f3f3f3f3f
   14352:	3f3f3f3f 3f3f3f3f 	.insn	8, 0x3f3f3f3f3f3f3f3f
   1435a:	3f3f3f3f 3f3f3f3f 	.insn	8, 0x3f3f3f3f3f3f3f3f
   14362:	3f3f3f3f 3f3f3f3f 	.insn	8, 0x3f3f3f3f3f3f3f3f
   1436a:	3f3f3f3f 3f3f3f3f 	.insn	8, 0x3f3f3f3f3f3f3f3f
   14372:	3f3f3f3f 3f3f3f3f 	.insn	8, 0x3f3f3f3f3f3f3f3f
   1437a:	3f3f3f3f 3f3f3f3f 	.insn	8, 0x3f3f3f3f3f3f3f3f
   14382:	3f3f3f3f 3f3f3f3f 	.insn	8, 0x3f3f3f3f3f3f3f3f
   1438a:	3f3f3f3f 3f3f3f3f 	.insn	8, 0x3f3f3f3f3f3f3f3f
   14392:	3f3f3f3f 3f3f3f3f 	.insn	8, 0x3f3f3f3f3f3f3f3f
   1439a:	3f3f3f3f 3f3f3f3f 	.insn	8, 0x3f3f3f3f3f3f3f3f
   143a2:	3f3f3f3f 3f3f3f3f 	.insn	8, 0x3f3f3f3f3f3f3f3f
   143aa:	3f3f3f3f 3f3f3f3f 	.insn	8, 0x3f3f3f3f3f3f3f3f
   143b2:	3f3f3f3f 3f3f3f3f 	.insn	8, 0x3f3f3f3f3f3f3f3f
   143ba:	3f3f3f3f 3f3f3f3f 	.insn	8, 0x3f3f3f3f3f3f3f3f
   143c2:	3f3f3f3f 3f3f3f3f 	.insn	8, 0x3f3f3f3f3f3f3f3f
   143ca:	3f3f3f3f 3f3f3f3f 	.insn	8, 0x3f3f3f3f3f3f3f3f
   143d2:	3f3f3f3f 3f3f3f3f 	.insn	8, 0x3f3f3f3f3f3f3f3f
   143da:	3f3f3f3f 3f3f3f3f 	.insn	8, 0x3f3f3f3f3f3f3f3f
   143e2:	3f3f3f3f 3f3f3f3f 	.insn	8, 0x3f3f3f3f3f3f3f3f
   143ea:	3f3f3f3f 3f3f3f3f 	.insn	8, 0x3f3f3f3f3f3f3f3f
   143f2:	3f3f3f3f 3f3f3f3f 	.insn	8, 0x3f3f3f3f3f3f3f3f
   143fa:	3f3f3f3f 3f3f3f3f 	.insn	8, 0x3f3f3f3f3f3f3f3f
   14402:	3f3f3f3f 3f3f3f3f 	.insn	8, 0x3f3f3f3f3f3f3f3f
   1440a:	3f3f3f3f 3f3f3f3f 	.insn	8, 0x3f3f3f3f3f3f3f3f
   14412:	3f3f3f3f 3f3f3f3f 	.insn	8, 0x3f3f3f3f3f3f3f3f
   1441a:	3f3f3f3f 3f3f3f3f 	.insn	8, 0x3f3f3f3f3f3f3f3f
   14422:	3f3f3f3f 3f3f3f3f 	.insn	8, 0x3f3f3f3f3f3f3f3f
   1442a:	3f3f3f3f 3f3f3f3f 	.insn	8, 0x3f3f3f3f3f3f3f3f
   14432:	3f3f3f3f 3f3f3f3f 	.insn	8, 0x3f3f3f3f3f3f3f3f
   1443a:	3f3f3f3f 3f3f3f3f 	.insn	8, 0x3f3f3f3f3f3f3f3f
   14442:	3f3f3f3f 3f3f3f3f 	.insn	8, 0x3f3f3f3f3f3f3f3f
   1444a:	3f3f3f3f 3f3f3f3f 	.insn	8, 0x3f3f3f3f3f3f3f3f
   14452:	3f3f3f3f 3f3f3f3f 	.insn	8, 0x3f3f3f3f3f3f3f3f
   1445a:	3f3f3f3f 3f3f3f3f 	.insn	8, 0x3f3f3f3f3f3f3f3f
   14462:	3f3f3f3f 3f3f3f3f 	.insn	8, 0x3f3f3f3f3f3f3f3f
   1446a:	3f3f3f3f 3f3f3f3f 	.insn	8, 0x3f3f3f3f3f3f3f3f
   14472:	3f3f3f3f 3f3f3f3f 	.insn	8, 0x3f3f3f3f3f3f3f3f
   1447a:	3f3f3f3f 3f3f3f3f 	.insn	8, 0x3f3f3f3f3f3f3f3f
   14482:	3f3f3f3f 3f3f3f3f 	.insn	8, 0x3f3f3f3f3f3f3f3f
   1448a:	3f3f3f3f 3f3f3f3f 	.insn	8, 0x3f3f3f3f3f3f3f3f
   14492:	3f3f3f3f 3f3f3f3f 	.insn	8, 0x3f3f3f3f3f3f3f3f
   1449a:	3f3f3f3f 3f3f3f3f 	.insn	8, 0x3f3f3f3f3f3f3f3f
   144a2:	3f3f3f3f 3f3f3f3f 	.insn	8, 0x3f3f3f3f3f3f3f3f
   144aa:	3f3f3f3f 3f3f3f3f 	.insn	8, 0x3f3f3f3f3f3f3f3f
   144b2:	3f3f3f3f 3f3f3f3f 	.insn	8, 0x3f3f3f3f3f3f3f3f
   144ba:	3f3f3f3f 3f3f3f3f 	.insn	8, 0x3f3f3f3f3f3f3f3f
   144c2:	3f3f3f3f 3f3f3f3f 	.insn	8, 0x3f3f3f3f3f3f3f3f
   144ca:	3f3f3f3f 3f3f3f3f 	.insn	8, 0x3f3f3f3f3f3f3f3f
   144d2:	3f3f3f3f 3f3f3f3f 	.insn	8, 0x3f3f3f3f3f3f3f3f
   144da:	3f3f3f3f 3f3f3f3f 	.insn	8, 0x3f3f3f3f3f3f3f3f
   144e2:	3f3f3f3f 3f3f3f3f 	.insn	8, 0x3f3f3f3f3f3f3f3f
   144ea:	3f3f3f3f 3f3f3f3f 	.insn	8, 0x3f3f3f3f3f3f3f3f
   144f2:	3f3f3f3f 3f3f3f3f 	.insn	8, 0x3f3f3f3f3f3f3f3f
   144fa:	3f3f3f3f 3f3f3f3f 	.insn	8, 0x3f3f3f3f3f3f3f3f
   14502:	3f3f3f3f 3f3f3f3f 	.insn	8, 0x3f3f3f3f3f3f3f3f
   1450a:	3f3f3f3f 3f3f3f3f 	.insn	8, 0x3f3f3f3f3f3f3f3f
   14512:	3f3f3f3f 3f3f3f3f 	.insn	8, 0x3f3f3f3f3f3f3f3f
   1451a:	3f3f3f3f 3f3f3f3f 	.insn	8, 0x3f3f3f3f3f3f3f3f
   14522:	3f3f3f3f 3f3f3f3f 	.insn	8, 0x3f3f3f3f3f3f3f3f
   1452a:	3f3f3f3f 3f3f3f3f 	.insn	8, 0x3f3f3f3f3f3f3f3f
   14532:	3f3f3f3f 3f3f3f3f 	.insn	8, 0x3f3f3f3f3f3f3f3f
   1453a:	3f3f3f3f 3f3f3f3f 	.insn	8, 0x3f3f3f3f3f3f3f3f
   14542:	3f3f3f3f 3f3f3f3f 	.insn	8, 0x3f3f3f3f3f3f3f3f
   1454a:	3f3f3f3f 3f3f3f3f 	.insn	8, 0x3f3f3f3f3f3f3f3f
   14552:	3f3f3f3f 3f3f3f3f 	.insn	8, 0x3f3f3f3f3f3f3f3f
   1455a:	3f3f3f3f 3f3f3f3f 	.insn	8, 0x3f3f3f3f3f3f3f3f
   14562:	3f3f3f3f 3f3f3f3f 	.insn	8, 0x3f3f3f3f3f3f3f3f
   1456a:	3f3f3f3f 3f3f3f3f 	.insn	8, 0x3f3f3f3f3f3f3f3f
   14572:	3f3f3f3f 3f3f3f3f 	.insn	8, 0x3f3f3f3f3f3f3f3f
   1457a:	3f3f3f3f 3f3f3f3f 	.insn	8, 0x3f3f3f3f3f3f3f3f
   14582:	3f3f3f3f 3f3f3f3f 	.insn	8, 0x3f3f3f3f3f3f3f3f
   1458a:	3f3f3f3f 3f3f3f3f 	.insn	8, 0x3f3f3f3f3f3f3f3f
   14592:	3f3f3f3f 3f3f3f3f 	.insn	8, 0x3f3f3f3f3f3f3f3f
   1459a:	3f3f3f3f 3f3f3f3f 	.insn	8, 0x3f3f3f3f3f3f3f3f
   145a2:	3f3f3f3f 3f3f3f3f 	.insn	8, 0x3f3f3f3f3f3f3f3f
   145aa:	3f3f3f3f 3f3f3f3f 	.insn	8, 0x3f3f3f3f3f3f3f3f
   145b2:	3f3f3f3f 3f3f3f3f 	.insn	8, 0x3f3f3f3f3f3f3f3f
   145ba:	3f3f3f3f 3f3f3f3f 	.insn	8, 0x3f3f3f3f3f3f3f3f
   145c2:	3f3f3f3f 3f3f3f3f 	.insn	8, 0x3f3f3f3f3f3f3f3f
   145ca:	3f3f3f3f 3f3f3f3f 	.insn	8, 0x3f3f3f3f3f3f3f3f
   145d2:	3f3f3f3f 3f3f3f3f 	.insn	8, 0x3f3f3f3f3f3f3f3f
   145da:	3f3f3f3f 3f3f3f3f 	.insn	8, 0x3f3f3f3f3f3f3f3f
   145e2:	3f3f3f3f 3f3f3f3f 	.insn	8, 0x3f3f3f3f3f3f3f3f
   145ea:	3f3f3f3f 3f3f3f3f 	.insn	8, 0x3f3f3f3f3f3f3f3f
   145f2:	3f3f3f3f 3f3f3f3f 	.insn	8, 0x3f3f3f3f3f3f3f3f
   145fa:	3f3f3f3f 3f3f3f3f 	.insn	8, 0x3f3f3f3f3f3f3f3f
   14602:	3f3f3f3f 3f3f3f3f 	.insn	8, 0x3f3f3f3f3f3f3f3f
   1460a:	3f3f3f3f 3f3f3f3f 	.insn	8, 0x3f3f3f3f3f3f3f3f
   14612:	3f3f3f3f 3f3f3f3f 	.insn	8, 0x3f3f3f3f3f3f3f3f
   1461a:	3f3f3f3f 3f3f3f3f 	.insn	8, 0x3f3f3f3f3f3f3f3f
   14622:	3f3f3f3f 3f3f3f3f 	.insn	8, 0x3f3f3f3f3f3f3f3f
   1462a:	3f3f3f3f 3f3f3f3f 	.insn	8, 0x3f3f3f3f3f3f3f3f
   14632:	3f3f3f3f 3f3f3f3f 	.insn	8, 0x3f3f3f3f3f3f3f3f
   1463a:	3f3f3f3f 3f3f3f3f 	.insn	8, 0x3f3f3f3f3f3f3f3f
   14642:	3f3f3f3f 3f3f3f3f 	.insn	8, 0x3f3f3f3f3f3f3f3f
   1464a:	3f3f3f3f 3f3f3f3f 	.insn	8, 0x3f3f3f3f3f3f3f3f
   14652:	3f3f3f3f 3f3f3f3f 	.insn	8, 0x3f3f3f3f3f3f3f3f
   1465a:	3f3f3f3f 3f3f3f3f 	.insn	8, 0x3f3f3f3f3f3f3f3f
   14662:	3f3f3f3f 3f3f3f3f 	.insn	8, 0x3f3f3f3f3f3f3f3f
   1466a:	3f3f3f3f 3f3f3f3f 	.insn	8, 0x3f3f3f3f3f3f3f3f
   14672:	3f3f3f3f 3f3f3f3f 	.insn	8, 0x3f3f3f3f3f3f3f3f
   1467a:	3f3f3f3f 3f3f3f3f 	.insn	8, 0x3f3f3f3f3f3f3f3f
   14682:	3f3f3f3f 3f3f3f3f 	.insn	8, 0x3f3f3f3f3f3f3f3f
   1468a:	3f3f3f3f 3f3f3f3f 	.insn	8, 0x3f3f3f3f3f3f3f3f
   14692:	3f3f3f3f 3f3f3f3f 	.insn	8, 0x3f3f3f3f3f3f3f3f
   1469a:	3f3f3f3f 3f3f3f3f 	.insn	8, 0x3f3f3f3f3f3f3f3f
   146a2:	3f3f3f3f 3f3f3f3f 	.insn	8, 0x3f3f3f3f3f3f3f3f
   146aa:	3f3f3f3f 3f3f3f3f 	.insn	8, 0x3f3f3f3f3f3f3f3f
   146b2:	3f3f3f3f 3f3f3f3f 	.insn	8, 0x3f3f3f3f3f3f3f3f
   146ba:	3f3f3f3f 3f3f3f3f 	.insn	8, 0x3f3f3f3f3f3f3f3f
   146c2:	3f3f3f3f 3f3f3f3f 	.insn	8, 0x3f3f3f3f3f3f3f3f
   146ca:	3f3f3f3f 3f3f3f3f 	.insn	8, 0x3f3f3f3f3f3f3f3f
   146d2:	3f3f3f3f 3f3f3f3f 	.insn	8, 0x3f3f3f3f3f3f3f3f
   146da:	3f3f3f3f 3f3f3f3f 	.insn	8, 0x3f3f3f3f3f3f3f3f
   146e2:	3f3f3f3f 3f3f3f3f 	.insn	8, 0x3f3f3f3f3f3f3f3f
   146ea:	3f3f3f3f 3f3f3f3f 	.insn	8, 0x3f3f3f3f3f3f3f3f
   146f2:	3f3f3f3f 3f3f3f3f 	.insn	8, 0x3f3f3f3f3f3f3f3f
   146fa:	3f3f3f3f 3f3f3f3f 	.insn	8, 0x3f3f3f3f3f3f3f3f
   14702:	3f3f3f3f 3f3f3f3f 	.insn	8, 0x3f3f3f3f3f3f3f3f
   1470a:	3f3f3f3f 3f3f3f3f 	.insn	8, 0x3f3f3f3f3f3f3f3f
   14712:	3f3f3f3f 3f3f3f3f 	.insn	8, 0x3f3f3f3f3f3f3f3f
   1471a:	3f3f3f3f 3f3f3f3f 	.insn	8, 0x3f3f3f3f3f3f3f3f
   14722:	3f3f3f3f 3f3f3f3f 	.insn	8, 0x3f3f3f3f3f3f3f3f
   1472a:	3f3f3f3f 3f3f3f3f 	.insn	8, 0x3f3f3f3f3f3f3f3f
   14732:	3f3f3f3f 3f3f3f3f 	.insn	8, 0x3f3f3f3f3f3f3f3f
   1473a:	3f3f3f3f 3f3f3f3f 	.insn	8, 0x3f3f3f3f3f3f3f3f
   14742:	3f3f3f3f 3f3f3f3f 	.insn	8, 0x3f3f3f3f3f3f3f3f
   1474a:	3f3f3f3f 3f3f3f3f 	.insn	8, 0x3f3f3f3f3f3f3f3f
   14752:	3f3f3f3f 3f3f3f3f 	.insn	8, 0x3f3f3f3f3f3f3f3f
   1475a:	3f3f3f3f 3f3f3f3f 	.insn	8, 0x3f3f3f3f3f3f3f3f
   14762:	3f3f3f3f 3f3f3f3f 	.insn	8, 0x3f3f3f3f3f3f3f3f
   1476a:	3f3f3f3f 3f3f3f3f 	.insn	8, 0x3f3f3f3f3f3f3f3f
   14772:	3f3f3f3f 3f3f3f3f 	.insn	8, 0x3f3f3f3f3f3f3f3f
   1477a:	3f3f3f3f 3f3f3f3f 	.insn	8, 0x3f3f3f3f3f3f3f3f
   14782:	3f3f3f3f 3f3f3f3f 	.insn	8, 0x3f3f3f3f3f3f3f3f
   1478a:	3f3f3f3f 3f3f3f3f 	.insn	8, 0x3f3f3f3f3f3f3f3f
   14792:	3f3f3f3f 3f3f3f3f 	.insn	8, 0x3f3f3f3f3f3f3f3f
   1479a:	3f3f3f3f 3f3f3f3f 	.insn	8, 0x3f3f3f3f3f3f3f3f
   147a2:	3f3f3f3f 3f3f3f3f 	.insn	8, 0x3f3f3f3f3f3f3f3f
   147aa:	3f3f3f3f 3f3f3f3f 	.insn	8, 0x3f3f3f3f3f3f3f3f
   147b2:	3f3f3f3f 3f3f3f3f 	.insn	8, 0x3f3f3f3f3f3f3f3f
   147ba:	3f3f3f3f 3f3f3f3f 	.insn	8, 0x3f3f3f3f3f3f3f3f
   147c2:	3f3f3f3f 3f3f3f3f 	.insn	8, 0x3f3f3f3f3f3f3f3f
   147ca:	3f3f3f3f 3f3f3f3f 	.insn	8, 0x3f3f3f3f3f3f3f3f
   147d2:	3f3f3f3f 3f3f3f3f 	.insn	8, 0x3f3f3f3f3f3f3f3f
   147da:	3f3f3f3f 3f3f3f3f 	.insn	8, 0x3f3f3f3f3f3f3f3f
   147e2:	3f3f3f3f 3f3f3f3f 	.insn	8, 0x3f3f3f3f3f3f3f3f
   147ea:	3f3f3f3f 3f3f3f3f 	.insn	8, 0x3f3f3f3f3f3f3f3f
   147f2:	3f3f3f3f 3f3f3f3f 	.insn	8, 0x3f3f3f3f3f3f3f3f
   147fa:	3f3f3f3f 3f3f3f3f 	.insn	8, 0x3f3f3f3f3f3f3f3f
   14802:	3f3f3f3f 3f3f3f3f 	.insn	8, 0x3f3f3f3f3f3f3f3f
   1480a:	3f3f3f3f 3f3f3f3f 	.insn	8, 0x3f3f3f3f3f3f3f3f
   14812:	3f3f3f3f 3f3f3f3f 	.insn	8, 0x3f3f3f3f3f3f3f3f
   1481a:	3f3f3f3f 3f3f3f3f 	.insn	8, 0x3f3f3f3f3f3f3f3f
   14822:	3f3f3f3f 3f3f3f3f 	.insn	8, 0x3f3f3f3f3f3f3f3f
   1482a:	3f3f3f3f 3f3f3f3f 	.insn	8, 0x3f3f3f3f3f3f3f3f
   14832:	3f3f3f3f 3f3f3f3f 	.insn	8, 0x3f3f3f3f3f3f3f3f
   1483a:	3f3f3f3f 3f3f3f3f 	.insn	8, 0x3f3f3f3f3f3f3f3f
   14842:	3f3f3f3f 3f3f3f3f 	.insn	8, 0x3f3f3f3f3f3f3f3f
   1484a:	3f3f3f3f 3f3f3f3f 	.insn	8, 0x3f3f3f3f3f3f3f3f
   14852:	3f3f3f3f 3f3f3f3f 	.insn	8, 0x3f3f3f3f3f3f3f3f
   1485a:	3f3f3f3f 3f3f3f3f 	.insn	8, 0x3f3f3f3f3f3f3f3f
   14862:	3f3f3f3f 3f3f3f3f 	.insn	8, 0x3f3f3f3f3f3f3f3f
   1486a:	3f3f3f3f 3f3f3f3f 	.insn	8, 0x3f3f3f3f3f3f3f3f
   14872:	3f3f3f3f 3f3f3f3f 	.insn	8, 0x3f3f3f3f3f3f3f3f
   1487a:	3f3f3f3f 3f3f3f3f 	.insn	8, 0x3f3f3f3f3f3f3f3f
   14882:	3f3f3f3f 3f3f3f3f 	.insn	8, 0x3f3f3f3f3f3f3f3f
   1488a:	3f3f3f3f 3f3f3f3f 	.insn	8, 0x3f3f3f3f3f3f3f3f
   14892:	3f3f3f3f 3f3f3f3f 	.insn	8, 0x3f3f3f3f3f3f3f3f
   1489a:	3f3f3f3f 3f3f3f3f 	.insn	8, 0x3f3f3f3f3f3f3f3f
   148a2:	3f3f3f3f 3f3f3f3f 	.insn	8, 0x3f3f3f3f3f3f3f3f
   148aa:	3f3f3f3f 3f3f3f3f 	.insn	8, 0x3f3f3f3f3f3f3f3f
   148b2:	3f3f3f3f 3f3f3f3f 	.insn	8, 0x3f3f3f3f3f3f3f3f
   148ba:	3f3f3f3f 3f3f3f3f 	.insn	8, 0x3f3f3f3f3f3f3f3f
   148c2:	3f3f3f3f 3f3f3f3f 	.insn	8, 0x3f3f3f3f3f3f3f3f
   148ca:	3f3f3f3f 3f3f3f3f 	.insn	8, 0x3f3f3f3f3f3f3f3f
   148d2:	3f3f3f3f 3f3f3f3f 	.insn	8, 0x3f3f3f3f3f3f3f3f
   148da:	3f3f3f3f 3f3f3f3f 	.insn	8, 0x3f3f3f3f3f3f3f3f
   148e2:	3f3f3f3f 3f3f3f3f 	.insn	8, 0x3f3f3f3f3f3f3f3f
   148ea:	3f3f3f3f 3f3f3f3f 	.insn	8, 0x3f3f3f3f3f3f3f3f
   148f2:	3f3f3f3f 3f3f3f3f 	.insn	8, 0x3f3f3f3f3f3f3f3f
   148fa:	3f3f3f3f 3f3f3f3f 	.insn	8, 0x3f3f3f3f3f3f3f3f
   14902:	3f3f3f3f 3f3f3f3f 	.insn	8, 0x3f3f3f3f3f3f3f3f
   1490a:	3f3f3f3f 3f3f3f3f 	.insn	8, 0x3f3f3f3f3f3f3f3f
   14912:	3f3f3f3f 3f3f3f3f 	.insn	8, 0x3f3f3f3f3f3f3f3f
   1491a:	3f3f3f3f 3f3f3f3f 	.insn	8, 0x3f3f3f3f3f3f3f3f
   14922:	3f3f3f3f 3f3f3f3f 	.insn	8, 0x3f3f3f3f3f3f3f3f
   1492a:	3f3f3f3f 3f3f3f3f 	.insn	8, 0x3f3f3f3f3f3f3f3f
   14932:	3f3f3f3f 3f3f3f3f 	.insn	8, 0x3f3f3f3f3f3f3f3f
   1493a:	3f3f3f3f 3f3f3f3f 	.insn	8, 0x3f3f3f3f3f3f3f3f
   14942:	3f3f3f3f 3f3f3f3f 	.insn	8, 0x3f3f3f3f3f3f3f3f
   1494a:	3f3f3f3f 3f3f3f3f 	.insn	8, 0x3f3f3f3f3f3f3f3f
   14952:	3f3f3f3f 3f3f3f3f 	.insn	8, 0x3f3f3f3f3f3f3f3f
   1495a:	3f3f3f3f 3f3f3f3f 	.insn	8, 0x3f3f3f3f3f3f3f3f
   14962:	3f3f3f3f 3f3f3f3f 	.insn	8, 0x3f3f3f3f3f3f3f3f
   1496a:	3f3f3f3f 3f3f3f3f 	.insn	8, 0x3f3f3f3f3f3f3f3f
   14972:	3f3f3f3f 3f3f3f3f 	.insn	8, 0x3f3f3f3f3f3f3f3f
   1497a:	3f3f3f3f 3f3f3f3f 	.insn	8, 0x3f3f3f3f3f3f3f3f
   14982:	3f3f3f3f 3f3f3f3f 	.insn	8, 0x3f3f3f3f3f3f3f3f
   1498a:	3f3f3f3f 3f3f3f3f 	.insn	8, 0x3f3f3f3f3f3f3f3f
   14992:	3f3f3f3f 3f3f3f3f 	.insn	8, 0x3f3f3f3f3f3f3f3f
   1499a:	3f3f3f3f 3f3f3f3f 	.insn	8, 0x3f3f3f3f3f3f3f3f
   149a2:	3f3f3f3f 3f3f3f3f 	.insn	8, 0x3f3f3f3f3f3f3f3f
   149aa:	3f3f3f3f 3f3f3f3f 	.insn	8, 0x3f3f3f3f3f3f3f3f
   149b2:	3f3f3f3f 3f3f3f3f 	.insn	8, 0x3f3f3f3f3f3f3f3f
   149ba:	3f3f3f3f 3f3f3f3f 	.insn	8, 0x3f3f3f3f3f3f3f3f
   149c2:	3f3f3f3f 3f3f3f3f 	.insn	8, 0x3f3f3f3f3f3f3f3f
   149ca:	3f3f3f3f 3f3f3f3f 	.insn	8, 0x3f3f3f3f3f3f3f3f
   149d2:	3f3f3f3f 3f3f3f3f 	.insn	8, 0x3f3f3f3f3f3f3f3f
   149da:	3f3f3f3f 3f3f3f3f 	.insn	8, 0x3f3f3f3f3f3f3f3f
   149e2:	3f3f3f3f 3f3f3f3f 	.insn	8, 0x3f3f3f3f3f3f3f3f
   149ea:	3f3f3f3f 3f3f3f3f 	.insn	8, 0x3f3f3f3f3f3f3f3f
   149f2:	3f3f3f3f 3f3f3f3f 	.insn	8, 0x3f3f3f3f3f3f3f3f
   149fa:	3f3f3f3f 3f3f3f3f 	.insn	8, 0x3f3f3f3f3f3f3f3f
   14a02:	3f3f3f3f 3f3f3f3f 	.insn	8, 0x3f3f3f3f3f3f3f3f
   14a0a:	3f3f3f3f 3f3f3f3f 	.insn	8, 0x3f3f3f3f3f3f3f3f
   14a12:	3f3f3f3f 3f3f3f3f 	.insn	8, 0x3f3f3f3f3f3f3f3f
   14a1a:	3f3f3f3f 3f3f3f3f 	.insn	8, 0x3f3f3f3f3f3f3f3f
   14a22:	3f3f3f3f 3f3f3f3f 	.insn	8, 0x3f3f3f3f3f3f3f3f
   14a2a:	3f3f3f3f 3f3f3f3f 	.insn	8, 0x3f3f3f3f3f3f3f3f
   14a32:	3f3f3f3f 3f3f3f3f 	.insn	8, 0x3f3f3f3f3f3f3f3f
   14a3a:	3f3f3f3f 3f3f3f3f 	.insn	8, 0x3f3f3f3f3f3f3f3f
   14a42:	3f3f3f3f 3f3f3f3f 	.insn	8, 0x3f3f3f3f3f3f3f3f
   14a4a:	3f3f3f3f 3f3f3f3f 	.insn	8, 0x3f3f3f3f3f3f3f3f
   14a52:	3f3f3f3f 3f3f3f3f 	.insn	8, 0x3f3f3f3f3f3f3f3f
   14a5a:	3f3f3f3f 3f3f3f3f 	.insn	8, 0x3f3f3f3f3f3f3f3f
   14a62:	3f3f3f3f 3f3f3f3f 	.insn	8, 0x3f3f3f3f3f3f3f3f
   14a6a:	3f3f3f3f 3f3f3f3f 	.insn	8, 0x3f3f3f3f3f3f3f3f
   14a72:	3f3f3f3f 3f3f3f3f 	.insn	8, 0x3f3f3f3f3f3f3f3f
   14a7a:	3f3f3f3f 3f3f3f3f 	.insn	8, 0x3f3f3f3f3f3f3f3f
   14a82:	3f3f3f3f 3f3f3f3f 	.insn	8, 0x3f3f3f3f3f3f3f3f
   14a8a:	3f3f3f3f 3f3f3f3f 	.insn	8, 0x3f3f3f3f3f3f3f3f
   14a92:	3f3f3f3f 3f3f3f3f 	.insn	8, 0x3f3f3f3f3f3f3f3f
   14a9a:	3f3f3f3f 3f3f3f3f 	.insn	8, 0x3f3f3f3f3f3f3f3f
   14aa2:	3f3f3f3f 3f3f3f3f 	.insn	8, 0x3f3f3f3f3f3f3f3f
   14aaa:	3f3f3f3f 3f3f3f3f 	.insn	8, 0x3f3f3f3f3f3f3f3f
   14ab2:	3f3f3f3f 3f3f3f3f 	.insn	8, 0x3f3f3f3f3f3f3f3f
   14aba:	3f3f3f3f 3f3f3f3f 	.insn	8, 0x3f3f3f3f3f3f3f3f
   14ac2:	3f3f3f3f 3f3f3f3f 	.insn	8, 0x3f3f3f3f3f3f3f3f
   14aca:	3f3f3f3f 3f3f3f3f 	.insn	8, 0x3f3f3f3f3f3f3f3f
   14ad2:	3f3f3f3f 3f3f3f3f 	.insn	8, 0x3f3f3f3f3f3f3f3f
   14ada:	3f3f3f3f 3f3f3f3f 	.insn	8, 0x3f3f3f3f3f3f3f3f
   14ae2:	3f3f3f3f 3f3f3f3f 	.insn	8, 0x3f3f3f3f3f3f3f3f
   14aea:	3f3f3f3f 3f3f3f3f 	.insn	8, 0x3f3f3f3f3f3f3f3f
   14af2:	3f3f3f3f 3f3f3f3f 	.insn	8, 0x3f3f3f3f3f3f3f3f
   14afa:	3f3f3f3f 3f3f3f3f 	.insn	8, 0x3f3f3f3f3f3f3f3f
   14b02:	3f3f3f3f 3f3f3f3f 	.insn	8, 0x3f3f3f3f3f3f3f3f
   14b0a:	3f3f3f3f 3f3f3f3f 	.insn	8, 0x3f3f3f3f3f3f3f3f
   14b12:	3f3f3f3f 3f3f3f3f 	.insn	8, 0x3f3f3f3f3f3f3f3f
   14b1a:	3f3f3f3f 3f3f3f3f 	.insn	8, 0x3f3f3f3f3f3f3f3f
   14b22:	3f3f3f3f 3f3f3f3f 	.insn	8, 0x3f3f3f3f3f3f3f3f
   14b2a:	3f3f3f3f 3f3f3f3f 	.insn	8, 0x3f3f3f3f3f3f3f3f
   14b32:	3f3f3f3f 3f3f3f3f 	.insn	8, 0x3f3f3f3f3f3f3f3f
   14b3a:	3f3f3f3f 3f3f3f3f 	.insn	8, 0x3f3f3f3f3f3f3f3f
   14b42:	3f3f3f3f 3f3f3f3f 	.insn	8, 0x3f3f3f3f3f3f3f3f
   14b4a:	3f3f3f3f 3f3f3f3f 	.insn	8, 0x3f3f3f3f3f3f3f3f
   14b52:	3f3f3f3f 3f3f3f3f 	.insn	8, 0x3f3f3f3f3f3f3f3f
   14b5a:	3f3f3f3f 3f3f3f3f 	.insn	8, 0x3f3f3f3f3f3f3f3f
   14b62:	3f3f3f3f 3f3f3f3f 	.insn	8, 0x3f3f3f3f3f3f3f3f
   14b6a:	3f3f3f3f 3f3f3f3f 	.insn	8, 0x3f3f3f3f3f3f3f3f
   14b72:	3f3f3f3f 3f3f3f3f 	.insn	8, 0x3f3f3f3f3f3f3f3f
   14b7a:	3f3f3f3f 3f3f3f3f 	.insn	8, 0x3f3f3f3f3f3f3f3f
   14b82:	3f3f3f3f 3f3f3f3f 	.insn	8, 0x3f3f3f3f3f3f3f3f
   14b8a:	3f3f3f3f 3f3f3f3f 	.insn	8, 0x3f3f3f3f3f3f3f3f
   14b92:	3f3f3f3f 3f3f3f3f 	.insn	8, 0x3f3f3f3f3f3f3f3f
   14b9a:	3f3f3f3f 3f3f3f3f 	.insn	8, 0x3f3f3f3f3f3f3f3f
   14ba2:	3f3f3f3f 3f3f3f3f 	.insn	8, 0x3f3f3f3f3f3f3f3f
   14baa:	3f3f3f3f 3f3f3f3f 	.insn	8, 0x3f3f3f3f3f3f3f3f
   14bb2:	3f3f3f3f 3f3f3f3f 	.insn	8, 0x3f3f3f3f3f3f3f3f
   14bba:	3f3f3f3f 3f3f3f3f 	.insn	8, 0x3f3f3f3f3f3f3f3f
   14bc2:	3f3f3f3f 3f3f3f3f 	.insn	8, 0x3f3f3f3f3f3f3f3f
   14bca:	3f3f3f3f 3f3f3f3f 	.insn	8, 0x3f3f3f3f3f3f3f3f
   14bd2:	3f3f3f3f 3f3f3f3f 	.insn	8, 0x3f3f3f3f3f3f3f3f
   14bda:	3f3f3f3f 3f3f3f3f 	.insn	8, 0x3f3f3f3f3f3f3f3f
   14be2:	3f3f3f3f 3f3f3f3f 	.insn	8, 0x3f3f3f3f3f3f3f3f
   14bea:	3f3f3f3f 3f3f3f3f 	.insn	8, 0x3f3f3f3f3f3f3f3f
   14bf2:	3f3f3f3f 3f3f3f3f 	.insn	8, 0x3f3f3f3f3f3f3f3f
   14bfa:	3f3f3f3f 3f3f3f3f 	.insn	8, 0x3f3f3f3f3f3f3f3f
   14c02:	3f3f3f3f 3f3f3f3f 	.insn	8, 0x3f3f3f3f3f3f3f3f
   14c0a:	3f3f3f3f 3f3f3f3f 	.insn	8, 0x3f3f3f3f3f3f3f3f
   14c12:	3f3f3f3f 3f3f3f3f 	.insn	8, 0x3f3f3f3f3f3f3f3f
   14c1a:	3f3f3f3f 3f3f3f3f 	.insn	8, 0x3f3f3f3f3f3f3f3f
   14c22:	3f3f3f3f 3f3f3f3f 	.insn	8, 0x3f3f3f3f3f3f3f3f
   14c2a:	3f3f3f3f 3f3f3f3f 	.insn	8, 0x3f3f3f3f3f3f3f3f
   14c32:	3f3f3f3f 3f3f3f3f 	.insn	8, 0x3f3f3f3f3f3f3f3f
   14c3a:	3f3f3f3f 3f3f3f3f 	.insn	8, 0x3f3f3f3f3f3f3f3f
   14c42:	3f3f3f3f 3f3f3f3f 	.insn	8, 0x3f3f3f3f3f3f3f3f
   14c4a:	3f3f3f3f 3f3f3f3f 	.insn	8, 0x3f3f3f3f3f3f3f3f
   14c52:	3f3f3f3f 3f3f3f3f 	.insn	8, 0x3f3f3f3f3f3f3f3f
   14c5a:	3f3f3f3f 3f3f3f3f 	.insn	8, 0x3f3f3f3f3f3f3f3f
   14c62:	3f3f3f3f 3f3f3f3f 	.insn	8, 0x3f3f3f3f3f3f3f3f
   14c6a:	3f3f3f3f 3f3f3f3f 	.insn	8, 0x3f3f3f3f3f3f3f3f
   14c72:	3f3f3f3f 3f3f3f3f 	.insn	8, 0x3f3f3f3f3f3f3f3f
   14c7a:	3f3f3f3f 3f3f3f3f 	.insn	8, 0x3f3f3f3f3f3f3f3f
   14c82:	3f3f3f3f 3f3f3f3f 	.insn	8, 0x3f3f3f3f3f3f3f3f
   14c8a:	3f3f3f3f 3f3f3f3f 	.insn	8, 0x3f3f3f3f3f3f3f3f
   14c92:	3f3f3f3f 3f3f3f3f 	.insn	8, 0x3f3f3f3f3f3f3f3f
   14c9a:	3f3f3f3f 3f3f3f3f 	.insn	8, 0x3f3f3f3f3f3f3f3f
   14ca2:	3f3f3f3f 3f3f3f3f 	.insn	8, 0x3f3f3f3f3f3f3f3f
   14caa:	3f3f3f3f 3f3f3f3f 	.insn	8, 0x3f3f3f3f3f3f3f3f
   14cb2:	3f3f3f3f 3f3f3f3f 	.insn	8, 0x3f3f3f3f3f3f3f3f
   14cba:	3f3f3f3f 3f3f3f3f 	.insn	8, 0x3f3f3f3f3f3f3f3f
   14cc2:	3f3f3f3f 3f3f3f3f 	.insn	8, 0x3f3f3f3f3f3f3f3f
   14cca:	3f3f3f3f 3f3f3f3f 	.insn	8, 0x3f3f3f3f3f3f3f3f
   14cd2:	3f3f3f3f 3f3f3f3f 	.insn	8, 0x3f3f3f3f3f3f3f3f
   14cda:	3f3f3f3f 3f3f3f3f 	.insn	8, 0x3f3f3f3f3f3f3f3f
   14ce2:	3f3f3f3f 3f3f3f3f 	.insn	8, 0x3f3f3f3f3f3f3f3f
   14cea:	3f3f3f3f 3f3f3f3f 	.insn	8, 0x3f3f3f3f3f3f3f3f
   14cf2:	3f3f3f3f 3f3f3f3f 	.insn	8, 0x3f3f3f3f3f3f3f3f
   14cfa:	3f3f3f3f 3f3f3f3f 	.insn	8, 0x3f3f3f3f3f3f3f3f
   14d02:	3f3f3f3f 3f3f3f3f 	.insn	8, 0x3f3f3f3f3f3f3f3f
   14d0a:	3f3f3f3f 3f3f3f3f 	.insn	8, 0x3f3f3f3f3f3f3f3f
   14d12:	3f3f3f3f 3f3f3f3f 	.insn	8, 0x3f3f3f3f3f3f3f3f
   14d1a:	3f3f3f3f 3f3f3f3f 	.insn	8, 0x3f3f3f3f3f3f3f3f
   14d22:	3f3f3f3f 3f3f3f3f 	.insn	8, 0x3f3f3f3f3f3f3f3f
   14d2a:	3f3f3f3f 3f3f3f3f 	.insn	8, 0x3f3f3f3f3f3f3f3f
   14d32:	3f3f3f3f 3f3f3f3f 	.insn	8, 0x3f3f3f3f3f3f3f3f
   14d3a:	3f3f3f3f 3f3f3f3f 	.insn	8, 0x3f3f3f3f3f3f3f3f
   14d42:	3f3f3f3f 3f3f3f3f 	.insn	8, 0x3f3f3f3f3f3f3f3f
   14d4a:	3f3f3f3f 3f3f3f3f 	.insn	8, 0x3f3f3f3f3f3f3f3f
   14d52:	3f3f3f3f 3f3f3f3f 	.insn	8, 0x3f3f3f3f3f3f3f3f
   14d5a:	3f3f3f3f 3f3f3f3f 	.insn	8, 0x3f3f3f3f3f3f3f3f
   14d62:	3f3f3f3f 3f3f3f3f 	.insn	8, 0x3f3f3f3f3f3f3f3f
   14d6a:	3f3f3f3f 3f3f3f3f 	.insn	8, 0x3f3f3f3f3f3f3f3f
   14d72:	3f3f3f3f 3f3f3f3f 	.insn	8, 0x3f3f3f3f3f3f3f3f
   14d7a:	3f3f3f3f 3f3f3f3f 	.insn	8, 0x3f3f3f3f3f3f3f3f
   14d82:	3f3f3f3f 3f3f3f3f 	.insn	8, 0x3f3f3f3f3f3f3f3f
   14d8a:	3f3f3f3f 3f3f3f3f 	.insn	8, 0x3f3f3f3f3f3f3f3f
   14d92:	3f3f3f3f 3f3f3f3f 	.insn	8, 0x3f3f3f3f3f3f3f3f
   14d9a:	3f3f3f3f 3f3f3f3f 	.insn	8, 0x3f3f3f3f3f3f3f3f
   14da2:	3f3f3f3f 3f3f3f3f 	.insn	8, 0x3f3f3f3f3f3f3f3f
   14daa:	3f3f3f3f 3f3f3f3f 	.insn	8, 0x3f3f3f3f3f3f3f3f
   14db2:	3f3f3f3f 3f3f3f3f 	.insn	8, 0x3f3f3f3f3f3f3f3f
   14dba:	3f3f3f3f 3f3f3f3f 	.insn	8, 0x3f3f3f3f3f3f3f3f
   14dc2:	3f3f3f3f 3f3f3f3f 	.insn	8, 0x3f3f3f3f3f3f3f3f
   14dca:	3f3f3f3f 3f3f3f3f 	.insn	8, 0x3f3f3f3f3f3f3f3f
   14dd2:	3f3f3f3f 3f3f3f3f 	.insn	8, 0x3f3f3f3f3f3f3f3f
   14dda:	3f3f3f3f 3f3f3f3f 	.insn	8, 0x3f3f3f3f3f3f3f3f
   14de2:	3f3f3f3f 3f3f3f3f 	.insn	8, 0x3f3f3f3f3f3f3f3f
   14dea:	3f3f3f3f 3f3f3f3f 	.insn	8, 0x3f3f3f3f3f3f3f3f
   14df2:	3f3f3f3f 3f3f3f3f 	.insn	8, 0x3f3f3f3f3f3f3f3f
   14dfa:	3f3f3f3f 3f3f3f3f 	.insn	8, 0x3f3f3f3f3f3f3f3f
   14e02:	3f3f3f3f 3f3f3f3f 	.insn	8, 0x3f3f3f3f3f3f3f3f
   14e0a:	3f3f3f3f 3f3f3f3f 	.insn	8, 0x3f3f3f3f3f3f3f3f
   14e12:	3f3f3f3f 3f3f3f3f 	.insn	8, 0x3f3f3f3f3f3f3f3f
   14e1a:	3f3f3f3f 3f3f3f3f 	.insn	8, 0x3f3f3f3f3f3f3f3f
   14e22:	3f3f3f3f 3f3f3f3f 	.insn	8, 0x3f3f3f3f3f3f3f3f
   14e2a:	3f3f3f3f 3f3f3f3f 	.insn	8, 0x3f3f3f3f3f3f3f3f
   14e32:	3f3f3f3f 3f3f3f3f 	.insn	8, 0x3f3f3f3f3f3f3f3f
   14e3a:	3f3f3f3f 3f3f3f3f 	.insn	8, 0x3f3f3f3f3f3f3f3f
   14e42:	3f3f3f3f 3f3f3f3f 	.insn	8, 0x3f3f3f3f3f3f3f3f
   14e4a:	3f3f3f3f 3f3f3f3f 	.insn	8, 0x3f3f3f3f3f3f3f3f
   14e52:	3f3f3f3f 3f3f3f3f 	.insn	8, 0x3f3f3f3f3f3f3f3f
   14e5a:	3f3f3f3f 3f3f3f3f 	.insn	8, 0x3f3f3f3f3f3f3f3f
   14e62:	3f3f3f3f 3f3f3f3f 	.insn	8, 0x3f3f3f3f3f3f3f3f
   14e6a:	3f3f3f3f 3f3f3f3f 	.insn	8, 0x3f3f3f3f3f3f3f3f
   14e72:	3f3f3f3f 3f3f3f3f 	.insn	8, 0x3f3f3f3f3f3f3f3f
   14e7a:	3f3f3f3f 3f3f3f3f 	.insn	8, 0x3f3f3f3f3f3f3f3f
   14e82:	3f3f3f3f 3f3f3f3f 	.insn	8, 0x3f3f3f3f3f3f3f3f
   14e8a:	3f3f3f3f 3f3f3f3f 	.insn	8, 0x3f3f3f3f3f3f3f3f
   14e92:	3f3f3f3f 3f3f3f3f 	.insn	8, 0x3f3f3f3f3f3f3f3f
   14e9a:	3f3f3f3f 3f3f3f3f 	.insn	8, 0x3f3f3f3f3f3f3f3f
   14ea2:	3f3f3f3f 3f3f3f3f 	.insn	8, 0x3f3f3f3f3f3f3f3f
   14eaa:	3f3f3f3f 3f3f3f3f 	.insn	8, 0x3f3f3f3f3f3f3f3f
   14eb2:	3f3f3f3f 3f3f3f3f 	.insn	8, 0x3f3f3f3f3f3f3f3f
   14eba:	3f3f3f3f 3f3f3f3f 	.insn	8, 0x3f3f3f3f3f3f3f3f
   14ec2:	3f3f3f3f 3f3f3f3f 	.insn	8, 0x3f3f3f3f3f3f3f3f
   14eca:	3f3f3f3f 3f3f3f3f 	.insn	8, 0x3f3f3f3f3f3f3f3f
   14ed2:	3f3f3f3f 3f3f3f3f 	.insn	8, 0x3f3f3f3f3f3f3f3f
   14eda:	3f3f3f3f 3f3f3f3f 	.insn	8, 0x3f3f3f3f3f3f3f3f
   14ee2:	3f3f3f3f 3f3f3f3f 	.insn	8, 0x3f3f3f3f3f3f3f3f
   14eea:	3f3f3f3f 3f3f3f3f 	.insn	8, 0x3f3f3f3f3f3f3f3f
   14ef2:	3f3f3f3f 3f3f3f3f 	.insn	8, 0x3f3f3f3f3f3f3f3f
   14efa:	3f3f3f3f 3f3f3f3f 	.insn	8, 0x3f3f3f3f3f3f3f3f
   14f02:	3f3f3f3f 3f3f3f3f 	.insn	8, 0x3f3f3f3f3f3f3f3f
   14f0a:	3f3f3f3f 3f3f3f3f 	.insn	8, 0x3f3f3f3f3f3f3f3f
   14f12:	3f3f3f3f 3f3f3f3f 	.insn	8, 0x3f3f3f3f3f3f3f3f
   14f1a:	3f3f3f3f 3f3f3f3f 	.insn	8, 0x3f3f3f3f3f3f3f3f
   14f22:	3f3f3f3f 3f3f3f3f 	.insn	8, 0x3f3f3f3f3f3f3f3f
   14f2a:	3f3f3f3f 3f3f3f3f 	.insn	8, 0x3f3f3f3f3f3f3f3f
   14f32:	3f3f3f3f 3f3f3f3f 	.insn	8, 0x3f3f3f3f3f3f3f3f
   14f3a:	3f3f3f3f 3f3f3f3f 	.insn	8, 0x3f3f3f3f3f3f3f3f
   14f42:	3f3f3f3f 3f3f3f3f 	.insn	8, 0x3f3f3f3f3f3f3f3f
   14f4a:	3f3f3f3f 3f3f3f3f 	.insn	8, 0x3f3f3f3f3f3f3f3f
   14f52:	3f3f3f3f 3f3f3f3f 	.insn	8, 0x3f3f3f3f3f3f3f3f
   14f5a:	3f3f3f3f 3f3f3f3f 	.insn	8, 0x3f3f3f3f3f3f3f3f
   14f62:	3f3f3f3f 3f3f3f3f 	.insn	8, 0x3f3f3f3f3f3f3f3f
   14f6a:	3f3f3f3f 3f3f3f3f 	.insn	8, 0x3f3f3f3f3f3f3f3f
   14f72:	3f3f3f3f 3f3f3f3f 	.insn	8, 0x3f3f3f3f3f3f3f3f
   14f7a:	3f3f3f3f 3f3f3f3f 	.insn	8, 0x3f3f3f3f3f3f3f3f
   14f82:	3f3f3f3f 3f3f3f3f 	.insn	8, 0x3f3f3f3f3f3f3f3f
   14f8a:	3f3f3f3f 3f3f3f3f 	.insn	8, 0x3f3f3f3f3f3f3f3f
   14f92:	3f3f3f3f 3f3f3f3f 	.insn	8, 0x3f3f3f3f3f3f3f3f
   14f9a:	3f3f3f3f 3f3f3f3f 	.insn	8, 0x3f3f3f3f3f3f3f3f
   14fa2:	3f3f3f3f 3f3f3f3f 	.insn	8, 0x3f3f3f3f3f3f3f3f
   14faa:	3f3f3f3f 3f3f3f3f 	.insn	8, 0x3f3f3f3f3f3f3f3f
   14fb2:	3f3f3f3f 3f3f3f3f 	.insn	8, 0x3f3f3f3f3f3f3f3f
   14fba:	3f3f3f3f 3f3f3f3f 	.insn	8, 0x3f3f3f3f3f3f3f3f
   14fc2:	3f3f3f3f 3f3f3f3f 	.insn	8, 0x3f3f3f3f3f3f3f3f
   14fca:	3f3f3f3f 3f3f3f3f 	.insn	8, 0x3f3f3f3f3f3f3f3f
   14fd2:	3f3f3f3f 3f3f3f3f 	.insn	8, 0x3f3f3f3f3f3f3f3f
   14fda:	3f3f3f3f 3f3f3f3f 	.insn	8, 0x3f3f3f3f3f3f3f3f
   14fe2:	3f3f3f3f 3f3f3f3f 	.insn	8, 0x3f3f3f3f3f3f3f3f
   14fea:	3f3f3f3f 3f3f3f3f 	.insn	8, 0x3f3f3f3f3f3f3f3f
   14ff2:	3f3f3f3f 3f3f3f3f 	.insn	8, 0x3f3f3f3f3f3f3f3f
   14ffa:	3f3f3f3f 3f3f3f3f 	.insn	8, 0x3f3f3f3f3f3f3f3f
   15002:	3f3f3f3f 3f3f3f3f 	.insn	8, 0x3f3f3f3f3f3f3f3f
   1500a:	3f3f3f3f 3f3f3f3f 	.insn	8, 0x3f3f3f3f3f3f3f3f
   15012:	3f3f3f3f 3f3f3f3f 	.insn	8, 0x3f3f3f3f3f3f3f3f
   1501a:	3f3f3f3f 3f3f3f3f 	.insn	8, 0x3f3f3f3f3f3f3f3f
   15022:	3f3f3f3f 3f3f3f3f 	.insn	8, 0x3f3f3f3f3f3f3f3f
   1502a:	3f3f3f3f 3f3f3f3f 	.insn	8, 0x3f3f3f3f3f3f3f3f
   15032:	3f3f3f3f 3f3f3f3f 	.insn	8, 0x3f3f3f3f3f3f3f3f
   1503a:	3f3f3f3f 3f3f3f3f 	.insn	8, 0x3f3f3f3f3f3f3f3f
   15042:	3f3f3f3f 3f3f3f3f 	.insn	8, 0x3f3f3f3f3f3f3f3f
   1504a:	3f3f3f3f 3f3f3f3f 	.insn	8, 0x3f3f3f3f3f3f3f3f
   15052:	3f3f3f3f 3f3f3f3f 	.insn	8, 0x3f3f3f3f3f3f3f3f
   1505a:	3f3f3f3f 3f3f3f3f 	.insn	8, 0x3f3f3f3f3f3f3f3f
   15062:	3f3f3f3f 3f3f3f3f 	.insn	8, 0x3f3f3f3f3f3f3f3f
   1506a:	3f3f3f3f 3f3f3f3f 	.insn	8, 0x3f3f3f3f3f3f3f3f
   15072:	3f3f3f3f 3f3f3f3f 	.insn	8, 0x3f3f3f3f3f3f3f3f
   1507a:	3f3f3f3f 3f3f3f3f 	.insn	8, 0x3f3f3f3f3f3f3f3f
   15082:	3f3f3f3f 3f3f3f3f 	.insn	8, 0x3f3f3f3f3f3f3f3f
   1508a:	3f3f3f3f 3f3f3f3f 	.insn	8, 0x3f3f3f3f3f3f3f3f
   15092:	3f3f3f3f 3f3f3f3f 	.insn	8, 0x3f3f3f3f3f3f3f3f
   1509a:	3f3f3f3f 3f3f3f3f 	.insn	8, 0x3f3f3f3f3f3f3f3f
   150a2:	3f3f3f3f 3f3f3f3f 	.insn	8, 0x3f3f3f3f3f3f3f3f
   150aa:	3f3f3f3f 3f3f3f3f 	.insn	8, 0x3f3f3f3f3f3f3f3f
   150b2:	3f3f3f3f 3f3f3f3f 	.insn	8, 0x3f3f3f3f3f3f3f3f
   150ba:	3f3f3f3f 3f3f3f3f 	.insn	8, 0x3f3f3f3f3f3f3f3f
   150c2:	3f3f3f3f 3f3f3f3f 	.insn	8, 0x3f3f3f3f3f3f3f3f
   150ca:	3f3f3f3f 3f3f3f3f 	.insn	8, 0x3f3f3f3f3f3f3f3f
   150d2:	3f3f3f3f 3f3f3f3f 	.insn	8, 0x3f3f3f3f3f3f3f3f
   150da:	3f3f3f3f 3f3f3f3f 	.insn	8, 0x3f3f3f3f3f3f3f3f
   150e2:	3f3f3f3f 3f3f3f3f 	.insn	8, 0x3f3f3f3f3f3f3f3f
   150ea:	3f3f3f3f 3f3f3f3f 	.insn	8, 0x3f3f3f3f3f3f3f3f
   150f2:	3f3f3f3f 3f3f3f3f 	.insn	8, 0x3f3f3f3f3f3f3f3f
   150fa:	3f3f3f3f 3f3f3f3f 	.insn	8, 0x3f3f3f3f3f3f3f3f
   15102:	3f3f3f3f 3f3f3f3f 	.insn	8, 0x3f3f3f3f3f3f3f3f
   1510a:	3f3f3f3f 3f3f3f3f 	.insn	8, 0x3f3f3f3f3f3f3f3f
   15112:	3f3f3f3f 3f3f3f3f 	.insn	8, 0x3f3f3f3f3f3f3f3f
   1511a:	3f3f3f3f 3f3f3f3f 	.insn	8, 0x3f3f3f3f3f3f3f3f
   15122:	3f3f3f3f 3f3f3f3f 	.insn	8, 0x3f3f3f3f3f3f3f3f
   1512a:	3f3f3f3f 3f3f3f3f 	.insn	8, 0x3f3f3f3f3f3f3f3f
   15132:	3f3f3f3f 3f3f3f3f 	.insn	8, 0x3f3f3f3f3f3f3f3f
   1513a:	3f3f3f3f 3f3f3f3f 	.insn	8, 0x3f3f3f3f3f3f3f3f
   15142:	3f3f3f3f 3f3f3f3f 	.insn	8, 0x3f3f3f3f3f3f3f3f
   1514a:	3f3f3f3f 3f3f3f3f 	.insn	8, 0x3f3f3f3f3f3f3f3f
   15152:	3f3f3f3f 3f3f3f3f 	.insn	8, 0x3f3f3f3f3f3f3f3f
   1515a:	3f3f3f3f 3f3f3f3f 	.insn	8, 0x3f3f3f3f3f3f3f3f
   15162:	3f3f3f3f 3f3f3f3f 	.insn	8, 0x3f3f3f3f3f3f3f3f
   1516a:	3f3f3f3f 3f3f3f3f 	.insn	8, 0x3f3f3f3f3f3f3f3f
   15172:	3f3f3f3f 3f3f3f3f 	.insn	8, 0x3f3f3f3f3f3f3f3f
   1517a:	3f3f3f3f 3f3f3f3f 	.insn	8, 0x3f3f3f3f3f3f3f3f
   15182:	3f3f3f3f 3f3f3f3f 	.insn	8, 0x3f3f3f3f3f3f3f3f
   1518a:	3f3f3f3f 3f3f3f3f 	.insn	8, 0x3f3f3f3f3f3f3f3f
   15192:	3f3f3f3f 3f3f3f3f 	.insn	8, 0x3f3f3f3f3f3f3f3f
   1519a:	3f3f3f3f 3f3f3f3f 	.insn	8, 0x3f3f3f3f3f3f3f3f
   151a2:	3f3f3f3f 3f3f3f3f 	.insn	8, 0x3f3f3f3f3f3f3f3f
   151aa:	3f3f3f3f 3f3f3f3f 	.insn	8, 0x3f3f3f3f3f3f3f3f
   151b2:	3f3f3f3f 3f3f3f3f 	.insn	8, 0x3f3f3f3f3f3f3f3f
   151ba:	3f3f3f3f 3f3f3f3f 	.insn	8, 0x3f3f3f3f3f3f3f3f
   151c2:	3f3f3f3f 3f3f3f3f 	.insn	8, 0x3f3f3f3f3f3f3f3f
   151ca:	3f3f3f3f 3f3f3f3f 	.insn	8, 0x3f3f3f3f3f3f3f3f
   151d2:	3f3f3f3f 3f3f3f3f 	.insn	8, 0x3f3f3f3f3f3f3f3f
   151da:	3f3f3f3f 3f3f3f3f 	.insn	8, 0x3f3f3f3f3f3f3f3f
   151e2:	3f3f3f3f 3f3f3f3f 	.insn	8, 0x3f3f3f3f3f3f3f3f
   151ea:	3f3f3f3f 3f3f3f3f 	.insn	8, 0x3f3f3f3f3f3f3f3f
   151f2:	3f3f3f3f 3f3f3f3f 	.insn	8, 0x3f3f3f3f3f3f3f3f
   151fa:	3f3f3f3f 3f3f3f3f 	.insn	8, 0x3f3f3f3f3f3f3f3f
   15202:	3f3f3f3f 3f3f3f3f 	.insn	8, 0x3f3f3f3f3f3f3f3f
   1520a:	3f3f3f3f 3f3f3f3f 	.insn	8, 0x3f3f3f3f3f3f3f3f
   15212:	3f3f3f3f 3f3f3f3f 	.insn	8, 0x3f3f3f3f3f3f3f3f
   1521a:	3f3f3f3f 3f3f3f3f 	.insn	8, 0x3f3f3f3f3f3f3f3f
   15222:	3f3f3f3f 3f3f3f3f 	.insn	8, 0x3f3f3f3f3f3f3f3f
   1522a:	3f3f3f3f 3f3f3f3f 	.insn	8, 0x3f3f3f3f3f3f3f3f
   15232:	3f3f3f3f 3f3f3f3f 	.insn	8, 0x3f3f3f3f3f3f3f3f
   1523a:	3f3f3f3f 3f3f3f3f 	.insn	8, 0x3f3f3f3f3f3f3f3f
   15242:	3f3f3f3f 3f3f3f3f 	.insn	8, 0x3f3f3f3f3f3f3f3f
   1524a:	3f3f3f3f 3f3f3f3f 	.insn	8, 0x3f3f3f3f3f3f3f3f
   15252:	3f3f3f3f 3f3f3f3f 	.insn	8, 0x3f3f3f3f3f3f3f3f
   1525a:	3f3f3f3f 3f3f3f3f 	.insn	8, 0x3f3f3f3f3f3f3f3f
   15262:	3f3f3f3f 3f3f3f3f 	.insn	8, 0x3f3f3f3f3f3f3f3f
   1526a:	3f3f3f3f 3f3f3f3f 	.insn	8, 0x3f3f3f3f3f3f3f3f
   15272:	3f3f3f3f 3f3f3f3f 	.insn	8, 0x3f3f3f3f3f3f3f3f
   1527a:	3f3f3f3f 3f3f3f3f 	.insn	8, 0x3f3f3f3f3f3f3f3f
   15282:	3f3f3f3f 3f3f3f3f 	.insn	8, 0x3f3f3f3f3f3f3f3f
   1528a:	3f3f3f3f 3f3f3f3f 	.insn	8, 0x3f3f3f3f3f3f3f3f
   15292:	3f3f3f3f 3f3f3f3f 	.insn	8, 0x3f3f3f3f3f3f3f3f
   1529a:	3f3f3f3f 3f3f3f3f 	.insn	8, 0x3f3f3f3f3f3f3f3f
   152a2:	3f3f3f3f 3f3f3f3f 	.insn	8, 0x3f3f3f3f3f3f3f3f
   152aa:	3f3f3f3f 3f3f3f3f 	.insn	8, 0x3f3f3f3f3f3f3f3f
   152b2:	3f3f3f3f 3f3f3f3f 	.insn	8, 0x3f3f3f3f3f3f3f3f
   152ba:	3f3f3f3f 3f3f3f3f 	.insn	8, 0x3f3f3f3f3f3f3f3f
   152c2:	3f3f3f3f 3f3f3f3f 	.insn	8, 0x3f3f3f3f3f3f3f3f
   152ca:	3f3f3f3f 3f3f3f3f 	.insn	8, 0x3f3f3f3f3f3f3f3f
   152d2:	3f3f3f3f 3f3f3f3f 	.insn	8, 0x3f3f3f3f3f3f3f3f
   152da:	3f3f3f3f 3f3f3f3f 	.insn	8, 0x3f3f3f3f3f3f3f3f
   152e2:	3f3f3f3f 3f3f3f3f 	.insn	8, 0x3f3f3f3f3f3f3f3f
   152ea:	3f3f3f3f 3f3f3f3f 	.insn	8, 0x3f3f3f3f3f3f3f3f
   152f2:	3f3f3f3f 3f3f3f3f 	.insn	8, 0x3f3f3f3f3f3f3f3f
   152fa:	3f3f3f3f 3f3f3f3f 	.insn	8, 0x3f3f3f3f3f3f3f3f
   15302:	3f3f3f3f 3f3f3f3f 	.insn	8, 0x3f3f3f3f3f3f3f3f
   1530a:	3f3f3f3f 3f3f3f3f 	.insn	8, 0x3f3f3f3f3f3f3f3f
   15312:	3f3f3f3f 3f3f3f3f 	.insn	8, 0x3f3f3f3f3f3f3f3f
   1531a:	3f3f3f3f 3f3f3f3f 	.insn	8, 0x3f3f3f3f3f3f3f3f
   15322:	3f3f3f3f 3f3f3f3f 	.insn	8, 0x3f3f3f3f3f3f3f3f
   1532a:	3f3f3f3f 3f3f3f3f 	.insn	8, 0x3f3f3f3f3f3f3f3f
   15332:	3f3f3f3f 3f3f3f3f 	.insn	8, 0x3f3f3f3f3f3f3f3f
   1533a:	3f3f3f3f 3f3f3f3f 	.insn	8, 0x3f3f3f3f3f3f3f3f
   15342:	3f3f3f3f 3f3f3f3f 	.insn	8, 0x3f3f3f3f3f3f3f3f
   1534a:	3f3f3f3f 3f3f3f3f 	.insn	8, 0x3f3f3f3f3f3f3f3f
   15352:	3f3f3f3f 3f3f3f3f 	.insn	8, 0x3f3f3f3f3f3f3f3f
   1535a:	3f3f3f3f 3f3f3f3f 	.insn	8, 0x3f3f3f3f3f3f3f3f
   15362:	3f3f3f3f 3f3f3f3f 	.insn	8, 0x3f3f3f3f3f3f3f3f
   1536a:	3f3f3f3f 3f3f3f3f 	.insn	8, 0x3f3f3f3f3f3f3f3f
   15372:	3f3f3f3f 3f3f3f3f 	.insn	8, 0x3f3f3f3f3f3f3f3f
   1537a:	3f3f3f3f 3f3f3f3f 	.insn	8, 0x3f3f3f3f3f3f3f3f
   15382:	3f3f3f3f 3f3f3f3f 	.insn	8, 0x3f3f3f3f3f3f3f3f
   1538a:	3f3f3f3f 3f3f3f3f 	.insn	8, 0x3f3f3f3f3f3f3f3f
   15392:	3f3f3f3f 3f3f3f3f 	.insn	8, 0x3f3f3f3f3f3f3f3f
   1539a:	3f3f3f3f 3f3f3f3f 	.insn	8, 0x3f3f3f3f3f3f3f3f
   153a2:	3f3f3f3f 3f3f3f3f 	.insn	8, 0x3f3f3f3f3f3f3f3f
   153aa:	3f3f3f3f 3f3f3f3f 	.insn	8, 0x3f3f3f3f3f3f3f3f
   153b2:	3f3f3f3f 3f3f3f3f 	.insn	8, 0x3f3f3f3f3f3f3f3f
   153ba:	3f3f3f3f 3f3f3f3f 	.insn	8, 0x3f3f3f3f3f3f3f3f
   153c2:	3f3f3f3f 3f3f3f3f 	.insn	8, 0x3f3f3f3f3f3f3f3f
   153ca:	3f3f3f3f 3f3f3f3f 	.insn	8, 0x3f3f3f3f3f3f3f3f
   153d2:	3f3f3f3f 3f3f3f3f 	.insn	8, 0x3f3f3f3f3f3f3f3f
   153da:	3f3f3f3f 3f3f3f3f 	.insn	8, 0x3f3f3f3f3f3f3f3f
   153e2:	3f3f3f3f 3f3f3f3f 	.insn	8, 0x3f3f3f3f3f3f3f3f
   153ea:	3f3f3f3f 3f3f3f3f 	.insn	8, 0x3f3f3f3f3f3f3f3f
   153f2:	3f3f3f3f 3f3f3f3f 	.insn	8, 0x3f3f3f3f3f3f3f3f
   153fa:	3f3f3f3f 3f3f3f3f 	.insn	8, 0x3f3f3f3f3f3f3f3f
   15402:	3f3f3f3f 3f3f3f3f 	.insn	8, 0x3f3f3f3f3f3f3f3f
   1540a:	3f3f3f3f 3f3f3f3f 	.insn	8, 0x3f3f3f3f3f3f3f3f
   15412:	3f3f3f3f 3f3f3f3f 	.insn	8, 0x3f3f3f3f3f3f3f3f
   1541a:	3f3f3f3f 3f3f3f3f 	.insn	8, 0x3f3f3f3f3f3f3f3f
   15422:	3f3f3f3f 3f3f3f3f 	.insn	8, 0x3f3f3f3f3f3f3f3f
   1542a:	3f3f3f3f 3f3f3f3f 	.insn	8, 0x3f3f3f3f3f3f3f3f
   15432:	3f3f3f3f 3f3f3f3f 	.insn	8, 0x3f3f3f3f3f3f3f3f
   1543a:	3f3f3f3f 3f3f3f3f 	.insn	8, 0x3f3f3f3f3f3f3f3f
   15442:	3f3f3f3f 3f3f3f3f 	.insn	8, 0x3f3f3f3f3f3f3f3f
   1544a:	3f3f3f3f 3f3f3f3f 	.insn	8, 0x3f3f3f3f3f3f3f3f
   15452:	3f3f3f3f 3f3f3f3f 	.insn	8, 0x3f3f3f3f3f3f3f3f
   1545a:	3f3f3f3f 3f3f3f3f 	.insn	8, 0x3f3f3f3f3f3f3f3f
   15462:	3f3f3f3f 3f3f3f3f 	.insn	8, 0x3f3f3f3f3f3f3f3f
   1546a:	3f3f3f3f 3f3f3f3f 	.insn	8, 0x3f3f3f3f3f3f3f3f
   15472:	3f3f3f3f 3f3f3f3f 	.insn	8, 0x3f3f3f3f3f3f3f3f
   1547a:	3f3f3f3f 3f3f3f3f 	.insn	8, 0x3f3f3f3f3f3f3f3f
   15482:	3f3f3f3f 3f3f3f3f 	.insn	8, 0x3f3f3f3f3f3f3f3f
   1548a:	3f3f3f3f 3f3f3f3f 	.insn	8, 0x3f3f3f3f3f3f3f3f
   15492:	3f3f3f3f 3f3f3f3f 	.insn	8, 0x3f3f3f3f3f3f3f3f
   1549a:	3f3f3f3f 3f3f3f3f 	.insn	8, 0x3f3f3f3f3f3f3f3f
   154a2:	3f3f3f3f 3f3f3f3f 	.insn	8, 0x3f3f3f3f3f3f3f3f
   154aa:	3f3f3f3f 3f3f3f3f 	.insn	8, 0x3f3f3f3f3f3f3f3f
   154b2:	3f3f3f3f 3f3f3f3f 	.insn	8, 0x3f3f3f3f3f3f3f3f
   154ba:	3f3f3f3f 3f3f3f3f 	.insn	8, 0x3f3f3f3f3f3f3f3f
   154c2:	3f3f3f3f 3f3f3f3f 	.insn	8, 0x3f3f3f3f3f3f3f3f
   154ca:	3f3f3f3f 3f3f3f3f 	.insn	8, 0x3f3f3f3f3f3f3f3f
   154d2:	3f3f3f3f 3f3f3f3f 	.insn	8, 0x3f3f3f3f3f3f3f3f
   154da:	3f3f3f3f 3f3f3f3f 	.insn	8, 0x3f3f3f3f3f3f3f3f
   154e2:	3f3f3f3f 3f3f3f3f 	.insn	8, 0x3f3f3f3f3f3f3f3f
   154ea:	3f3f3f3f 3f3f3f3f 	.insn	8, 0x3f3f3f3f3f3f3f3f
   154f2:	3f3f3f3f 3f3f3f3f 	.insn	8, 0x3f3f3f3f3f3f3f3f
   154fa:	3f3f3f3f 3f3f3f3f 	.insn	8, 0x3f3f3f3f3f3f3f3f
   15502:	3f3f3f3f 3f3f3f3f 	.insn	8, 0x3f3f3f3f3f3f3f3f
   1550a:	3f3f3f3f 3f3f3f3f 	.insn	8, 0x3f3f3f3f3f3f3f3f
   15512:	3f3f3f3f 3f3f3f3f 	.insn	8, 0x3f3f3f3f3f3f3f3f
   1551a:	3f3f3f3f 3f3f3f3f 	.insn	8, 0x3f3f3f3f3f3f3f3f
   15522:	3f3f3f3f 3f3f3f3f 	.insn	8, 0x3f3f3f3f3f3f3f3f
   1552a:	3f3f3f3f 3f3f3f3f 	.insn	8, 0x3f3f3f3f3f3f3f3f
   15532:	3f3f3f3f 3f3f3f3f 	.insn	8, 0x3f3f3f3f3f3f3f3f
   1553a:	3f3f3f3f 3f3f3f3f 	.insn	8, 0x3f3f3f3f3f3f3f3f
   15542:	3f3f3f3f 3f3f3f3f 	.insn	8, 0x3f3f3f3f3f3f3f3f
   1554a:	3f3f3f3f 3f3f3f3f 	.insn	8, 0x3f3f3f3f3f3f3f3f
   15552:	3f3f3f3f 3f3f3f3f 	.insn	8, 0x3f3f3f3f3f3f3f3f
   1555a:	3f3f3f3f 3f3f3f3f 	.insn	8, 0x3f3f3f3f3f3f3f3f
   15562:	3f3f3f3f 3f3f3f3f 	.insn	8, 0x3f3f3f3f3f3f3f3f
   1556a:	3f3f3f3f 3f3f3f3f 	.insn	8, 0x3f3f3f3f3f3f3f3f
   15572:	3f3f3f3f 3f3f3f3f 	.insn	8, 0x3f3f3f3f3f3f3f3f
   1557a:	3f3f3f3f 3f3f3f3f 	.insn	8, 0x3f3f3f3f3f3f3f3f
   15582:	3f3f3f3f 3f3f3f3f 	.insn	8, 0x3f3f3f3f3f3f3f3f
   1558a:	3f3f3f3f 3f3f3f3f 	.insn	8, 0x3f3f3f3f3f3f3f3f
   15592:	3f3f3f3f 3f3f3f3f 	.insn	8, 0x3f3f3f3f3f3f3f3f
   1559a:	3f3f3f3f 3f3f3f3f 	.insn	8, 0x3f3f3f3f3f3f3f3f
   155a2:	3f3f3f3f 3f3f3f3f 	.insn	8, 0x3f3f3f3f3f3f3f3f
   155aa:	3f3f3f3f 3f3f3f3f 	.insn	8, 0x3f3f3f3f3f3f3f3f
   155b2:	3f3f3f3f 3f3f3f3f 	.insn	8, 0x3f3f3f3f3f3f3f3f
   155ba:	3f3f3f3f 3f3f3f3f 	.insn	8, 0x3f3f3f3f3f3f3f3f
   155c2:	3f3f3f3f 3f3f3f3f 	.insn	8, 0x3f3f3f3f3f3f3f3f
   155ca:	3f3f3f3f 3f3f3f3f 	.insn	8, 0x3f3f3f3f3f3f3f3f
   155d2:	3f3f3f3f 3f3f3f3f 	.insn	8, 0x3f3f3f3f3f3f3f3f
   155da:	3f3f3f3f 3f3f3f3f 	.insn	8, 0x3f3f3f3f3f3f3f3f
   155e2:	0000                	unimp
	...

Disassembly of section .sdata:

00000000000155e8 <.LCPI7_0>:
   155e8:	8080                	.insn	2, 0x8080
   155ea:	8080                	.insn	2, 0x8080
   155ec:	8080                	.insn	2, 0x8080
   155ee:	8080                	.insn	2, 0x8080

00000000000155f0 <.LCPI13_0>:
   155f0:	8080                	.insn	2, 0x8080
   155f2:	8080                	.insn	2, 0x8080
   155f4:	8080                	.insn	2, 0x8080
   155f6:	8080                	.insn	2, 0x8080

00000000000155f8 <.LCPI13_1>:
   155f8:	ffff                	.insn	2, 0xffff
   155fa:	b6b3a763          	.insn	4, 0xb6b3a763
   155fe:	0de0                	add	s0,sp,732

0000000000015600 <.LCPI19_0>:
   15600:	a09b5a53          	.insn	4, 0xa09b5a53
   15604:	0044b82f          	amoadd.d	a6,tp,(s1)

0000000000015608 <.LCPI47_0>:
   15608:	cd3d5dbf 0218a392 	.insn	8, 0x0218a392cd3d5dbf

0000000000015610 <.LCPI83_0>:
   15610:	8080                	.insn	2, 0x8080
   15612:	8080                	.insn	2, 0x8080
   15614:	8080                	.insn	2, 0x8080
   15616:	8080                	.insn	2, 0x8080

0000000000015618 <.LCPI84_0>:
   15618:	8080                	.insn	2, 0x8080
   1561a:	8080                	.insn	2, 0x8080
   1561c:	8080                	.insn	2, 0x8080
   1561e:	8080                	.insn	2, 0x8080

0000000000015620 <.LCPI148_0>:
   15620:	8080                	.insn	2, 0x8080
   15622:	8080                	.insn	2, 0x8080
   15624:	8080                	.insn	2, 0x8080
   15626:	8080                	.insn	2, 0x8080

0000000000015628 <.LCPI170_0>:
   15628:	cefd                	beqz	a3,15726 <.LCPI423_0+0x6>
   1562a:	8461                	sra	s0,s0,0x18
   1562c:	7711                	lui	a4,0xfffe4
   1562e:	abcc                	fsd	fa1,144(a5)

0000000000015630 <.LCPI170_1>:
   15630:	b1137857          	.insn	4, 0xb1137857
   15634:	39a5652f          	.insn	4, 0x39a5652f

0000000000015638 <.LCPI170_2>:
   15638:	cd81                	beqz	a1,15650 <.LCPI170_5>
   1563a:	5095                	li	ra,-27
   1563c:	0b424dc3          	fmadd.d	fs11,ft4,fs4,ft1,rmm

0000000000015640 <.LCPI170_3>:
   15640:	5bd42233          	.insn	4, 0x5bd42233
   15644:	3302                	fld	ft6,32(sp)
   15646:	          	.insn	4, 0xd5bf232f

0000000000015648 <.LCPI170_4>:
   15648:	bdedd5bf dbe6fece 	.insn	8, 0xdbe6fecebdedd5bf

0000000000015650 <.LCPI170_5>:
   15650:	d7b634db          	.insn	4, 0xd7b634db
   15654:	de82                	sw	zero,124(sp)
   15656:	          	.insn	4, 0x8f5d431b

0000000000015658 <.LCPI170_6>:
   15658:	8f5d                	or	a4,a4,a5
   1565a:	f5c2                	sd	a6,232(sp)
   1565c:	5c28                	lw	a0,120(s0)
   1565e:	          	.insn	4, 0x594b028f

0000000000015660 <.LCPI170_7>:
   15660:	3886594b          	fnmsub.s	fs2,fa2,fs0,ft7,unknown
   15664:	c5d6                	sw	s5,200(sp)
   15666:	346d                	addw	s0,s0,-5

0000000000015668 <.LCPI170_8>:
   15668:	5c28f5c3          	.insn	4, 0x5c28f5c3
   1566c:	28f5c28f          	.insn	4, 0x28f5c28f

0000000000015670 <.LCPI170_9>:
   15670:	1eb9                	add	t4,t4,-18
   15672:	eb85                	bnez	a5,156a2 <.LCPI219_0+0x2>
   15674:	b851                	j	14f08 <_ZN6kernel7console7CONSOLE17hf1f49ad43aab6abcE+0xf928>
   15676:	051e                	sll	a0,a0,0x7

0000000000015678 <.LCPI173_0>:
   15678:	e8361973          	csrrw	s2,0xe83,a2
   1567c:	f4f1                	bnez	s1,15648 <.LCPI170_4>
   1567e:	9598                	.insn	2, 0x9598

0000000000015680 <.LCPI173_1>:
   15680:	b0d2                	fsd	fs4,96(sp)
   15682:	db4a                	sw	s2,180(sp)
   15684:	253e                	fld	fa0,456(sp)
   15686:	          	.insn	4, 0xb0d3760f

0000000000015688 <.LCPI173_2>:
   15688:	db4ab0d3          	.insn	4, 0xdb4ab0d3
   1568c:	253e                	fld	fa0,456(sp)
   1568e:	          	.insn	4, 0x760f

0000000000015690 <.LCPI173_3>:
   15690:	0000                	unimp
   15692:	7618                	ld	a4,40(a2)
   15694:	7538dcfb          	.insn	4, 0x7538dcfb

0000000000015698 <.LCPI218_0>:
   15698:	8080                	.insn	2, 0x8080
   1569a:	8080                	.insn	2, 0x8080
   1569c:	8080                	.insn	2, 0x8080
   1569e:	8080                	.insn	2, 0x8080

00000000000156a0 <.LCPI219_0>:
   156a0:	8080                	.insn	2, 0x8080
   156a2:	8080                	.insn	2, 0x8080
   156a4:	8080                	.insn	2, 0x8080
   156a6:	8080                	.insn	2, 0x8080

00000000000156a8 <.LCPI234_0>:
   156a8:	8080                	.insn	2, 0x8080
   156aa:	8080                	.insn	2, 0x8080
   156ac:	8080                	.insn	2, 0x8080
   156ae:	8080                	.insn	2, 0x8080

00000000000156b0 <.LCPI235_0>:
   156b0:	8080                	.insn	2, 0x8080
   156b2:	8080                	.insn	2, 0x8080
   156b4:	8080                	.insn	2, 0x8080
   156b6:	8080                	.insn	2, 0x8080

00000000000156b8 <.LCPI253_0>:
   156b8:	bdedd5bf dbe6fece 	.insn	8, 0xdbe6fecebdedd5bf

00000000000156c0 <.LCPI253_1>:
   156c0:	71b47843          	fmadd.s	fa6,fs0,fs11,fa4
   156c4:	5ac4                	lw	s1,52(a3)
   156c6:	0a7c                	add	a5,sp,284

00000000000156c8 <.LCPI303_0>:
   156c8:	02f9                	add	t0,t0,30
   156ca:	5015                	c.li	zero,-27
   156cc:	0000                	unimp
	...

00000000000156d0 <.LCPI303_1>:
   156d0:	dfdf dfdf dfdf      	.insn	6, 0xdfdfdfdfdfdf
   156d6:	dfdf        	.insn	6, 0x49464e49dfdf

00000000000156d8 <.LCPI303_2>:
   156d8:	4e49                	li	t3,18
   156da:	4946                	lw	s2,80(sp)
   156dc:	494e                	lw	s2,208(sp)
   156de:	5954                	lw	a3,52(a0)

00000000000156e0 <.LCPI304_0>:
   156e0:	d592                	sw	tp,232(sp)
   156e2:	064d                	add	a2,a2,19
   156e4:	4480f0cf          	.insn	4, 0x4480f0cf

00000000000156e8 <.LCPI304_1>:
   156e8:	0000                	unimp
   156ea:	0000                	unimp
   156ec:	0000                	unimp
   156ee:	7ff0                	ld	a2,248(a5)

00000000000156f0 <.LCPI304_2>:
   156f0:	0000                	unimp
   156f2:	0000                	unimp
   156f4:	0000                	unimp
   156f6:	7ff8                	ld	a4,248(a5)

00000000000156f8 <.LCPI304_3>:
   156f8:	dfdf dfdf dfdf      	.insn	6, 0xdfdfdfdfdfdf
   156fe:	dfdf        	.insn	6, 0x49464e49dfdf

0000000000015700 <.LCPI304_4>:
   15700:	4e49                	li	t3,18
   15702:	4946                	lw	s2,80(sp)
   15704:	494e                	lw	s2,208(sp)
   15706:	5954                	lw	a3,52(a0)

0000000000015708 <.LCPI388_0>:
   15708:	38d1b717          	auipc	a4,0x38d1b

000000000001570c <.LCPI388_1>:
   1570c:	1bca                	sll	s7,s7,0x32
   1570e:	5a0e                	lw	s4,224(sp)

0000000000015710 <.LCPI392_0>:
   15710:	432d                	li	t1,11
   15712:	eb1c                	sd	a5,16(a4)
   15714:	36e2                	fld	fa3,56(sp)
   15716:	3f1a                	fld	ft10,416(sp)

0000000000015718 <.LCPI392_1>:
   15718:	8000                	.insn	2, 0x8000
   1571a:	37e0                	fld	fs0,232(a5)
   1571c:	c379                	beqz	a4,157e2 <.LCPI449_5+0x62>
   1571e:	4341                	li	t1,16

0000000000015720 <.LCPI423_0>:
   15720:	3886594b          	fnmsub.s	fs2,fa2,fs0,ft7,unknown
   15724:	c5d6                	sw	s5,200(sp)
   15726:	346d                	addw	s0,s0,-5

0000000000015728 <.LCPI432_0>:
   15728:	999a                	add	s3,s3,t1
   1572a:	9999                	and	a1,a1,-26
   1572c:	9999                	and	a1,a1,-26
   1572e:	1999                	add	s3,s3,-26 # a985264 <end+0xa967260>

0000000000015730 <.LCPI432_1>:
   15730:	3af7b757          	.insn	4, 0x3af7b757
   15734:	036f9bfb          	.insn	4, 0x036f9bfb

0000000000015738 <.LCPI432_2>:
   15738:	e109                	bnez	a0,1573a <.LCPI432_2+0x2>
   1573a:	c6d1                	beqz	a3,157c6 <.LCPI449_5+0x46>
   1573c:	6b11                	lui	s6,0x4
   1573e:	29f1                	addw	s3,s3,28

0000000000015740 <.LCPI432_3>:
   15740:	aaff cb24 ff0b afeb 	.insn	14, 0xb588e368f085afebff0bcb24aaff
   15748:	   

0000000000015748 <.LCPI432_4>:
   15748:	f085                	bnez	s1,15668 <.LCPI170_8>
   1574a:	e368                	sd	a0,192(a4)
   1574c:	b588                	fsd	fa0,40(a1)
   1574e:	14f8                	add	a4,sp,620

0000000000015750 <.LCPI432_5>:
   15750:	5c28f5c3          	.insn	4, 0x5c28f5c3
   15754:	28f5c28f          	.insn	4, 0x28f5c28f

0000000000015758 <.LCPI449_0>:
   15758:	cccc                	sw	a1,28(s1)
   1575a:	cccc                	sw	a1,28(s1)
   1575c:	cccc                	sw	a1,28(s1)
   1575e:	cccc                	sw	a1,28(s1)

0000000000015760 <.LCPI449_1>:
   15760:	c6448d93          	add	s11,s1,-924
   15764:	314d                	addw	sp,sp,-13
	...

0000000000015768 <.LCPI449_2>:
   15768:	fff5                	bnez	a5,15764 <.LCPI449_1+0x4>
   1576a:	5d89                	li	s11,-30
   1576c:	4578                	lw	a4,76(a0)
   1576e:	          	beq	t5,s11,14cb0 <_ZN6kernel7console7CONSOLE17hf1f49ad43aab6abcE+0xf6d0>

0000000000015770 <.LCPI449_3>:
   15770:	bdedd5bf dbe6fece 	.insn	8, 0xdbe6fecebdedd5bf

0000000000015778 <.LCPI449_4>:
   15778:	71b47843          	fmadd.s	fa6,fs0,fs11,fa4
   1577c:	5ac4                	lw	s1,52(a3)
   1577e:	0a7c                	add	a5,sp,284

0000000000015780 <.LCPI449_5>:
   15780:	ffff                	.insn	2, 0xffff
   15782:	5d89                	li	s11,-30
   15784:	4578                	lw	a4,76(a0)
   15786:	Address 0x15786 is out of bounds.


Disassembly of section .comment:

0000000000000000 <.comment>:
   0:	694c                	ld	a1,144(a0)
   2:	6b6e                	ld	s6,216(sp)
   4:	7265                	lui	tp,0xffff9
   6:	203a                	fld	ft0,392(sp)
   8:	4c4c                	lw	a1,28(s0)
   a:	2044                	fld	fs1,128(s0)
   c:	3831                	addw	a6,a6,-20 # fffffffffffdffec <end+0xfffffffffffc1fe8>
   e:	312e                	fld	ft2,232(sp)
  10:	372e                	fld	fa4,232(sp)
  12:	7200                	ld	s0,32(a2)
  14:	7375                	lui	t1,0xffffd
  16:	6374                	ld	a3,192(a4)
  18:	7620                	ld	s0,104(a2)
  1a:	7265                	lui	tp,0xffff9
  1c:	6e6f6973          	csrrs	s2,0x6e6,30
  20:	3120                	fld	fs0,96(a0)
  22:	382e                	fld	fa6,232(sp)
  24:	2e31                	addw	t3,t3,12 # 501000c <end+0x4ff2008>
  26:	2d30                	fld	fa2,88(a0)
  28:	696e                	ld	s2,216(sp)
  2a:	6c746867          	.insn	4, 0x6c746867
  2e:	2079                	.insn	2, 0x2079
  30:	6628                	ld	a0,72(a2)
  32:	6164                	ld	s1,192(a0)
  34:	3035                	.insn	2, 0x3035
  36:	6539                	lui	a0,0xe
  38:	3138                	fld	fa4,96(a0)
  3a:	3220                	fld	fs0,96(a2)
  3c:	3230                	fld	fa2,96(a2)
  3e:	2d34                	fld	fa3,88(a0)
  40:	3630                	fld	fa2,104(a2)
  42:	322d                	addw	tp,tp,-21 # ffffffffffff8feb <end+0xfffffffffffdafe7>
  44:	2935                	addw	s2,s2,13
	...

Disassembly of section .riscv.attributes:

0000000000000000 <.riscv.attributes>:
   0:	3d41                	addw	s10,s10,-16
   2:	0000                	unimp
   4:	7200                	ld	s0,32(a2)
   6:	7369                	lui	t1,0xffffa
   8:	01007663          	bgeu	zero,a6,14 <.Lline_table_start0+0x14>
   c:	00000033          	add	zero,zero,zero
  10:	1004                	add	s1,sp,32
  12:	7205                	lui	tp,0xfffe1
  14:	3676                	fld	fa2,376(sp)
  16:	6934                	ld	a3,80(a0)
  18:	7032                	.insn	2, 0x7032
  1a:	5f31                	li	t5,-20
  1c:	326d                	addw	tp,tp,-5 # fffffffffffe0ffb <end+0xfffffffffffc2ff7>
  1e:	3070                	fld	fa2,224(s0)
  20:	615f 7032 5f31      	.insn	6, 0x5f317032615f
  26:	3266                	fld	ft4,120(sp)
  28:	3270                	fld	fa2,224(a2)
  2a:	645f 7032 5f32      	.insn	6, 0x5f327032645f
  30:	30703263          	.insn	4, 0x30703263
  34:	7a5f 6369 7273      	.insn	6, 0x727363697a5f
  3a:	7032                	.insn	2, 0x7032
  3c:	0030                	add	a2,sp,8
